(dp0
S'stim_onset_time'
p1
(dp2
sS'datestamp'
p3
S'2013-02-14-07_39_37'
p4
sS'ntrials_per_block'
p5
I6
sS'expt_title'
p6
S'Self_Tracking'
p7
sS'rt'
p8
(dp9
sS'simulated_response'
p10
I00
sS'script'
p11
(lp12
S'#!/usr/bin/env python\n'
p13
aS'\n'
p14
aS'import psychopy\n'
p15
aS'from psychopy import visual, core, event, logging, data, misc, sound\n'
p16
aS'import numpy as N\n'
p17
aS'import pickle,csv\n'
p18
aS'import datetime\n'
p19
aS'import sys\n'
p20
aS'import os, socket, random\n'
p21
aS'import inspect\n'
p22
aS'import hashlib\n'
p23
aS'from socket import gethostname\n'
p24
aS'import exptutils\n'
p25
aS'from exptutils import *\n'
p26
aS'from pylab import imread\n'
p27
ag14
aS'try:\n'
p28
aS'    from save_data_to_db import *\n'
p29
aS'    save_data=1\n'
p30
aS'except:\n'
p31
aS"    print 'cannnot import save_data_to_db'\n"
p32
aS'    save_data=0\n'
p33
ag14
aS'def store_scriptfile():\n'
p34
aS'    scriptfile= inspect.getfile(inspect.currentframe())# save a copy of the script in the data file\n'
p35
aS'    f=open(scriptfile)\n'
p36
aS'    script=f.readlines()\n'
p37
aS'    f.close()\n'
p38
aS'    return script\n'
p39
ag14
aS'#\n'
p40
aS'#- - - - - - - - - - - - - - - - - - - - - - - - - - - - - - - - - - - - - - - - - - - - - - - - - - - - - - - - - - - - - - - - - - - - - - - - - - - - - -\n'
p41
aS'#define functions for awaiting keyboard input & displaying initial instructions\n'
p42
aS'#these functions will be called prior to the stim_block() function (at bottom)\n'
p43
ag14
aS'def wait_for_trigger():\n'
p44
aS'    event.clearEvents()\n'
p45
aS"    if subdata['simulated_response']:\n"
p46
aS'        msg="SIMULATION MODE"\n'
p47
aS'    else:\n'
p48
aS"        msg=''\n"
p49
aS"    message=visual.TextStim(win, text='%s Waiting for start key (or press %s)'%(msg,subdata['start_key']),\n"
p50
aS"    font='BiauKai', height=1,color=u'white', colorSpace=u'rgb', opacity=1,depth=0.0,\n"
p51
aS"    alignHoriz='center',wrapWidth=50)\n"
p52
aS'    message.setAutoDraw(True) #automatically draw every frame\n'
p53
aS'    win.flip()\n'
p54
aS'    start=False\n'
p55
aS'    while start==False:\n'
p56
aS'        k=event.waitKeys()\n'
p57
aS"        if k.count(subdata['start_key'])>0:#as soon as subdata['start_key'] is pressed...\n"
p58
aS'            start=True\n'
p59
aS"            message.setText('')#this clears the screen\n"
p60
aS'            win.flip()\n'
p61
aS"        if k.count(subdata['quit_key']) >0:# if subdata['quit_key'] is pressed...\n"
p62
aS'            exptutils.shut_down_cleanly(subdata,win)\n'
p63
aS'            return subdata\n'
p64
aS'            \n'
p65
aS"def instructions(n,duration):#n here changes depending on the n-back level; yes/no will also switch between 'u' & 'i' keys depending on the Order number selected\n"
p66
aS'    event.clearEvents()\n'
p67
aS"    instructions=visual.TextStim(win=win, ori=0, name='instructions',font='BiauKai',\n"
p68
aS"        text='%d back'%n,\n"
p69
aS"        height=2,color=u'white', colorSpace=u'rgb', alignHoriz='center',wrapWidth=50)\n"
p70
aS'    instructions.setAutoDraw(True)\n'
p71
aS'    win.flip()\n'
p72
aS'    core.wait(duration)#currently it is set up to keep instructions on screen the designated amt of time; a button press will not end these instructions sooner\n'
p73
aS"    instructions.setText('')\n"
p74
aS'    win.flip()\n'
p75
ag14
aS'#- - - - - - - - - - - - - - - - - - - - - - - - - - - - - - - - - - - - - - - - - - - - - - - - - - - - - - - - - - - - - - - - - - - - - - - - \n'
p76
ag14
ag14
aS'#define function for displaying visual stims for each trial on n-back task\n'
p77
ag14
aS'def draw_stim(win,event_info,subdata,visual_stim):\n'
p78
aS'    trialdata={}\n'
p79
aS"    trialdata['duration']=subdata['stim_dur']\n"
p80
aS"    trialdata['onset'],trialdata['block'],trialdata['nback'],trialdata['match'],trialdata['stim']=event_info\n"
p81
aS'    # NB: I removed a lot of data handling stuff from within this function\n'
p82
aS'    # instead, the data get returned and handled at the calling level\n'
p83
aS"    print trialdata['stim']\n"
p84
aS"    if trialdata['stim'].find('faces')>-1:#if it is a face image, display vertically\n"
p85
aS"        stim_type='faces'\n"
p86
aS"    elif trialdata['stim'].find('scenes')>-1:#\n"
p87
aS"        stim_type='scenes'\n"
p88
aS'    else:#if it is a character, display as text\n'
p89
aS"        stim_type='chinese_characters'\n"
p90
aS'        \n'
p91
aS"    visual_stim.setImage(trialdata['stim'])\n"
p92
aS"    trialdata['stim_type']=stim_type\n"
p93
aS'    \n'
p94
aS'        #visual_stim[stim_type].setAutoDraw(True)#get the image ready to display\n'
p95
aS'    visual_stim.draw()\n'
p96
aS"    while clock.getTime()<trialdata['onset']:#wait until the specified onset time to display image_file\n"
p97
aS'        pass\n'
p98
aS'    win.flip()\n'
p99
aS"    trialdata['actual_onset_time']=clock.getTime()\n"
p100
aS'    event.clearEvents()#clear all button presses\n'
p101
aS'    thisResp=None\n'
p102
aS'    simulated_rt=0.5 + N.random.rand()*0.1\n'
p103
aS"    while clock.getTime() < (trialdata['actual_onset_time'] + trialdata['duration']):#before the subdata['stim_dur'] time is exceeded, do this stuff...\n"
p104
aS'            key_response=event.getKeys()#look for yes,no, and quit commands\n'
p105
aS"            if subdata['simulated_response']:\n"
p106
aS"                if clock.getTime()> trialdata['actual_onset_time'] + simulated_rt:\n"
p107
aS'                    thisResp=1\n'
p108
aS"                    trialdata['rt']=clock.getTime() - trialdata['actual_onset_time'] #collect rt\n"
p109
aS"                    if trialdata['match']==trialdata['nback']:\n"
p110
aS"                        trialdata['response']='4'\n"
p111
aS'                    else:\n'
p112
aS"                        trialdata['response']='1'\n"
p113
ag14
aS'            elif key_response:#if they press any button\n'
p114
aS"                if key_response.count(subdata['quit_key'])>0:#if subj hits subdata['quit_key']...\n"
p115
aS'                    keep_going=0\n'
p116
aS"                    #subdata['broke_on_trial'][which_block]=trial_num\n"
p117
aS'                    #shut_down_cleanly(subdata,win)\n'
p118
aS'                    return None\n'
p119
aS"                elif key_response.count('5')>0:\n"
p120
aS"                    subdata['trigger_times'].append(clock.getTime())\n"
p121
aS'                else:\n'
p122
aS'                    thisResp=1\n'
p123
aS"                    trialdata['rt']=clock.getTime() - trialdata['actual_onset_time'] #collect rt\n"
p124
aS"                    trialdata['response']=key_response[0]#collect response\n"
p125
ag14
aS'    visual_stim.clearTextures()\n'
p126
ag14
aS'    win.flip()\n'
p127
ag14
aS'    #del visual_stim\n'
p128
aS'    return trialdata\n'
p129
aS'    \n'
p130
ag14
ag14
aS'#Text saying the task has finished. Disappears with key press\n'
p131
ag14
aS'def display_finished_text():#finished with experiment\n'
p132
aS'    event.clearEvents()\n'
p133
aS'    message=visual.TextStim(win=win, ori=0,\n'
p134
aS"    text='All finished! Thanks  :) \\n Press any key to clear the screen.',\n"
p135
aS"    font=u'BiauKai',pos=[0, 0], height=2,color=u'white', colorSpace=u'rgb', opacity=1,depth=0.0,alignHoriz='center',wrapWidth=50)\n"
p136
aS'    message.setAutoDraw(True) \n'
p137
aS'    win.flip()\n'
p138
aS'    start=False\n'
p139
aS'    while start==False:\n'
p140
aS'        key_response=event.getKeys()\n'
p141
aS'        if len(key_response)>0:\n'
p142
aS'            start=True\n'
p143
aS"            message.setText('')#this clears the screen\n"
p144
aS'            win.flip()\n'
p145
aS'    return start\n'
p146
aS'#- - - - - - - - - - - - - - - - - - - - - - - - - - - - - - - - - - - - - - - - - - - - - - - - - - - - - - - - - - - - - - - - - - - - - - \n'
p147
ag14
aS'    \n'
p148
aS'#set-up some variables\n'
p149
ag14
aS'verbose=True\n'
p150
aS'fullscr=False  # change to True for full screen display\n'
p151
ag14
aS"stim_types=['faces','scenes','chinese_characters']\n"
p152
aS'subdata={}\n'
p153
aS'finish_time=440\n'
p154
ag14
aS"subdata['start_key']='5'\n"
p155
aS"subdata['quit_key']='q'\n"
p156
aS"subdata['discard_time_to_wait']=0.0\n"
p157
aS"subdata['expt_title']='Self_Tracking'\n"
p158
aS"subdata['stim_dur']=1.0\n"
p159
aS"subdata['inter_stim_int']=1.0\n"
p160
aS"subdata['inst_time']=1.0\n"
p161
aS"subdata['rest_time']=10.0\n"
p162
aS"subdata['ExpVersion']=0.1\n"
p163
aS"subdata['nstims']=5\n"
p164
aS"subdata['ntrials_per_block']=6\n"
p165
aS"subdata['simulated_response']=False\n"
p166
aS"subdata['trigger_times']=[]\n"
p167
ag14
aS'if len(sys.argv)<2:\n'
p168
aS"    print 'USAGE: self_tracking.py <stimlist> <session code>'\n"
p169
aS'    sys.exit()\n'
p170
aS"    #subdata['onsetfile']='/Users/poldrack/Dropbox/Documents/Projects/self-tracking/task/onsetlists/stimlist_000.txt'\n"
p171
aS'else:\n'
p172
aS"    subdata['onsetfile']=sys.argv[1]\n"
p173
aS"    subdata['subcode']=sys.argv[2]\n"
p174
ag14
ag14
aS'# initialize subdata dictionary to store info about the study\n'
p175
aS"subdata['completed']=0\n"
p176
aS"subdata['cwd']=os.getcwd()\n"
p177
aS"subdata['hostname']=socket.gethostname()\n"
p178
aS'clock=core.Clock()\n'
p179
aS'datestamp=datetime.datetime.now().strftime("%Y-%m-%d-%H_%M_%S")\n'
p180
aS"subdata['datestamp']=datestamp\n"
p181
aS"subdata['expt_title']=subdata['expt_title']\n"
p182
aS"subdata['script']=store_scriptfile()\n"
p183
aS"subdata['onsets']=subdata['onsetfile']\n"
p184
ag14
aS'#these are all sub-dictionaries which will be appended w/separate info for each block & each trial\n'
p185
aS"#i.e., the 'response' dictionary will contain the following dictionaries: face_1, face_2, scenes_1, scenes_2, whose keys are trial_num and values are the responses on that trial\n"
p186
aS"subdata['response']={}\n"
p187
aS"subdata['score']={}\n"
p188
aS"subdata['rt']={}\n"
p189
aS"subdata['stim_onset_time']={}\n"
p190
aS"subdata['stim_log']={}\n"
p191
aS"subdata['is_this_SS_trial']={}\n"
p192
aS"subdata['SS']={}\n"
p193
aS"subdata['broke_on_trial']={}\n"
p194
ag14
aS'# set up logging information & create Output directories\n'
p195
aS"if not os.path.isdir('Output'):#make an Output directory if necessary\n"
p196
aS"    os.makedirs('Output') \n"
p197
ag14
aS"dataFileName='Output/%s_%s_subdata.log'%(subdata['subcode'],subdata['datestamp'])\n"
p198
aS'logging.console.setLevel(logging.INFO)\n'
p199
aS'logfile=logging.LogFile(dataFileName,level=logging.INFO)\n'
p200
ag14
aS'# load stimulus file\n'
p201
ag14
aS'def load_stimulus_file(onsfile):\n'
p202
aS'    events=[]\n'
p203
aS'    f=open(onsfile)\n'
p204
aS'    l=f.readlines()\n'
p205
aS'    for line in l:\n'
p206
aS"        l_s=line.strip('\\n').split('\\t')\n"
p207
aS'        events.append([float(l_s[0]),int(l_s[1]),int(l_s[2]),int(l_s[3]),l_s[4]])\n'
p208
aS'    f.close()\n'
p209
aS'    return events\n'
p210
ag14
aS"events=load_stimulus_file(subdata['onsetfile'])\n"
p211
ag14
aS'# set up the window \n'
p212
aS"win = visual.Window([800,600],allowGUI=True, fullscr=True, monitor='testMonitor', units='deg')\n"
p213
aS"win.setColor('black')\n"
p214
aS'win.flip()\n'
p215
aS'win.flip()\n'
p216
ag14
aS'#integrating everything together\n'
p217
ag14
aS"subdata['trialdata']={}\n"
p218
aS'#chardict=create_characters_dict()\n'
p219
ag14
aS"wait_for_trigger()#wait for subdata['start_key'] to be pressed\n"
p220
ag14
aS'visual_stim={}\n'
p221
aS"visual_stim=visual.ImageStim(win, image=N.zeros((10,10)), size=(0.75,0.75),units='height')\n"
p222
ag14
aS'# set clock to zero\n'
p223
aS'clock.reset()\n'
p224
aS'trialctr=0\n'
p225
aS'for i in range(len(events)):\n'
p226
aS"    if events[i][4]=='inst':\n"
p227
aS'        while clock.getTime() < events[i][0]:\n'
p228
aS'            pass\n'
p229
aS"        instructions(events[i][2],subdata['inst_time'])\n"
p230
aS'    else:\n'
p231
aS"        subdata['trialdata'][trialctr]=draw_stim(win,events[i],subdata,visual_stim)\n"
p232
aS"        if subdata['trialdata'][trialctr]==None:\n"
p233
aS'            break\n'
p234
aS'        trialctr+=1\n'
p235
aS"        print 'return time:',clock.getTime()\n"
p236
ag14
aS'#display_finished_text()\n'
p237
aS'while clock.getTime()<finish_time:\n'
p238
aS'\tpass\n'
p239
aS'\t\n'
p240
aS"subdata['events']=events\n"
p241
aS'if save_data==1:\n'
p242
aS"    docId,docRev=save_data_to_db(subdata,'selftracking-taskdata')\n"
p243
ag14
aS'shut_down_cleanly(subdata,win)\n'
p244
asS'onsets'
p245
S'onsetlists/stimlist_008.txt'
p246
sS'hostname'
p247
S'IRC-arizona'
p248
sS'score'
p249
(dp250
sS'rest_time'
p251
F10.0
sS'cwd'
p252
S'/Users/rap2623/Dropbox/Documents/Projects/self-tracking/task'
p253
sS'trigger_times'
p254
(lp255
F2.275639057159424
aF4.595667123794556
aF6.915651082992554
aF8.07585620880127
aF10.395860195159912
aF12.715825080871582
aF16.194886207580566
aF18.515018224716187
aF20.834883213043213
aF24.31522512435913
aF26.635251998901367
aF28.955286026000977
aF30.115493059158325
aF32.43543815612793
aF34.75559115409851
aF38.23563814163208
aF40.555660009384155
aF42.87569713592529
aF46.355767011642456
aF48.675812005996704
aF50.99590015411377
aF52.15606713294983
aF54.47605299949646
aF56.79613208770752
aF60.27607607841492
aF62.596251010894775
aF64.91527700424194
aF68.39539909362793
aF70.71549010276794
aF74.19556617736816
aF76.51572918891907
aF78.83588910102844
aF82.31588411331177
aF84.63589906692505
aF86.95615005493164
aF90.43612217903137
aF92.75609421730042
aF96.23620009422302
aF98.55613923072815
aF100.87630319595337
aF102.03646612167358
aF104.3564350605011
aF106.67649412155151
aF108.99674105644226
aF112.47669911384583
aF114.79571223258972
aF118.27585101127625
aF120.59588718414307
aF122.91595506668091
aF124.07610511779785
aF126.39613604545593
aF128.71604013442993
aF154.23689222335815
aF156.55694103240967
aF158.87698006629944
aF160.0371391773224
aF162.35698318481445
aF164.67711114883423
aF166.99619317054749
aF168.1563310623169
aF170.47629117965698
aF172.79660415649414
aF176.27653121948242
aF178.59655117988586
aF180.91657519340515
aF182.07674717903137
aF184.3967320919037
aF186.71673607826233
aF190.19688606262207
aF192.51701021194458
aF194.83696722984314
aF198.31708216667175
aF200.63713121414185
aF202.95719599723816
aF204.1173551082611
aF206.43736815452576
aF208.75740599632263
aF212.2374551296234
aF214.5565710067749
aF216.8765890598297
aF220.35672211647034
aF222.6768021583557
aF224.99684715270996
aF226.15694904327393
aF228.47694420814514
aF230.79690623283386
aF234.2772262096405
aF236.59718799591064
aF238.91718220710754
aF242.39740204811096
aF244.71758103370667
aF248.1975281238556
aF250.51754903793335
aF252.83760809898376
aF256.31776213645935
aF258.6378412246704
aF260.9578580856323
aF264.4379861354828
aF266.75703620910645
aF270.2370400428772
aF272.5571930408478
aF274.87722420692444
aF276.0374262332916
aF278.35740423202515
aF280.67741322517395
aF282.9974491596222
aF306.1981580257416
aF308.5182111263275
aF310.8381791114807
aF314.318400144577
aF316.63743805885315
aF318.9574730396271
aF320.1176691055298
aF322.4376389980316
aF324.7576651573181
aF328.23779916763306
aF330.55779218673706
aF332.87786507606506
aF334.038045167923
aF336.3580012321472
aF338.6780800819397
aF340.99805521965027
aF342.1582930088043
aF344.4782440662384
aF346.798269033432
aF350.2784261703491
aF352.5984311103821
aF354.91848611831665
aF356.0787010192871
aF358.3986132144928
aF360.718652009964
aF364.1986200809479
aF366.51785111427307
aF368.8379189968109
aF372.3181691169739
aF374.6380670070648
aF376.95802903175354
aF378.1182870864868
aF380.4382610321045
aF382.75847721099854
aF386.2384910583496
aF388.55835914611816
aF390.87856006622314
aF394.3585720062256
aF396.67860102653503
aF398.9987630844116
aF400.1588761806488
aF402.47886300086975
aF404.79893708229065
aF408.27903413772583
aF410.5990951061249
aF412.91912508010864
aF416.399218082428
aF418.7182970046997
aF422.19839215278625
aF424.5185492038727
aF426.8386170864105
aF430.3185021877289
aF432.63873314857483
aF434.9587490558624
asS'ExpVersion'
p256
F0.1
sS'completed'
p257
I0
sS'stim_dur'
p258
F1.0
sS'quit_key'
p259
S'q'
p260
sS'onsetfile'
p261
g246
sS'discard_time_to_wait'
p262
F0.0
sS'response'
p263
(dp264
sS'trialdata'
p265
(dp266
I0
(dp267
g8
F0.5101828575134277
sS'stim'
p268
S'./stimfiles/faces/cropped_669.png'
p269
sS'onset'
p270
F2.0
sS'stim_type'
p271
S'faces'
p272
sS'block'
p273
I0
sS'nback'
p274
I1
sS'duration'
p275
F1.0
sg263
S'1'
p276
sS'match'
p277
I0
sS'actual_onset_time'
p278
F2.0163731575012207
ssI1
(dp279
g8
F0.5885300636291504
sg268
S'./stimfiles/faces/cropped_471.png'
p280
sg270
F4.0
sg271
g272
sg273
I0
sg274
I1
sg275
F1.0
sg263
g276
sg277
I0
sg278
F4.017182111740112
ssI2
(dp281
g8
F0.6386110782623291
sg268
S'./stimfiles/faces/cropped_669.png'
p282
sg270
F6.0
sg271
g272
sg273
I0
sg274
I1
sg275
F1.0
sg263
g276
sg277
I2
sg278
F6.018062114715576
ssI3
(dp283
g8
F0.6258509159088135
sg268
S'./stimfiles/faces/cropped_i414wa-mn.png'
p284
sg270
F8.0
sg271
g272
sg273
I0
sg274
I1
sg275
F1.0
sg263
g276
sg277
I0
sg278
F8.01879620552063
ssI4
(dp285
g8
F0.8181271553039551
sg268
S'./stimfiles/faces/cropped_i414wa-mn.png'
p286
sg270
F10.0
sg271
g272
sg273
I0
sg274
I1
sg275
F1.0
sg263
S'4'
p287
sg277
I1
sg278
F10.01966905593872
ssI5
(dp288
g8
F0.5483250617980957
sg268
S'./stimfiles/faces/cropped_669.png'
p289
sg270
F12.0
sg271
g272
sg273
I0
sg274
I1
sg275
F1.0
sg263
g276
sg277
I3
sg278
F12.020516157150269
ssI6
(dp290
g8
F0.5635669231414795
sg268
S'./stimfiles/faces/cropped_365.png'
p291
sg270
F14.0
sg271
g272
sg273
I0
sg274
I1
sg275
F1.0
sg263
g276
sg277
I0
sg278
F14.021351099014282
ssI7
(dp292
g8
F0.8580780029296875
sg268
S'./stimfiles/faces/cropped_183.png'
p293
sg270
F16.0
sg271
g272
sg273
I0
sg274
I1
sg275
F1.0
sg263
g276
sg277
I0
sg278
F16.022125005722046
ssI8
(dp294
g8
F0.7273061275482178
sg268
S'./stimfiles/faces/cropped_669.png'
p295
sg270
F18.0
sg271
g272
sg273
I0
sg274
I1
sg275
F1.0
sg263
g276
sg277
I3
sg278
F18.022891998291016
ssI9
(dp296
g8
F0.9392480850219727
sg268
S'./stimfiles/faces/cropped_669.png'
p297
sg270
F20.0
sg271
g272
sg273
I0
sg274
I1
sg275
F1.0
sg263
g287
sg277
I1
sg278
F20.023797035217285
ssI10
(dp298
g8
F0.9844720363616943
sg268
S'./stimfiles/faces/cropped_96a.png'
p299
sg270
F24.0
sg271
g272
sg273
I1
sg274
I2
sg275
F1.0
sg263
g276
sg277
I0
sg278
F24.00870108604431
ssI11
(dp300
g8
F0.7938320636749268
sg268
S'./stimfiles/faces/cropped_fiona1.png'
p301
sg270
F26.0
sg271
g272
sg273
I1
sg274
I2
sg275
F1.0
sg263
g276
sg277
I0
sg278
F26.009499073028564
ssI12
(dp302
g8
F0.692896842956543
sg268
S'./stimfiles/faces/cropped_462.png'
p303
sg270
F28.0
sg271
g272
sg273
I1
sg274
I2
sg275
F1.0
sg263
g276
sg277
I0
sg278
F28.0104022026062
ssI13
(dp304
g8
F0.7001190185546875
sg268
S'./stimfiles/faces/cropped_96a.png'
p305
sg270
F30.0
sg271
g272
sg273
I1
sg274
I2
sg275
F1.0
sg263
g287
sg277
I3
sg278
F30.011211156845093
ssI14
(dp306
g8
F0.8913688659667969
sg268
S'./stimfiles/faces/cropped_fiona1.png'
p307
sg270
F32.0
sg271
g272
sg273
I1
sg274
I2
sg275
F1.0
sg263
g276
sg277
I3
sg278
F32.012054204940796
ssI15
(dp308
g8
F0.9168059825897217
sg268
S'./stimfiles/faces/cropped_00161015.png'
p309
sg270
F34.0
sg271
g272
sg273
I1
sg274
I2
sg275
F1.0
sg263
g276
sg277
I0
sg278
F34.01284623146057
ssI16
(dp310
g8
F0.6049478054046631
sg268
S'./stimfiles/faces/cropped_fiona1.png'
p311
sg270
F36.0
sg271
g272
sg273
I1
sg274
I2
sg275
F1.0
sg263
g287
sg277
I2
sg278
F36.01362919807434
ssI17
(dp312
g268
S'./stimfiles/faces/cropped_00161015.png'
p313
sg270
F38.0
sg271
g272
sg273
I1
sg274
I2
sg275
F1.0
sg277
I2
sg278
F38.01443314552307
ssI18
(dp314
g8
F0.6182999610900879
sg268
S'./stimfiles/faces/cropped_267.png'
p315
sg270
F40.0
sg271
g272
sg273
I1
sg274
I2
sg275
F1.0
sg263
g276
sg277
I0
sg278
F40.01531219482422
ssI19
(dp316
g8
F0.9014990329742432
sg268
S'./stimfiles/faces/cropped_00161015.png'
p317
sg270
F42.0
sg271
g272
sg273
I1
sg274
I2
sg275
F1.0
sg263
g287
sg277
I2
sg278
F42.016154050827026
ssI20
(dp318
g8
F0.6010279655456543
sg268
S'./stimfiles/scenes/182.jpg'
p319
sg270
F46.0
sg271
S'scenes'
p320
sg273
I2
sg274
I1
sg275
F1.0
sg263
g276
sg277
I0
sg278
F46.01774311065674
ssI21
(dp321
g8
F0.6152899265289307
sg268
S'./stimfiles/scenes/3102.jpg'
p322
sg270
F48.0
sg271
g320
sg273
I2
sg274
I1
sg275
F1.0
sg263
g276
sg277
I0
sg278
F48.018569231033325
ssI22
(dp323
g8
F0.8915901184082031
sg268
S'./stimfiles/scenes/3102.jpg'
p324
sg270
F50.0
sg271
g320
sg273
I2
sg274
I1
sg275
F1.0
sg263
g287
sg277
I1
sg278
F50.01934003829956
ssI23
(dp325
g8
F0.6809430122375488
sg268
S'./stimfiles/scenes/3102.jpg'
p326
sg270
F52.0
sg271
g320
sg273
I2
sg274
I1
sg275
F1.0
sg263
g287
sg277
I1
sg278
F52.02017116546631
ssI24
(dp327
g8
F0.5499229431152344
sg268
S'./stimfiles/scenes/1029.jpg'
p328
sg270
F54.0
sg271
g320
sg273
I2
sg274
I1
sg275
F1.0
sg263
g276
sg277
I0
sg278
F54.02106022834778
ssI25
(dp329
g8
F0.9109070301055908
sg268
S'./stimfiles/scenes/3102.jpg'
p330
sg270
F56.0
sg271
g320
sg273
I2
sg274
I1
sg275
F1.0
sg263
g287
sg277
I2
sg278
F56.00523805618286
ssI26
(dp331
g8
F0.6041879653930664
sg268
S'./stimfiles/scenes/444.jpg'
p332
sg270
F58.0
sg271
g320
sg273
I2
sg274
I1
sg275
F1.0
sg263
g276
sg277
I0
sg278
F58.00597906112671
ssI27
(dp333
g8
F0.6213729381561279
sg268
S'./stimfiles/scenes/1840.jpg'
p334
sg270
F60.0
sg271
g320
sg273
I2
sg274
I1
sg275
F1.0
sg263
g276
sg277
I0
sg278
F60.00680422782898
ssI28
(dp335
g8
F0.6846070289611816
sg268
S'./stimfiles/scenes/1901.jpg'
p336
sg270
F62.0
sg271
g320
sg273
I2
sg274
I1
sg275
F1.0
sg263
g276
sg277
I0
sg278
F62.007609128952026
ssI29
(dp337
g8
F0.8169360160827637
sg268
S'./stimfiles/scenes/1901.jpg'
p338
sg270
F64.0
sg271
g320
sg273
I2
sg274
I1
sg275
F1.0
sg263
g287
sg277
I1
sg278
F64.00840520858765
ssI30
(dp339
g8
F0.7627379894256592
sg268
S'./stimfiles/chinese_characters/29318.jpg'
p340
sg270
F68.0
sg271
S'chinese_characters'
p341
sg273
I3
sg274
I2
sg275
F1.0
sg263
g276
sg277
I0
sg278
F68.02673006057739
ssI31
(dp342
g8
F0.7745819091796875
sg268
S'./stimfiles/chinese_characters/29318.jpg'
p343
sg270
F70.0
sg271
g341
sg273
I3
sg274
I2
sg275
F1.0
sg263
g276
sg277
I1
sg278
F70.01089310646057
ssI32
(dp344
g8
F0.7088351249694824
sg268
S'./stimfiles/chinese_characters/26082.jpg'
p345
sg270
F72.0
sg271
g341
sg273
I3
sg274
I2
sg275
F1.0
sg263
g287
sg277
I0
sg278
F72.01172304153442
ssI33
(dp346
g8
F0.674015998840332
sg268
S'./stimfiles/chinese_characters/24682.jpg'
p347
sg270
F74.0
sg271
g341
sg273
I3
sg274
I2
sg275
F1.0
sg263
g276
sg277
I0
sg278
F74.01258516311646
ssI34
(dp348
g8
F0.7902798652648926
sg268
S'./stimfiles/chinese_characters/33308.jpg'
p349
sg270
F76.0
sg271
g341
sg273
I3
sg274
I2
sg275
F1.0
sg263
g276
sg277
I0
sg278
F76.01338315010071
ssI35
(dp350
g8
F0.9475879669189453
sg268
S'./stimfiles/chinese_characters/35363.jpg'
p351
sg270
F78.0
sg271
g341
sg273
I3
sg274
I2
sg275
F1.0
sg263
g276
sg277
I0
sg278
F78.01419115066528
ssI36
(dp352
g8
F0.8218269348144531
sg268
S'./stimfiles/chinese_characters/33308.jpg'
p353
sg270
F80.0
sg271
g341
sg273
I3
sg274
I2
sg275
F1.0
sg263
g287
sg277
I2
sg278
F80.01501512527466
ssI37
(dp354
g8
F0.9321448802947998
sg268
S'./stimfiles/chinese_characters/33308.jpg'
p355
sg270
F82.0
sg271
g341
sg273
I3
sg274
I2
sg275
F1.0
sg263
g276
sg277
I1
sg278
F82.01579713821411
ssI38
(dp356
g8
F0.6353318691253662
sg268
S'./stimfiles/chinese_characters/33308.jpg'
p357
sg270
F84.0
sg271
g341
sg273
I3
sg274
I2
sg275
F1.0
sg263
g287
sg277
I1
sg278
F84.01663422584534
ssI39
(dp358
g8
F0.950592041015625
sg268
S'./stimfiles/chinese_characters/33308.jpg'
p359
sg270
F86.0
sg271
g341
sg273
I3
sg274
I2
sg275
F1.0
sg263
g287
sg277
I3
sg278
F86.01751899719238
ssI40
(dp360
g8
F0.7178511619567871
sg268
S'./stimfiles/scenes/330.jpg'
p361
sg270
F90.0
sg271
g320
sg273
I4
sg274
I2
sg275
F1.0
sg263
g276
sg277
I0
sg278
F90.01917600631714
ssI41
(dp362
g8
F0.8270690441131592
sg268
S'./stimfiles/scenes/1221.jpg'
p363
sg270
F92.0
sg271
g320
sg273
I4
sg274
I2
sg275
F1.0
sg263
g276
sg277
I0
sg278
F92.01996517181396
ssI42
(dp364
g8
F0.8283841609954834
sg268
S'./stimfiles/scenes/714.jpg'
p365
sg270
F94.0
sg271
g320
sg273
I4
sg274
I2
sg275
F1.0
sg263
g276
sg277
I0
sg278
F94.02076005935669
ssI43
(dp366
g8
F0.8912150859832764
sg268
S'./stimfiles/scenes/899.jpg'
p367
sg270
F96.0
sg271
g320
sg273
I4
sg274
I2
sg275
F1.0
sg263
g276
sg277
I0
sg278
F96.00499701499939
ssI44
(dp368
g268
S'./stimfiles/scenes/714.jpg'
p369
sg270
F98.0
sg271
g320
sg273
I4
sg274
I2
sg275
F1.0
sg277
I2
sg278
F98.00575804710388
ssI45
(dp370
g8
F0.6317269802093506
sg268
S'./stimfiles/scenes/504.jpg'
p371
sg270
F100.0
sg271
g320
sg273
I4
sg274
I2
sg275
F1.0
sg263
g276
sg277
I0
sg278
F100.00659322738647
ssI46
(dp372
g8
F0.9279088973999023
sg268
S'./stimfiles/scenes/1004.jpg'
p373
sg270
F102.0
sg271
g320
sg273
I4
sg274
I2
sg275
F1.0
sg263
g276
sg277
I0
sg278
F102.00747013092041
ssI47
(dp374
g8
F0.7492120265960693
sg268
S'./stimfiles/scenes/511.jpg'
p375
sg270
F104.0
sg271
g320
sg273
I4
sg274
I2
sg275
F1.0
sg263
g276
sg277
I0
sg278
F104.00824117660522
ssI48
(dp376
g8
F0.6055428981781006
sg268
S'./stimfiles/scenes/1004.jpg'
p377
sg270
F106.0
sg271
g320
sg273
I4
sg274
I2
sg275
F1.0
sg263
g287
sg277
I2
sg278
F106.00896716117859
ssI49
(dp378
g8
F0.7156708240509033
sg268
S'./stimfiles/scenes/1004.jpg'
p379
sg270
F108.0
sg271
g320
sg273
I4
sg274
I2
sg275
F1.0
sg263
g276
sg277
I1
sg278
F108.0098671913147
ssI50
(dp380
g8
F0.5085179805755615
sg268
S'./stimfiles/chinese_characters/20717.jpg'
p381
sg270
F112.0
sg271
g341
sg273
I5
sg274
I1
sg275
F1.0
sg263
g276
sg277
I0
sg278
F112.028156042099
ssI51
(dp382
g8
F0.7924737930297852
sg268
S'./stimfiles/chinese_characters/20717.jpg'
p383
sg270
F114.0
sg271
g341
sg273
I5
sg274
I1
sg275
F1.0
sg263
g287
sg277
I1
sg278
F114.01234722137451
ssI52
(dp384
g8
F0.5265638828277588
sg268
S'./stimfiles/chinese_characters/26611.jpg'
p385
sg270
F116.0
sg271
g341
sg273
I5
sg274
I1
sg275
F1.0
sg263
g276
sg277
I0
sg278
F116.01316022872925
ssI53
(dp386
g8
F0.619866132736206
sg268
S'./stimfiles/chinese_characters/20717.jpg'
p387
sg270
F118.0
sg271
g341
sg273
I5
sg274
I1
sg275
F1.0
sg263
g276
sg277
I3
sg278
F118.01396203041077
ssI54
(dp388
g8
F0.6621208190917969
sg268
S'./stimfiles/chinese_characters/20723.jpg'
p389
sg270
F120.0
sg271
g341
sg273
I5
sg274
I1
sg275
F1.0
sg263
g276
sg277
I0
sg278
F120.01477718353271
ssI55
(dp390
g8
F0.5714161396026611
sg268
S'./stimfiles/chinese_characters/26611.jpg'
p391
sg270
F122.0
sg271
g341
sg273
I5
sg274
I1
sg275
F1.0
sg263
g276
sg277
I3
sg278
F122.01553606987
ssI56
(dp392
g8
F0.9156098365783691
sg268
S'./stimfiles/chinese_characters/20723.jpg'
p393
sg270
F124.0
sg271
g341
sg273
I5
sg274
I1
sg275
F1.0
sg263
g276
sg277
I2
sg278
F124.01641321182251
ssI57
(dp394
g8
F0.6367878913879395
sg268
S'./stimfiles/chinese_characters/26238.jpg'
p395
sg270
F126.0
sg271
g341
sg273
I5
sg274
I1
sg275
F1.0
sg263
g276
sg277
I0
sg278
F126.01725721359253
ssI58
(dp396
g8
F0.6450560092926025
sg268
S'./stimfiles/chinese_characters/26564.jpg'
p397
sg270
F128.0
sg271
g341
sg273
I5
sg274
I1
sg275
F1.0
sg263
g276
sg277
I0
sg278
F128.0180640220642
ssI59
(dp398
g8
F0.6813170909881592
sg268
S'./stimfiles/chinese_characters/25153.jpg'
p399
sg270
F130.0
sg271
g341
sg273
I5
sg274
I1
sg275
F1.0
sg263
g276
sg277
I0
sg278
F130.01887202262878
ssI60
(dp400
g8
F0.5521340370178223
sg268
S'./stimfiles/faces/cropped_m-094-01.png'
p401
sg270
F154.0
sg271
g272
sg273
I6
sg274
I1
sg275
F1.0
sg263
g276
sg277
I0
sg278
F154.0287220478058
ssI61
(dp402
g8
F0.6160929203033447
sg268
S'./stimfiles/faces/cropped_454.png'
p403
sg270
F156.0
sg271
g272
sg273
I6
sg274
I1
sg275
F1.0
sg263
g276
sg277
I0
sg278
F156.01288318634033
ssI62
(dp404
g8
F0.7152869701385498
sg268
S'./stimfiles/faces/cropped_m4001.png'
p405
sg270
F158.0
sg271
g272
sg273
I6
sg274
I1
sg275
F1.0
sg263
g276
sg277
I0
sg278
F158.01370310783386
ssI63
(dp406
g8
F0.7303688526153564
sg268
S'./stimfiles/faces/cropped_m4001.png'
p407
sg270
F160.0
sg271
g272
sg273
I6
sg274
I1
sg275
F1.0
sg263
g287
sg277
I1
sg278
F160.0145661830902
ssI64
(dp408
g8
F0.511707067489624
sg268
S'./stimfiles/faces/cropped_m-067-01.png'
p409
sg270
F162.0
sg271
g272
sg273
I6
sg274
I1
sg275
F1.0
sg263
g276
sg277
I0
sg278
F162.01535415649414
ssI65
(dp410
g8
F0.6529688835144043
sg268
S'./stimfiles/faces/cropped_m4001.png'
p411
sg270
F164.0
sg271
g272
sg273
I6
sg274
I1
sg275
F1.0
sg263
g276
sg277
I2
sg278
F164.01615619659424
ssI66
(dp412
g8
F0.5812931060791016
sg268
S'./stimfiles/faces/cropped_61.png'
p413
sg270
F166.0
sg271
g272
sg273
I6
sg274
I1
sg275
F1.0
sg263
g276
sg277
I0
sg278
F166.01695108413696
ssI67
(dp414
g8
F0.5534920692443848
sg268
S'./stimfiles/faces/cropped_61.png'
p415
sg270
F168.0
sg271
g272
sg273
I6
sg274
I1
sg275
F1.0
sg263
g287
sg277
I1
sg278
F168.01774501800537
ssI68
(dp416
g8
F0.6187219619750977
sg268
S'./stimfiles/faces/cropped_498.png'
p417
sg270
F170.0
sg271
g272
sg273
I6
sg274
I1
sg275
F1.0
sg263
g276
sg277
I0
sg278
F170.01856803894043
ssI69
(dp418
g8
F0.6980528831481934
sg268
S'./stimfiles/faces/cropped_146.png'
p419
sg270
F172.0
sg271
g272
sg273
I6
sg274
I1
sg275
F1.0
sg263
g276
sg277
I0
sg278
F172.01941013336182
ssI70
(dp420
g8
F0.49436116218566895
sg268
S'./stimfiles/faces/cropped_m14v1e1.png'
p421
sg270
F176.0
sg271
g272
sg273
I7
sg274
I2
sg275
F1.0
sg263
g276
sg277
I0
sg278
F176.02112007141113
ssI71
(dp422
g8
F0.661592960357666
sg268
S'./stimfiles/faces/cropped_976.png'
p423
sg270
F178.0
sg271
g272
sg273
I7
sg274
I2
sg275
F1.0
sg263
g276
sg277
I0
sg278
F178.02186918258667
ssI72
(dp424
g8
F0.7319447994232178
sg268
S'./stimfiles/faces/cropped_580.png'
p425
sg270
F180.0
sg271
g272
sg273
I7
sg274
I2
sg275
F1.0
sg263
g276
sg277
I0
sg278
F180.0226662158966
ssI73
(dp426
g8
F0.8761329650878906
sg268
S'./stimfiles/faces/cropped_580.png'
p427
sg270
F182.0
sg271
g272
sg273
I7
sg274
I2
sg275
F1.0
sg263
g276
sg277
I1
sg278
F182.02350211143494
ssI74
(dp428
g8
F0.8303658962249756
sg268
S'./stimfiles/faces/cropped_580.png'
p429
sg270
F184.0
sg271
g272
sg273
I7
sg274
I2
sg275
F1.0
sg263
g287
sg277
I1
sg278
F184.0243821144104
ssI75
(dp430
g8
F0.6816539764404297
sg268
S'./stimfiles/faces/cropped_563.png'
p431
sg270
F186.0
sg271
g272
sg273
I7
sg274
I2
sg275
F1.0
sg263
g276
sg277
I0
sg278
F186.02514004707336
ssI76
(dp432
g8
F0.6438188552856445
sg268
S'./stimfiles/faces/cropped_310.png'
p433
sg270
F188.0
sg271
g272
sg273
I7
sg274
I2
sg275
F1.0
sg263
g276
sg277
I0
sg278
F188.02602314949036
ssI77
(dp434
g8
F0.8806061744689941
sg268
S'./stimfiles/faces/cropped_m1-004-01.png'
p435
sg270
F190.0
sg271
g272
sg273
I7
sg274
I2
sg275
F1.0
sg263
g276
sg277
I0
sg278
F190.01020002365112
ssI78
(dp436
g8
F0.7709648609161377
sg268
S'./stimfiles/faces/cropped_310.png'
p437
sg270
F192.0
sg271
g272
sg273
I7
sg274
I2
sg275
F1.0
sg263
g287
sg277
I2
sg278
F192.01097321510315
ssI79
(dp438
g8
F0.6013619899749756
sg268
S'./stimfiles/faces/cropped_54a.png'
p439
sg270
F194.0
sg271
g272
sg273
I7
sg274
I2
sg275
F1.0
sg263
g276
sg277
I0
sg278
F194.01176118850708
ssI80
(dp440
g8
F0.5326969623565674
sg268
S'./stimfiles/scenes/76.jpg'
p441
sg270
F198.0
sg271
g320
sg273
I8
sg274
I1
sg275
F1.0
sg263
g276
sg277
I0
sg278
F198.01337909698486
ssI81
(dp442
g8
F0.5720720291137695
sg268
S'./stimfiles/scenes/1628.jpg'
p443
sg270
F200.0
sg271
g320
sg273
I8
sg274
I1
sg275
F1.0
sg263
g276
sg277
I0
sg278
F200.0142011642456
ssI82
(dp444
g8
F0.6182870864868164
sg268
S'./stimfiles/scenes/1770.jpg'
p445
sg270
F202.0
sg271
g320
sg273
I8
sg274
I1
sg275
F1.0
sg263
g276
sg277
I0
sg278
F202.0150170326233
ssI83
(dp446
g8
F0.639380931854248
sg268
S'./stimfiles/scenes/76.jpg'
p447
sg270
F204.0
sg271
g320
sg273
I8
sg274
I1
sg275
F1.0
sg263
g276
sg277
I3
sg278
F204.01589918136597
ssI84
(dp448
g8
F0.6266090869903564
sg268
S'./stimfiles/scenes/76.jpg'
p449
sg270
F206.0
sg271
g320
sg273
I8
sg274
I1
sg275
F1.0
sg263
g287
sg277
I1
sg278
F206.01672410964966
ssI85
(dp450
g8
F0.5768210887908936
sg268
S'./stimfiles/scenes/1719.jpg'
p451
sg270
F208.0
sg271
g320
sg273
I8
sg274
I1
sg275
F1.0
sg263
g276
sg277
I0
sg278
F208.01754713058472
ssI86
(dp452
g8
F0.6591441631317139
sg268
S'./stimfiles/scenes/840.jpg'
p453
sg270
F210.0
sg271
g320
sg273
I8
sg274
I1
sg275
F1.0
sg263
g276
sg277
I0
sg278
F210.01830506324768
ssI87
(dp454
g8
F0.5573019981384277
sg268
S'./stimfiles/scenes/1362.jpg'
p455
sg270
F212.0
sg271
g320
sg273
I8
sg274
I1
sg275
F1.0
sg263
g276
sg277
I0
sg278
F212.01917505264282
ssI88
(dp456
g8
F0.6245870590209961
sg268
S'./stimfiles/scenes/1743.jpg'
p457
sg270
F214.0
sg271
g320
sg273
I8
sg274
I1
sg275
F1.0
sg263
g276
sg277
I0
sg278
F214.01993608474731
ssI89
(dp458
g8
F0.4797689914703369
sg268
S'./stimfiles/scenes/1743.jpg'
p459
sg270
F216.0
sg271
g320
sg273
I8
sg274
I1
sg275
F1.0
sg263
g287
sg277
I1
sg278
F216.02085709571838
ssI90
(dp460
g8
F0.5241379737854004
sg268
S'./stimfiles/chinese_characters/26293.jpg'
p461
sg270
F220.0
sg271
g341
sg273
I9
sg274
I2
sg275
F1.0
sg263
g276
sg277
I0
sg278
F220.022479057312
ssI91
(dp462
g8
F0.6606628894805908
sg268
S'./stimfiles/chinese_characters/24873.jpg'
p463
sg270
F222.0
sg271
g341
sg273
I9
sg274
I2
sg275
F1.0
sg263
g276
sg277
I0
sg278
F222.02323818206787
ssI92
(dp464
g8
F0.8427050113677979
sg268
S'./stimfiles/chinese_characters/37265.jpg'
p465
sg270
F224.0
sg271
g341
sg273
I9
sg274
I2
sg275
F1.0
sg263
g276
sg277
I0
sg278
F224.0241470336914
ssI93
(dp466
g8
F0.8269350528717041
sg268
S'./stimfiles/chinese_characters/25215.jpg'
p467
sg270
F226.0
sg271
g341
sg273
I9
sg274
I2
sg275
F1.0
sg263
g276
sg277
I0
sg278
F226.0249571800232
ssI94
(dp468
g268
S'./stimfiles/chinese_characters/24873.jpg'
p469
sg270
F228.0
sg271
g341
sg273
I9
sg274
I2
sg275
F1.0
sg277
I3
sg278
F228.0257761478424
ssI95
(dp470
g8
F0.8862960338592529
sg268
S'./stimfiles/chinese_characters/25030.jpg'
p471
sg270
F230.0
sg271
g341
sg273
I9
sg274
I2
sg275
F1.0
sg263
g287
sg277
I0
sg278
F230.02655506134033
ssI96
(dp472
g8
F0.9504539966583252
sg268
S'./stimfiles/chinese_characters/25611.jpg'
p473
sg270
F232.0
sg271
g341
sg273
I9
sg274
I2
sg275
F1.0
sg263
g276
sg277
I0
sg278
F232.01073908805847
ssI97
(dp474
g268
S'./stimfiles/chinese_characters/35513.jpg'
p475
sg270
F234.0
sg271
g341
sg273
I9
sg274
I2
sg275
F1.0
sg277
I0
sg278
F234.01155519485474
ssI98
(dp476
g8
F0.9287989139556885
sg268
S'./stimfiles/chinese_characters/35559.jpg'
p477
sg270
F236.0
sg271
g341
sg273
I9
sg274
I2
sg275
F1.0
sg263
g276
sg277
I0
sg278
F236.01235008239746
ssI99
(dp478
g268
S'./stimfiles/chinese_characters/25611.jpg'
p479
sg270
F238.0
sg271
g341
sg273
I9
sg274
I2
sg275
F1.0
sg277
I3
sg278
F238.0131871700287
ssI100
(dp480
g8
F0.6395220756530762
sg268
S'./stimfiles/scenes/151.jpg'
p481
sg270
F242.0
sg271
g320
sg273
I10
sg274
I2
sg275
F1.0
sg263
g276
sg277
I0
sg278
F242.01481914520264
ssI101
(dp482
g8
F0.734605073928833
sg268
S'./stimfiles/scenes/151.jpg'
p483
sg270
F244.0
sg271
g320
sg273
I10
sg274
I2
sg275
F1.0
sg263
g276
sg277
I1
sg278
F244.01568913459778
ssI102
(dp484
g8
F0.7709240913391113
sg268
S'./stimfiles/scenes/635.jpg'
p485
sg270
F246.0
sg271
g320
sg273
I10
sg274
I2
sg275
F1.0
sg263
g276
sg277
I0
sg278
F246.01650309562683
ssI103
(dp486
g8
F0.6592748165130615
sg268
S'./stimfiles/scenes/151.jpg'
p487
sg270
F248.0
sg271
g320
sg273
I10
sg274
I2
sg275
F1.0
sg263
g287
sg277
I2
sg278
F248.01722621917725
ssI104
(dp488
g8
F0.6684119701385498
sg268
S'./stimfiles/scenes/635.jpg'
p489
sg270
F250.0
sg271
g320
sg273
I10
sg274
I2
sg275
F1.0
sg263
g287
sg277
I2
sg278
F250.01813507080078
ssI105
(dp490
g8
F0.5857229232788086
sg268
S'./stimfiles/scenes/814.jpg'
p491
sg270
F252.0
sg271
g320
sg273
I10
sg274
I2
sg275
F1.0
sg263
g276
sg277
I0
sg278
F252.01889514923096
ssI106
(dp492
g8
F0.7178878784179688
sg268
S'./stimfiles/scenes/3001.jpg'
p493
sg270
F254.0
sg271
g320
sg273
I10
sg274
I2
sg275
F1.0
sg263
g276
sg277
I0
sg278
F254.01978015899658
ssI107
(dp494
g8
F0.6951990127563477
sg268
S'./stimfiles/scenes/78.jpg'
p495
sg270
F256.0
sg271
g320
sg273
I10
sg274
I2
sg275
F1.0
sg263
g276
sg277
I0
sg278
F256.02051305770874
ssI108
(dp496
g8
F0.787355899810791
sg268
S'./stimfiles/scenes/3001.jpg'
p497
sg270
F258.0
sg271
g320
sg273
I10
sg274
I2
sg275
F1.0
sg263
g287
sg277
I2
sg278
F258.02142214775085
ssI109
(dp498
g8
F0.7576730251312256
sg268
S'./stimfiles/scenes/3001.jpg'
p499
sg270
F260.0
sg271
g320
sg273
I10
sg274
I2
sg275
F1.0
sg263
g276
sg277
I1
sg278
F260.02217507362366
ssI110
(dp500
g8
F0.5780298709869385
sg268
S'./stimfiles/chinese_characters/33279.jpg'
p501
sg270
F264.0
sg271
g341
sg273
I11
sg274
I1
sg275
F1.0
sg263
g276
sg277
I0
sg278
F264.02383613586426
ssI111
(dp502
g8
F0.5414519309997559
sg268
S'./stimfiles/chinese_characters/29277.jpg'
p503
sg270
F266.0
sg271
g341
sg273
I11
sg274
I1
sg275
F1.0
sg263
g276
sg277
I0
sg278
F266.0246651172638
ssI112
(dp504
g8
F0.5775930881500244
sg268
S'./stimfiles/chinese_characters/25481.jpg'
p505
sg270
F268.0
sg271
g341
sg273
I11
sg274
I1
sg275
F1.0
sg263
g276
sg277
I0
sg278
F268.0254900455475
ssI113
(dp506
g8
F0.6748149394989014
sg268
S'./stimfiles/chinese_characters/25481.jpg'
p507
sg270
F270.0
sg271
g341
sg273
I11
sg274
I1
sg275
F1.0
sg263
g287
sg277
I1
sg278
F270.02632117271423
ssI114
(dp508
g8
F0.5137820243835449
sg268
S'./stimfiles/chinese_characters/29811.jpg'
p509
sg270
F272.0
sg271
g341
sg273
I11
sg274
I1
sg275
F1.0
sg263
g276
sg277
I0
sg278
F272.0104742050171
ssI115
(dp510
g8
F0.6499471664428711
sg268
S'./stimfiles/chinese_characters/29811.jpg'
p511
sg270
F274.0
sg271
g341
sg273
I11
sg274
I1
sg275
F1.0
sg263
g287
sg277
I1
sg278
F274.0113060474396
ssI116
(dp512
g8
F0.5251569747924805
sg268
S'./stimfiles/chinese_characters/25481.jpg'
p513
sg270
F276.0
sg271
g341
sg273
I11
sg274
I1
sg275
F1.0
sg263
g276
sg277
I3
sg278
F276.0121490955353
ssI117
(dp514
g8
F0.5764808654785156
sg268
S'./stimfiles/chinese_characters/29811.jpg'
p515
sg270
F278.0
sg271
g341
sg273
I11
sg274
I1
sg275
F1.0
sg263
g276
sg277
I2
sg278
F278.01288414001465
ssI118
(dp516
g8
F0.6267540454864502
sg268
S'./stimfiles/chinese_characters/29811.jpg'
p517
sg270
F280.0
sg271
g341
sg273
I11
sg274
I1
sg275
F1.0
sg263
g287
sg277
I1
sg278
F280.01370000839233
ssI119
(dp518
g8
F0.7039380073547363
sg268
S'./stimfiles/chinese_characters/35416.jpg'
p519
sg270
F282.0
sg271
g341
sg273
I11
sg274
I1
sg275
F1.0
sg263
g276
sg277
I0
sg278
F282.0145471096039
ssI120
(dp520
g8
F0.45470285415649414
sg268
S'./stimfiles/faces/cropped_f-020-01.png'
p521
sg270
F306.0
sg271
g272
sg273
I12
sg274
I1
sg275
F1.0
sg263
g276
sg277
I0
sg278
F306.0244221687317
ssI121
(dp522
g8
F0.6890289783477783
sg268
S'./stimfiles/faces/cropped_f-020-01.png'
p523
sg270
F308.0
sg271
g272
sg273
I12
sg274
I1
sg275
F1.0
sg263
g287
sg277
I1
sg278
F308.0251610279083
ssI122
(dp524
g8
F0.7732410430908203
sg268
S'./stimfiles/faces/cropped_f-020-01.png'
p525
sg270
F310.0
sg271
g272
sg273
I12
sg274
I1
sg275
F1.0
sg263
g287
sg277
I1
sg278
F310.0260100364685
ssI123
(dp526
g8
F0.5581130981445312
sg268
S'./stimfiles/faces/cropped_jim1.png'
p527
sg270
F312.0
sg271
g272
sg273
I12
sg274
I1
sg275
F1.0
sg263
g276
sg277
I0
sg278
F312.01019501686096
ssI124
(dp528
g8
F0.6403708457946777
sg268
S'./stimfiles/faces/cropped_397.png'
p529
sg270
F314.0
sg271
g272
sg273
I12
sg274
I1
sg275
F1.0
sg263
g276
sg277
I0
sg278
F314.01100420951843
ssI125
(dp530
g8
F0.6366839408874512
sg268
S'./stimfiles/faces/cropped_jim1.png'
p531
sg270
F316.0
sg271
g272
sg273
I12
sg274
I1
sg275
F1.0
sg263
g276
sg277
I2
sg278
F316.0118272304535
ssI126
(dp532
g8
F0.6448330879211426
sg268
S'./stimfiles/faces/cropped_598.png'
p533
sg270
F318.0
sg271
g272
sg273
I12
sg274
I1
sg275
F1.0
sg263
g276
sg277
I0
sg278
F318.0126600265503
ssI127
(dp534
g8
F0.6520950794219971
sg268
S'./stimfiles/faces/cropped_397.png'
p535
sg270
F320.0
sg271
g272
sg273
I12
sg274
I1
sg275
F1.0
sg263
g276
sg277
I3
sg278
F320.0134720802307
ssI128
(dp536
g8
F0.779404878616333
sg268
S'./stimfiles/faces/cropped_m4021.png'
p537
sg270
F322.0
sg271
g272
sg273
I12
sg274
I1
sg275
F1.0
sg263
g276
sg277
I0
sg278
F322.01431918144226
ssI129
(dp538
g8
F0.7215540409088135
sg268
S'./stimfiles/faces/cropped_johnny_page1.png'
p539
sg270
F324.0
sg271
g272
sg273
I12
sg274
I1
sg275
F1.0
sg263
g276
sg277
I0
sg278
F324.0151460170746
ssI130
(dp540
g8
F0.9059929847717285
sg268
S'./stimfiles/faces/cropped_41MVC-003F.png'
p541
sg270
F328.0
sg271
g272
sg273
I13
sg274
I2
sg275
F1.0
sg263
g276
sg277
I0
sg278
F328.0167100429535
ssI131
(dp542
g8
F0.4771909713745117
sg268
S'./stimfiles/faces/cropped_m4028.png'
p543
sg270
F330.0
sg271
g272
sg273
I13
sg274
I2
sg275
F1.0
sg263
g276
sg277
I0
sg278
F330.01760721206665
ssI132
(dp544
g8
F0.7964730262756348
sg268
S'./stimfiles/faces/cropped_659.png'
p545
sg270
F332.0
sg271
g272
sg273
I13
sg274
I2
sg275
F1.0
sg263
g276
sg277
I0
sg278
F332.01843905448914
ssI133
(dp546
g8
F0.898655891418457
sg268
S'./stimfiles/faces/cropped_302.png'
p547
sg270
F334.0
sg271
g272
sg273
I13
sg274
I2
sg275
F1.0
sg263
g276
sg277
I0
sg278
F334.019198179245
ssI134
(dp548
g8
F0.7039921283721924
sg268
S'./stimfiles/faces/cropped_659.png'
p549
sg270
F336.0
sg271
g272
sg273
I13
sg274
I2
sg275
F1.0
sg263
g287
sg277
I2
sg278
F336.02005410194397
ssI135
(dp550
g8
F0.8220741748809814
sg268
S'./stimfiles/faces/cropped_659.png'
p551
sg270
F338.0
sg271
g272
sg273
I13
sg274
I2
sg275
F1.0
sg263
g276
sg277
I1
sg278
F338.0208990573883
ssI136
(dp552
g8
F0.6974689960479736
sg268
S'./stimfiles/faces/cropped_513.png'
p553
sg270
F340.0
sg271
g272
sg273
I13
sg274
I2
sg275
F1.0
sg263
g276
sg277
I0
sg278
F340.0216372013092
ssI137
(dp554
g8
F0.7256247997283936
sg268
S'./stimfiles/faces/cropped_659.png'
p555
sg270
F342.0
sg271
g272
sg273
I13
sg274
I2
sg275
F1.0
sg263
g287
sg277
I3
sg278
F342.022527217865
ssI138
(dp556
g8
F0.7338500022888184
sg268
S'./stimfiles/faces/cropped_14a.png'
p557
sg270
F344.0
sg271
g272
sg273
I13
sg274
I2
sg275
F1.0
sg263
g276
sg277
I0
sg278
F344.0233371257782
ssI139
(dp558
g268
S'./stimfiles/faces/cropped_659.png'
p559
sg270
F346.0
sg271
g272
sg273
I13
sg274
I2
sg275
F1.0
sg277
I2
sg278
F346.024090051651
ssI140
(dp560
g8
F0.6744029521942139
sg268
S'./stimfiles/scenes/658.jpg'
p561
sg270
F350.0
sg271
g320
sg273
I14
sg274
I1
sg275
F1.0
sg263
g276
sg277
I0
sg278
F350.00905418395996
ssI141
(dp562
g8
F0.5711169242858887
sg268
S'./stimfiles/scenes/591.jpg'
p563
sg270
F352.0
sg271
g320
sg273
I14
sg274
I1
sg275
F1.0
sg263
g276
sg277
I0
sg278
F352.01000022888184
ssI142
(dp564
g8
F0.8578169345855713
sg268
S'./stimfiles/scenes/658.jpg'
p565
sg270
F354.0
sg271
g320
sg273
I14
sg274
I1
sg275
F1.0
sg263
g276
sg277
I2
sg278
F354.0107111930847
ssI143
(dp566
g8
F0.7189469337463379
sg268
S'./stimfiles/scenes/1042.jpg'
p567
sg270
F356.0
sg271
g320
sg273
I14
sg274
I1
sg275
F1.0
sg263
g276
sg277
I0
sg278
F356.0116081237793
ssI144
(dp568
g8
F0.5692200660705566
sg268
S'./stimfiles/scenes/658.jpg'
p569
sg270
F358.0
sg271
g320
sg273
I14
sg274
I1
sg275
F1.0
sg263
g276
sg277
I2
sg278
F358.0123760700226
ssI145
(dp570
g8
F0.5904650688171387
sg268
S'./stimfiles/scenes/584.jpg'
p571
sg270
F360.0
sg271
g320
sg273
I14
sg274
I1
sg275
F1.0
sg263
g276
sg277
I0
sg278
F360.0132350921631
ssI146
(dp572
g8
F0.43270015716552734
sg268
S'./stimfiles/scenes/584.jpg'
p573
sg270
F362.0
sg271
g320
sg273
I14
sg274
I1
sg275
F1.0
sg263
g287
sg277
I1
sg278
F362.0140290260315
ssI147
(dp574
g8
F0.5009040832519531
sg268
S'./stimfiles/scenes/658.jpg'
p575
sg270
F364.0
sg271
g320
sg273
I14
sg274
I1
sg275
F1.0
sg263
g276
sg277
I3
sg278
F364.0148460865021
ssI148
(dp576
g8
F0.6291239261627197
sg268
S'./stimfiles/scenes/1517.jpg'
p577
sg270
F366.0
sg271
g320
sg273
I14
sg274
I1
sg275
F1.0
sg263
g276
sg277
I0
sg278
F366.0157051086426
ssI149
(dp578
g8
F0.6564161777496338
sg268
S'./stimfiles/scenes/584.jpg'
p579
sg270
F368.0
sg271
g320
sg273
I14
sg274
I1
sg275
F1.0
sg263
g276
sg277
I3
sg278
F368.0164580345154
ssI150
(dp580
g8
F0.6109180450439453
sg268
S'./stimfiles/chinese_characters/25504.jpg'
p581
sg270
F372.0
sg271
g341
sg273
I15
sg274
I2
sg275
F1.0
sg263
g276
sg277
I0
sg278
F372.01811814308167
ssI151
(dp582
g8
F0.6541261672973633
sg268
S'./stimfiles/chinese_characters/25295.jpg'
p583
sg270
F374.0
sg271
g341
sg273
I15
sg274
I2
sg275
F1.0
sg263
g276
sg277
I0
sg278
F374.0189230442047
ssI152
(dp584
g8
F0.8653879165649414
sg268
S'./stimfiles/chinese_characters/26165.jpg'
p585
sg270
F376.0
sg271
g341
sg273
I15
sg274
I2
sg275
F1.0
sg263
g276
sg277
I0
sg278
F376.0197501182556
ssI153
(dp586
g8
F0.6025290489196777
sg268
S'./stimfiles/chinese_characters/25295.jpg'
p587
sg270
F378.0
sg271
g341
sg273
I15
sg274
I2
sg275
F1.0
sg263
g287
sg277
I2
sg278
F378.0206620693207
ssI154
(dp588
g8
F0.782785177230835
sg268
S'./stimfiles/chinese_characters/25385.jpg'
p589
sg270
F380.0
sg271
g341
sg273
I15
sg274
I2
sg275
F1.0
sg263
g287
sg277
I0
sg278
F380.0214660167694
ssI155
(dp590
g8
F0.6450760364532471
sg268
S'./stimfiles/chinese_characters/25295.jpg'
p591
sg270
F382.0
sg271
g341
sg273
I15
sg274
I2
sg275
F1.0
sg263
g287
sg277
I2
sg278
F382.022253036499
ssI156
(dp592
g8
F0.5253238677978516
sg268
S'./stimfiles/chinese_characters/25080.jpg'
p593
sg270
F384.0
sg271
g341
sg273
I15
sg274
I2
sg275
F1.0
sg263
g276
sg277
I0
sg278
F384.0230481624603
ssI157
(dp594
g268
S'./stimfiles/chinese_characters/25295.jpg'
p595
sg270
F386.0
sg271
g341
sg273
I15
sg274
I2
sg275
F1.0
sg277
I2
sg278
F386.02389216423035
ssI158
(dp596
g8
F0.8217370510101318
sg268
S'./stimfiles/chinese_characters/25080.jpg'
p597
sg270
F388.0
sg271
g341
sg273
I15
sg274
I2
sg275
F1.0
sg263
g276
sg277
I2
sg278
F388.02473306655884
ssI159
(dp598
g268
S'./stimfiles/chinese_characters/25295.jpg'
p599
sg270
F390.0
sg271
g341
sg273
I15
sg274
I2
sg275
F1.0
sg277
I2
sg278
F390.0255801677704
ssI160
(dp600
g8
F0.6341640949249268
sg268
S'./stimfiles/scenes/1925.jpg'
p601
sg270
F394.0
sg271
g320
sg273
I16
sg274
I2
sg275
F1.0
sg263
g276
sg277
I0
sg278
F394.01044511795044
ssI161
(dp602
g8
F0.6294240951538086
sg268
S'./stimfiles/scenes/110.jpg'
p603
sg270
F396.0
sg271
g320
sg273
I16
sg274
I2
sg275
F1.0
sg263
g276
sg277
I0
sg278
F396.01127409935
ssI162
(dp604
g8
F0.5935940742492676
sg268
S'./stimfiles/scenes/214.jpg'
p605
sg270
F398.0
sg271
g320
sg273
I16
sg274
I2
sg275
F1.0
sg263
g276
sg277
I0
sg278
F398.0121080875397
ssI163
(dp606
g8
F0.6608610153198242
sg268
S'./stimfiles/scenes/656.jpg'
p607
sg270
F400.0
sg271
g320
sg273
I16
sg274
I2
sg275
F1.0
sg263
g276
sg277
I0
sg278
F400.01295709609985
ssI164
(dp608
g8
F0.7610008716583252
sg268
S'./stimfiles/scenes/46.jpg'
p609
sg270
F402.0
sg271
g320
sg273
I16
sg274
I2
sg275
F1.0
sg263
g276
sg277
I0
sg278
F402.013845205307
ssI165
(dp610
g268
S'./stimfiles/scenes/214.jpg'
p611
sg270
F404.0
sg271
g320
sg273
I16
sg274
I2
sg275
F1.0
sg277
I3
sg278
F404.0145790576935
ssI166
(dp612
g8
F0.6467099189758301
sg268
S'./stimfiles/scenes/656.jpg'
p613
sg270
F406.0
sg271
g320
sg273
I16
sg274
I2
sg275
F1.0
sg263
g276
sg277
I3
sg278
F406.0154871940613
ssI167
(dp614
g8
F0.6978089809417725
sg268
S'./stimfiles/scenes/46.jpg'
p615
sg270
F408.0
sg271
g320
sg273
I16
sg274
I2
sg275
F1.0
sg263
g276
sg277
I3
sg278
F408.01623916625977
ssI168
(dp616
g8
F0.6330311298370361
sg268
S'./stimfiles/scenes/545.jpg'
p617
sg270
F410.0
sg271
g320
sg273
I16
sg274
I2
sg275
F1.0
sg263
g276
sg277
I0
sg278
F410.01708602905273
ssI169
(dp618
g8
F0.8113992214202881
sg268
S'./stimfiles/scenes/46.jpg'
p619
sg270
F412.0
sg271
g320
sg273
I16
sg274
I2
sg275
F1.0
sg263
g276
sg277
I2
sg278
F412.0179100036621
ssI170
(dp620
g8
F0.6786999702453613
sg268
S'./stimfiles/chinese_characters/24914.jpg'
p621
sg270
F416.0
sg271
g341
sg273
I17
sg274
I1
sg275
F1.0
sg263
g276
sg277
I0
sg278
F416.0195851325989
ssI171
(dp622
g8
F0.6049680709838867
sg268
S'./stimfiles/chinese_characters/35584.jpg'
p623
sg270
F418.0
sg271
g341
sg273
I17
sg274
I1
sg275
F1.0
sg263
g276
sg277
I0
sg278
F418.0203640460968
ssI172
(dp624
g8
F0.48613786697387695
sg268
S'./stimfiles/chinese_characters/26606.jpg'
p625
sg270
F420.0
sg271
g341
sg273
I17
sg274
I1
sg275
F1.0
sg263
g276
sg277
I0
sg278
F420.02123522758484
ssI173
(dp626
g8
F0.6404337882995605
sg268
S'./stimfiles/chinese_characters/35584.jpg'
p627
sg270
F422.0
sg271
g341
sg273
I17
sg274
I1
sg275
F1.0
sg263
g287
sg277
I2
sg278
F422.02199721336365
ssI174
(dp628
g8
F0.8046920299530029
sg268
S'./stimfiles/chinese_characters/35584.jpg'
p629
sg270
F424.0
sg271
g341
sg273
I17
sg274
I1
sg275
F1.0
sg263
g276
sg277
I1
sg278
F424.02279806137085
ssI175
(dp630
g268
S'./stimfiles/chinese_characters/35531.jpg'
p631
sg270
F426.0
sg271
g341
sg273
I17
sg274
I1
sg275
F1.0
sg277
I0
sg278
F426.0236051082611
ssI176
(dp632
g8
F0.6591379642486572
sg268
S'./stimfiles/chinese_characters/32048.jpg'
p633
sg270
F428.0
sg271
g341
sg273
I17
sg274
I1
sg275
F1.0
sg263
g276
sg277
I0
sg278
F428.0244550704956
ssI177
(dp634
g8
F0.6443560123443604
sg268
S'./stimfiles/chinese_characters/32048.jpg'
p635
sg270
F430.0
sg271
g341
sg273
I17
sg274
I1
sg275
F1.0
sg263
g276
sg277
I1
sg278
F430.02532410621643
ssI178
(dp636
g8
F0.6505098342895508
sg268
S'./stimfiles/chinese_characters/26339.jpg'
p637
sg270
F432.0
sg271
g341
sg273
I17
sg274
I1
sg275
F1.0
sg263
g276
sg277
I0
sg278
F432.02615118026733
ssI179
(dp638
g8
F0.7029500007629395
sg268
S'./stimfiles/chinese_characters/25765.jpg'
p639
sg270
F434.0
sg271
g341
sg273
I17
sg274
I1
sg275
F1.0
sg263
g276
sg277
I0
sg278
F434.02689909935
sssS'stim_log'
p640
(dp641
sS'nstims'
p642
I5
sS'inter_stim_int'
p643
F1.0
sS'SS'
p644
(dp645
sS'inst_time'
p646
F1.0
sS'broke_on_trial'
p647
(dp648
sS'events'
p649
(lp650
(lp651
F0.0
aI0
aI1
aI0
aS'inst'
p652
aa(lp653
F2.0
aI0
aI1
aI0
ag269
aa(lp654
F4.0
aI0
aI1
aI0
ag280
aa(lp655
F6.0
aI0
aI1
aI2
ag282
aa(lp656
F8.0
aI0
aI1
aI0
ag284
aa(lp657
F10.0
aI0
aI1
aI1
ag286
aa(lp658
F12.0
aI0
aI1
aI3
ag289
aa(lp659
F14.0
aI0
aI1
aI0
ag291
aa(lp660
F16.0
aI0
aI1
aI0
ag293
aa(lp661
F18.0
aI0
aI1
aI3
ag295
aa(lp662
F20.0
aI0
aI1
aI1
ag297
aa(lp663
F22.0
aI1
aI2
aI0
aS'inst'
p664
aa(lp665
F24.0
aI1
aI2
aI0
ag299
aa(lp666
F26.0
aI1
aI2
aI0
ag301
aa(lp667
F28.0
aI1
aI2
aI0
ag303
aa(lp668
F30.0
aI1
aI2
aI3
ag305
aa(lp669
F32.0
aI1
aI2
aI3
ag307
aa(lp670
F34.0
aI1
aI2
aI0
ag309
aa(lp671
F36.0
aI1
aI2
aI2
ag311
aa(lp672
F38.0
aI1
aI2
aI2
ag313
aa(lp673
F40.0
aI1
aI2
aI0
ag315
aa(lp674
F42.0
aI1
aI2
aI2
ag317
aa(lp675
F44.0
aI2
aI1
aI0
aS'inst'
p676
aa(lp677
F46.0
aI2
aI1
aI0
ag319
aa(lp678
F48.0
aI2
aI1
aI0
ag322
aa(lp679
F50.0
aI2
aI1
aI1
ag324
aa(lp680
F52.0
aI2
aI1
aI1
ag326
aa(lp681
F54.0
aI2
aI1
aI0
ag328
aa(lp682
F56.0
aI2
aI1
aI2
ag330
aa(lp683
F58.0
aI2
aI1
aI0
ag332
aa(lp684
F60.0
aI2
aI1
aI0
ag334
aa(lp685
F62.0
aI2
aI1
aI0
ag336
aa(lp686
F64.0
aI2
aI1
aI1
ag338
aa(lp687
F66.0
aI3
aI2
aI0
aS'inst'
p688
aa(lp689
F68.0
aI3
aI2
aI0
ag340
aa(lp690
F70.0
aI3
aI2
aI1
ag343
aa(lp691
F72.0
aI3
aI2
aI0
ag345
aa(lp692
F74.0
aI3
aI2
aI0
ag347
aa(lp693
F76.0
aI3
aI2
aI0
ag349
aa(lp694
F78.0
aI3
aI2
aI0
ag351
aa(lp695
F80.0
aI3
aI2
aI2
ag353
aa(lp696
F82.0
aI3
aI2
aI1
ag355
aa(lp697
F84.0
aI3
aI2
aI1
ag357
aa(lp698
F86.0
aI3
aI2
aI3
ag359
aa(lp699
F88.0
aI4
aI2
aI0
aS'inst'
p700
aa(lp701
F90.0
aI4
aI2
aI0
ag361
aa(lp702
F92.0
aI4
aI2
aI0
ag363
aa(lp703
F94.0
aI4
aI2
aI0
ag365
aa(lp704
F96.0
aI4
aI2
aI0
ag367
aa(lp705
F98.0
aI4
aI2
aI2
ag369
aa(lp706
F100.0
aI4
aI2
aI0
ag371
aa(lp707
F102.0
aI4
aI2
aI0
ag373
aa(lp708
F104.0
aI4
aI2
aI0
ag375
aa(lp709
F106.0
aI4
aI2
aI2
ag377
aa(lp710
F108.0
aI4
aI2
aI1
ag379
aa(lp711
F110.0
aI5
aI1
aI0
aS'inst'
p712
aa(lp713
F112.0
aI5
aI1
aI0
ag381
aa(lp714
F114.0
aI5
aI1
aI1
ag383
aa(lp715
F116.0
aI5
aI1
aI0
ag385
aa(lp716
F118.0
aI5
aI1
aI3
ag387
aa(lp717
F120.0
aI5
aI1
aI0
ag389
aa(lp718
F122.0
aI5
aI1
aI3
ag391
aa(lp719
F124.0
aI5
aI1
aI2
ag393
aa(lp720
F126.0
aI5
aI1
aI0
ag395
aa(lp721
F128.0
aI5
aI1
aI0
ag397
aa(lp722
F130.0
aI5
aI1
aI0
ag399
aa(lp723
F152.0
aI0
aI1
aI0
aS'inst'
p724
aa(lp725
F154.0
aI6
aI1
aI0
ag401
aa(lp726
F156.0
aI6
aI1
aI0
ag403
aa(lp727
F158.0
aI6
aI1
aI0
ag405
aa(lp728
F160.0
aI6
aI1
aI1
ag407
aa(lp729
F162.0
aI6
aI1
aI0
ag409
aa(lp730
F164.0
aI6
aI1
aI2
ag411
aa(lp731
F166.0
aI6
aI1
aI0
ag413
aa(lp732
F168.0
aI6
aI1
aI1
ag415
aa(lp733
F170.0
aI6
aI1
aI0
ag417
aa(lp734
F172.0
aI6
aI1
aI0
ag419
aa(lp735
F174.0
aI1
aI2
aI0
aS'inst'
p736
aa(lp737
F176.0
aI7
aI2
aI0
ag421
aa(lp738
F178.0
aI7
aI2
aI0
ag423
aa(lp739
F180.0
aI7
aI2
aI0
ag425
aa(lp740
F182.0
aI7
aI2
aI1
ag427
aa(lp741
F184.0
aI7
aI2
aI1
ag429
aa(lp742
F186.0
aI7
aI2
aI0
ag431
aa(lp743
F188.0
aI7
aI2
aI0
ag433
aa(lp744
F190.0
aI7
aI2
aI0
ag435
aa(lp745
F192.0
aI7
aI2
aI2
ag437
aa(lp746
F194.0
aI7
aI2
aI0
ag439
aa(lp747
F196.0
aI2
aI1
aI0
aS'inst'
p748
aa(lp749
F198.0
aI8
aI1
aI0
ag441
aa(lp750
F200.0
aI8
aI1
aI0
ag443
aa(lp751
F202.0
aI8
aI1
aI0
ag445
aa(lp752
F204.0
aI8
aI1
aI3
ag447
aa(lp753
F206.0
aI8
aI1
aI1
ag449
aa(lp754
F208.0
aI8
aI1
aI0
ag451
aa(lp755
F210.0
aI8
aI1
aI0
ag453
aa(lp756
F212.0
aI8
aI1
aI0
ag455
aa(lp757
F214.0
aI8
aI1
aI0
ag457
aa(lp758
F216.0
aI8
aI1
aI1
ag459
aa(lp759
F218.0
aI3
aI2
aI0
aS'inst'
p760
aa(lp761
F220.0
aI9
aI2
aI0
ag461
aa(lp762
F222.0
aI9
aI2
aI0
ag463
aa(lp763
F224.0
aI9
aI2
aI0
ag465
aa(lp764
F226.0
aI9
aI2
aI0
ag467
aa(lp765
F228.0
aI9
aI2
aI3
ag469
aa(lp766
F230.0
aI9
aI2
aI0
ag471
aa(lp767
F232.0
aI9
aI2
aI0
ag473
aa(lp768
F234.0
aI9
aI2
aI0
ag475
aa(lp769
F236.0
aI9
aI2
aI0
ag477
aa(lp770
F238.0
aI9
aI2
aI3
ag479
aa(lp771
F240.0
aI4
aI2
aI0
aS'inst'
p772
aa(lp773
F242.0
aI10
aI2
aI0
ag481
aa(lp774
F244.0
aI10
aI2
aI1
ag483
aa(lp775
F246.0
aI10
aI2
aI0
ag485
aa(lp776
F248.0
aI10
aI2
aI2
ag487
aa(lp777
F250.0
aI10
aI2
aI2
ag489
aa(lp778
F252.0
aI10
aI2
aI0
ag491
aa(lp779
F254.0
aI10
aI2
aI0
ag493
aa(lp780
F256.0
aI10
aI2
aI0
ag495
aa(lp781
F258.0
aI10
aI2
aI2
ag497
aa(lp782
F260.0
aI10
aI2
aI1
ag499
aa(lp783
F262.0
aI5
aI1
aI0
aS'inst'
p784
aa(lp785
F264.0
aI11
aI1
aI0
ag501
aa(lp786
F266.0
aI11
aI1
aI0
ag503
aa(lp787
F268.0
aI11
aI1
aI0
ag505
aa(lp788
F270.0
aI11
aI1
aI1
ag507
aa(lp789
F272.0
aI11
aI1
aI0
ag509
aa(lp790
F274.0
aI11
aI1
aI1
ag511
aa(lp791
F276.0
aI11
aI1
aI3
ag513
aa(lp792
F278.0
aI11
aI1
aI2
ag515
aa(lp793
F280.0
aI11
aI1
aI1
ag517
aa(lp794
F282.0
aI11
aI1
aI0
ag519
aa(lp795
F304.0
aI0
aI1
aI0
aS'inst'
p796
aa(lp797
F306.0
aI12
aI1
aI0
ag521
aa(lp798
F308.0
aI12
aI1
aI1
ag523
aa(lp799
F310.0
aI12
aI1
aI1
ag525
aa(lp800
F312.0
aI12
aI1
aI0
ag527
aa(lp801
F314.0
aI12
aI1
aI0
ag529
aa(lp802
F316.0
aI12
aI1
aI2
ag531
aa(lp803
F318.0
aI12
aI1
aI0
ag533
aa(lp804
F320.0
aI12
aI1
aI3
ag535
aa(lp805
F322.0
aI12
aI1
aI0
ag537
aa(lp806
F324.0
aI12
aI1
aI0
ag539
aa(lp807
F326.0
aI1
aI2
aI0
aS'inst'
p808
aa(lp809
F328.0
aI13
aI2
aI0
ag541
aa(lp810
F330.0
aI13
aI2
aI0
ag543
aa(lp811
F332.0
aI13
aI2
aI0
ag545
aa(lp812
F334.0
aI13
aI2
aI0
ag547
aa(lp813
F336.0
aI13
aI2
aI2
ag549
aa(lp814
F338.0
aI13
aI2
aI1
ag551
aa(lp815
F340.0
aI13
aI2
aI0
ag553
aa(lp816
F342.0
aI13
aI2
aI3
ag555
aa(lp817
F344.0
aI13
aI2
aI0
ag557
aa(lp818
F346.0
aI13
aI2
aI2
ag559
aa(lp819
F348.0
aI2
aI1
aI0
aS'inst'
p820
aa(lp821
F350.0
aI14
aI1
aI0
ag561
aa(lp822
F352.0
aI14
aI1
aI0
ag563
aa(lp823
F354.0
aI14
aI1
aI2
ag565
aa(lp824
F356.0
aI14
aI1
aI0
ag567
aa(lp825
F358.0
aI14
aI1
aI2
ag569
aa(lp826
F360.0
aI14
aI1
aI0
ag571
aa(lp827
F362.0
aI14
aI1
aI1
ag573
aa(lp828
F364.0
aI14
aI1
aI3
ag575
aa(lp829
F366.0
aI14
aI1
aI0
ag577
aa(lp830
F368.0
aI14
aI1
aI3
ag579
aa(lp831
F370.0
aI3
aI2
aI0
aS'inst'
p832
aa(lp833
F372.0
aI15
aI2
aI0
ag581
aa(lp834
F374.0
aI15
aI2
aI0
ag583
aa(lp835
F376.0
aI15
aI2
aI0
ag585
aa(lp836
F378.0
aI15
aI2
aI2
ag587
aa(lp837
F380.0
aI15
aI2
aI0
ag589
aa(lp838
F382.0
aI15
aI2
aI2
ag591
aa(lp839
F384.0
aI15
aI2
aI0
ag593
aa(lp840
F386.0
aI15
aI2
aI2
ag595
aa(lp841
F388.0
aI15
aI2
aI2
ag597
aa(lp842
F390.0
aI15
aI2
aI2
ag599
aa(lp843
F392.0
aI4
aI2
aI0
aS'inst'
p844
aa(lp845
F394.0
aI16
aI2
aI0
ag601
aa(lp846
F396.0
aI16
aI2
aI0
ag603
aa(lp847
F398.0
aI16
aI2
aI0
ag605
aa(lp848
F400.0
aI16
aI2
aI0
ag607
aa(lp849
F402.0
aI16
aI2
aI0
ag609
aa(lp850
F404.0
aI16
aI2
aI3
ag611
aa(lp851
F406.0
aI16
aI2
aI3
ag613
aa(lp852
F408.0
aI16
aI2
aI3
ag615
aa(lp853
F410.0
aI16
aI2
aI0
ag617
aa(lp854
F412.0
aI16
aI2
aI2
ag619
aa(lp855
F414.0
aI5
aI1
aI0
aS'inst'
p856
aa(lp857
F416.0
aI17
aI1
aI0
ag621
aa(lp858
F418.0
aI17
aI1
aI0
ag623
aa(lp859
F420.0
aI17
aI1
aI0
ag625
aa(lp860
F422.0
aI17
aI1
aI2
ag627
aa(lp861
F424.0
aI17
aI1
aI1
ag629
aa(lp862
F426.0
aI17
aI1
aI0
ag631
aa(lp863
F428.0
aI17
aI1
aI0
ag633
aa(lp864
F430.0
aI17
aI1
aI1
ag635
aa(lp865
F432.0
aI17
aI1
aI0
ag637
aa(lp866
F434.0
aI17
aI1
aI0
ag639
aasS'is_this_SS_trial'
p867
(dp868
sS'subcode'
p869
S'self_tracking_0048'
p870
sS'start_key'
p871
S'5'
p872
s.