(dp0
S'stim_onset_time'
p1
(dp2
sS'datestamp'
p3
S'2013-05-02-08_04_49'
p4
sS'ntrials_per_block'
p5
I6
sS'expt_title'
p6
S'Self_Tracking'
p7
sS'rt'
p8
(dp9
sS'simulated_response'
p10
I00
sS'script'
p11
(lp12
S'#!/usr/bin/env python\n'
p13
aS'\n'
p14
aS'import psychopy\n'
p15
aS'from psychopy import visual, core, event, logging, data, misc, sound\n'
p16
aS'import numpy as N\n'
p17
aS'import pickle,csv\n'
p18
aS'import datetime\n'
p19
aS'import sys\n'
p20
aS'import os, socket, random\n'
p21
aS'import inspect\n'
p22
aS'import hashlib\n'
p23
aS'from socket import gethostname\n'
p24
aS'import exptutils\n'
p25
aS'from exptutils import *\n'
p26
aS'from pylab import imread\n'
p27
ag14
aS'try:\n'
p28
aS'    from save_data_to_db import *\n'
p29
aS'    save_data=1\n'
p30
aS'except:\n'
p31
aS"    print 'cannnot import save_data_to_db'\n"
p32
aS'    save_data=0\n'
p33
ag14
aS'def store_scriptfile():\n'
p34
aS'    scriptfile= inspect.getfile(inspect.currentframe())# save a copy of the script in the data file\n'
p35
aS'    f=open(scriptfile)\n'
p36
aS'    script=f.readlines()\n'
p37
aS'    f.close()\n'
p38
aS'    return script\n'
p39
ag14
aS'#\n'
p40
aS'#- - - - - - - - - - - - - - - - - - - - - - - - - - - - - - - - - - - - - - - - - - - - - - - - - - - - - - - - - - - - - - - - - - - - - - - - - - - - - -\n'
p41
aS'#define functions for awaiting keyboard input & displaying initial instructions\n'
p42
aS'#these functions will be called prior to the stim_block() function (at bottom)\n'
p43
ag14
aS'def wait_for_trigger():\n'
p44
aS'    event.clearEvents()\n'
p45
aS"    if subdata['simulated_response']:\n"
p46
aS'        msg="SIMULATION MODE"\n'
p47
aS'    else:\n'
p48
aS"        msg=''\n"
p49
aS"    message=visual.TextStim(win, text='%s Waiting for start key (or press %s)'%(msg,subdata['start_key']),\n"
p50
aS"    font='BiauKai', height=1,color=u'white', colorSpace=u'rgb', opacity=1,depth=0.0,\n"
p51
aS"    alignHoriz='center',wrapWidth=50)\n"
p52
aS'    message.setAutoDraw(True) #automatically draw every frame\n'
p53
aS'    win.flip()\n'
p54
aS'    start=False\n'
p55
aS'    while start==False:\n'
p56
aS'        k=event.waitKeys()\n'
p57
aS"        if k.count(subdata['start_key'])>0:#as soon as subdata['start_key'] is pressed...\n"
p58
aS'            start=True\n'
p59
aS"            message.setText('')#this clears the screen\n"
p60
aS'            win.flip()\n'
p61
aS"        if k.count(subdata['quit_key']) >0:# if subdata['quit_key'] is pressed...\n"
p62
aS'            exptutils.shut_down_cleanly(subdata,win)\n'
p63
aS'            return subdata\n'
p64
aS'            \n'
p65
aS"def instructions(n,duration):#n here changes depending on the n-back level; yes/no will also switch between 'u' & 'i' keys depending on the Order number selected\n"
p66
aS'    event.clearEvents()\n'
p67
aS"    instructions=visual.TextStim(win=win, ori=0, name='instructions',font='BiauKai',\n"
p68
aS"        text='%d back'%n,\n"
p69
aS"        height=2,color=u'white', colorSpace=u'rgb', alignHoriz='center',wrapWidth=50)\n"
p70
aS'    instructions.setAutoDraw(True)\n'
p71
aS'    win.flip()\n'
p72
aS'    core.wait(duration)#currently it is set up to keep instructions on screen the designated amt of time; a button press will not end these instructions sooner\n'
p73
aS"    instructions.setText('')\n"
p74
aS'    win.flip()\n'
p75
ag14
aS'#- - - - - - - - - - - - - - - - - - - - - - - - - - - - - - - - - - - - - - - - - - - - - - - - - - - - - - - - - - - - - - - - - - - - - - - - \n'
p76
ag14
ag14
aS'#define function for displaying visual stims for each trial on n-back task\n'
p77
ag14
aS'def draw_stim(win,event_info,subdata,visual_stim):\n'
p78
aS'    trialdata={}\n'
p79
aS"    trialdata['duration']=subdata['stim_dur']\n"
p80
aS"    trialdata['onset'],trialdata['block'],trialdata['nback'],trialdata['match'],trialdata['stim']=event_info\n"
p81
aS'    # NB: I removed a lot of data handling stuff from within this function\n'
p82
aS'    # instead, the data get returned and handled at the calling level\n'
p83
aS"    print trialdata['stim']\n"
p84
aS"    if trialdata['stim'].find('faces')>-1:#if it is a face image, display vertically\n"
p85
aS"        stim_type='faces'\n"
p86
aS"    elif trialdata['stim'].find('scenes')>-1:#\n"
p87
aS"        stim_type='scenes'\n"
p88
aS'    else:#if it is a character, display as text\n'
p89
aS"        stim_type='chinese_characters'\n"
p90
aS'        \n'
p91
aS"    visual_stim.setImage(trialdata['stim'])\n"
p92
aS"    trialdata['stim_type']=stim_type\n"
p93
aS'    \n'
p94
aS'        #visual_stim[stim_type].setAutoDraw(True)#get the image ready to display\n'
p95
aS'    visual_stim.draw()\n'
p96
aS"    while clock.getTime()<trialdata['onset']:#wait until the specified onset time to display image_file\n"
p97
aS'        pass\n'
p98
aS'    win.flip()\n'
p99
aS"    trialdata['actual_onset_time']=clock.getTime()\n"
p100
aS'    event.clearEvents()#clear all button presses\n'
p101
aS'    thisResp=None\n'
p102
aS'    simulated_rt=0.5 + N.random.rand()*0.1\n'
p103
aS"    while clock.getTime() < (trialdata['actual_onset_time'] + trialdata['duration']):#before the subdata['stim_dur'] time is exceeded, do this stuff...\n"
p104
aS'            key_response=event.getKeys()#look for yes,no, and quit commands\n'
p105
aS"            if subdata['simulated_response']:\n"
p106
aS"                if clock.getTime()> trialdata['actual_onset_time'] + simulated_rt:\n"
p107
aS'                    thisResp=1\n'
p108
aS"                    trialdata['rt']=clock.getTime() - trialdata['actual_onset_time'] #collect rt\n"
p109
aS"                    if trialdata['match']==trialdata['nback']:\n"
p110
aS"                        trialdata['response']='4'\n"
p111
aS'                    else:\n'
p112
aS"                        trialdata['response']='1'\n"
p113
ag14
aS'            elif key_response:#if they press any button\n'
p114
aS"                if key_response.count(subdata['quit_key'])>0:#if subj hits subdata['quit_key']...\n"
p115
aS'                    keep_going=0\n'
p116
aS"                    #subdata['broke_on_trial'][which_block]=trial_num\n"
p117
aS'                    #shut_down_cleanly(subdata,win)\n'
p118
aS'                    return None\n'
p119
aS"                elif key_response.count('5')>0:\n"
p120
aS"                    subdata['trigger_times'].append(clock.getTime())\n"
p121
aS'                else:\n'
p122
aS'                    thisResp=1\n'
p123
aS"                    trialdata['rt']=clock.getTime() - trialdata['actual_onset_time'] #collect rt\n"
p124
aS"                    trialdata['response']=key_response[0]#collect response\n"
p125
ag14
aS'    visual_stim.clearTextures()\n'
p126
ag14
aS'    win.flip()\n'
p127
ag14
aS'    #del visual_stim\n'
p128
aS'    return trialdata\n'
p129
aS'    \n'
p130
ag14
ag14
aS'#Text saying the task has finished. Disappears with key press\n'
p131
ag14
aS'def display_finished_text():#finished with experiment\n'
p132
aS'    event.clearEvents()\n'
p133
aS'    message=visual.TextStim(win=win, ori=0,\n'
p134
aS"    text='All finished! Thanks  :) \\n Press any key to clear the screen.',\n"
p135
aS"    font=u'BiauKai',pos=[0, 0], height=2,color=u'white', colorSpace=u'rgb', opacity=1,depth=0.0,alignHoriz='center',wrapWidth=50)\n"
p136
aS'    message.setAutoDraw(True) \n'
p137
aS'    win.flip()\n'
p138
aS'    start=False\n'
p139
aS'    while start==False:\n'
p140
aS'        key_response=event.getKeys()\n'
p141
aS'        if len(key_response)>0:\n'
p142
aS'            start=True\n'
p143
aS"            message.setText('')#this clears the screen\n"
p144
aS'            win.flip()\n'
p145
aS'    return start\n'
p146
aS'#- - - - - - - - - - - - - - - - - - - - - - - - - - - - - - - - - - - - - - - - - - - - - - - - - - - - - - - - - - - - - - - - - - - - - - \n'
p147
ag14
aS'    \n'
p148
aS'#set-up some variables\n'
p149
ag14
aS'verbose=True\n'
p150
aS'fullscr=False  # change to True for full screen display\n'
p151
ag14
aS"stim_types=['faces','scenes','chinese_characters']\n"
p152
aS'subdata={}\n'
p153
aS'finish_time=440\n'
p154
ag14
aS"subdata['start_key']='5'\n"
p155
aS"subdata['quit_key']='q'\n"
p156
aS"subdata['discard_time_to_wait']=0.0\n"
p157
aS"subdata['expt_title']='Self_Tracking'\n"
p158
aS"subdata['stim_dur']=1.0\n"
p159
aS"subdata['inter_stim_int']=1.0\n"
p160
aS"subdata['inst_time']=1.0\n"
p161
aS"subdata['rest_time']=10.0\n"
p162
aS"subdata['ExpVersion']=0.1\n"
p163
aS"subdata['nstims']=5\n"
p164
aS"subdata['ntrials_per_block']=6\n"
p165
aS"subdata['simulated_response']=False\n"
p166
aS"subdata['trigger_times']=[]\n"
p167
ag14
aS'if len(sys.argv)<2:\n'
p168
aS"    print 'USAGE: self_tracking.py <stimlist> <session code>'\n"
p169
aS'    sys.exit()\n'
p170
aS"    #subdata['onsetfile']='/Users/poldrack/Dropbox/Documents/Projects/self-tracking/task/onsetlists/stimlist_000.txt'\n"
p171
aS'else:\n'
p172
aS"    subdata['onsetfile']=sys.argv[1]\n"
p173
aS"    subdata['subcode']=sys.argv[2]\n"
p174
ag14
ag14
aS'# initialize subdata dictionary to store info about the study\n'
p175
aS"subdata['completed']=0\n"
p176
aS"subdata['cwd']=os.getcwd()\n"
p177
aS"subdata['hostname']=socket.gethostname()\n"
p178
aS'clock=core.Clock()\n'
p179
aS'datestamp=datetime.datetime.now().strftime("%Y-%m-%d-%H_%M_%S")\n'
p180
aS"subdata['datestamp']=datestamp\n"
p181
aS"subdata['expt_title']=subdata['expt_title']\n"
p182
aS"subdata['script']=store_scriptfile()\n"
p183
aS"subdata['onsets']=subdata['onsetfile']\n"
p184
ag14
aS'#these are all sub-dictionaries which will be appended w/separate info for each block & each trial\n'
p185
aS"#i.e., the 'response' dictionary will contain the following dictionaries: face_1, face_2, scenes_1, scenes_2, whose keys are trial_num and values are the responses on that trial\n"
p186
aS"subdata['response']={}\n"
p187
aS"subdata['score']={}\n"
p188
aS"subdata['rt']={}\n"
p189
aS"subdata['stim_onset_time']={}\n"
p190
aS"subdata['stim_log']={}\n"
p191
aS"subdata['is_this_SS_trial']={}\n"
p192
aS"subdata['SS']={}\n"
p193
aS"subdata['broke_on_trial']={}\n"
p194
ag14
aS'# set up logging information & create Output directories\n'
p195
aS"if not os.path.isdir('Output'):#make an Output directory if necessary\n"
p196
aS"    os.makedirs('Output') \n"
p197
ag14
aS"dataFileName='Output/%s_%s_subdata.log'%(subdata['subcode'],subdata['datestamp'])\n"
p198
aS'logging.console.setLevel(logging.INFO)\n'
p199
aS'logfile=logging.LogFile(dataFileName,level=logging.INFO)\n'
p200
ag14
aS'# load stimulus file\n'
p201
ag14
aS'def load_stimulus_file(onsfile):\n'
p202
aS'    events=[]\n'
p203
aS'    f=open(onsfile)\n'
p204
aS'    l=f.readlines()\n'
p205
aS'    for line in l:\n'
p206
aS"        l_s=line.strip('\\n').split('\\t')\n"
p207
aS'        events.append([float(l_s[0]),int(l_s[1]),int(l_s[2]),int(l_s[3]),l_s[4]])\n'
p208
aS'    f.close()\n'
p209
aS'    return events\n'
p210
ag14
aS"events=load_stimulus_file(subdata['onsetfile'])\n"
p211
ag14
aS'# set up the window \n'
p212
aS"win = visual.Window([800,600],allowGUI=True, fullscr=True, monitor='testMonitor', units='deg')\n"
p213
aS"win.setColor('black')\n"
p214
aS'win.flip()\n'
p215
aS'win.flip()\n'
p216
ag14
aS'#integrating everything together\n'
p217
ag14
aS"subdata['trialdata']={}\n"
p218
aS'#chardict=create_characters_dict()\n'
p219
ag14
aS"wait_for_trigger()#wait for subdata['start_key'] to be pressed\n"
p220
ag14
aS'visual_stim={}\n'
p221
aS"visual_stim=visual.ImageStim(win, image=N.zeros((10,10)), size=(0.75,0.75),units='height')\n"
p222
ag14
aS'# set clock to zero\n'
p223
aS'clock.reset()\n'
p224
aS'trialctr=0\n'
p225
aS'for i in range(len(events)):\n'
p226
aS"    if events[i][4]=='inst':\n"
p227
aS'        while clock.getTime() < events[i][0]:\n'
p228
aS'            pass\n'
p229
aS"        instructions(events[i][2],subdata['inst_time'])\n"
p230
aS'    else:\n'
p231
aS"        subdata['trialdata'][trialctr]=draw_stim(win,events[i],subdata,visual_stim)\n"
p232
aS"        if subdata['trialdata'][trialctr]==None:\n"
p233
aS'            break\n'
p234
aS'        trialctr+=1\n'
p235
aS"        print 'return time:',clock.getTime()\n"
p236
ag14
aS'#display_finished_text()\n'
p237
aS'while clock.getTime()<finish_time:\n'
p238
aS'\tpass\n'
p239
aS'\t\n'
p240
aS"subdata['events']=events\n"
p241
aS'if save_data==1:\n'
p242
aS"    docId,docRev=save_data_to_db(subdata,'selftracking-taskdata')\n"
p243
ag14
aS'shut_down_cleanly(subdata,win)\n'
p244
asS'onsets'
p245
S'onsetlists/stimlist_010.txt'
p246
sS'hostname'
p247
S'IRC-arizona'
p248
sS'score'
p249
(dp250
sS'rest_time'
p251
F10.0
sS'cwd'
p252
S'/Users/rap2623/Dropbox/Documents/Projects/self-tracking/task'
p253
sS'trigger_times'
p254
(lp255
F2.2731380462646484
aF4.5931010246276855
aF6.913156032562256
aF8.07443904876709
aF10.393439054489136
aF12.713413000106812
aF16.19354486465454
aF18.513531923294067
aF20.833641052246094
aF24.31373882293701
aF26.633776903152466
aF28.953860998153687
aF30.113849878311157
aF32.43393588066101
aF34.754021883010864
aF38.23413896560669
aF40.55433201789856
aF42.874181032180786
aF46.354387044906616
aF48.674418926239014
aF50.994508028030396
aF52.15471696853638
aF54.474637031555176
aF56.79462504386902
aF60.27478289604187
aF62.59485483169556
aF64.913813829422
aF68.39282894134521
aF70.71306896209717
aF74.19419288635254
aF76.51318097114563
aF78.83422684669495
aF82.31340289115906
aF84.63332200050354
aF86.95346283912659
aF90.43366003036499
aF92.75463700294495
aF96.23395991325378
aF98.55484795570374
aF100.8737690448761
aF102.03400897979736
aF104.35397791862488
aF106.67406797409058
aF108.9939980506897
aF112.47420501708984
aF114.79418087005615
aF118.27428889274597
aF120.5944230556488
aF122.91334390640259
aF124.07465100288391
aF126.39471483230591
aF128.7146499156952
aF154.2354700565338
aF156.55459785461426
aF158.87549996376038
aF160.0346360206604
aF162.35476088523865
aF164.67565894126892
aF166.9926040172577
aF168.1550588607788
aF170.4739110469818
aF172.79389190673828
aF176.27400302886963
aF178.5941858291626
aF180.9151749610901
aF182.07535600662231
aF184.39432883262634
aF186.71428394317627
aF190.19451904296875
aF192.51455998420715
aF194.83459782600403
aF198.3147578239441
aF200.63476490974426
aF202.95284605026245
aF204.11496305465698
aF206.43598985671997
aF208.75491285324097
aF212.2351598739624
aF214.55501198768616
aF216.87514090538025
aF220.35528683662415
aF222.67540383338928
aF224.99446988105774
aF226.15560102462769
aF228.47555899620056
aF230.79553985595703
aF234.27567195892334
aF236.59575700759888
aF238.91585302352905
aF242.39620304107666
aF244.71598386764526
aF248.19513583183289
aF250.51620483398438
aF252.83625292778015
aF256.31637692451477
aF258.63634490966797
aF260.9563639163971
aF264.4365520477295
aF266.7556450366974
aF270.23675894737244
aF272.55477595329285
aF274.8747320175171
aF276.0349910259247
aF278.35490798950195
aF280.6752460002899
aF282.99512100219727
aF306.1969769001007
aF308.51681303977966
aF310.83692502975464
aF314.31597805023193
aF316.63602805137634
aF318.9561278820038
aF320.1162049770355
aF322.43631982803345
aF324.7563009262085
aF328.23638701438904
aF330.55643701553345
aF332.87552285194397
aF334.03568387031555
aF336.35667395591736
aF338.67666387557983
aF340.99669003486633
aF342.1568899154663
aF344.4758939743042
aF346.7959749698639
aF350.2761688232422
aF352.5971109867096
aF354.9170398712158
aF356.0772728919983
aF358.39715600013733
aF360.71716594696045
aF364.1964418888092
aF366.516450881958
aF368.83754086494446
aF372.3176369667053
aF374.63579082489014
aF376.9557490348816
aF378.1158928871155
aF380.43587493896484
aF382.75692200660706
aF386.23636293411255
aF388.5571458339691
aF390.8761188983917
aF394.35632395744324
aF396.6763689517975
aF398.99636697769165
aF400.15658688545227
aF402.47653794288635
aF404.7966158390045
aF408.2766909599304
aF410.59783005714417
aF412.91683197021484
aF416.39689588546753
aF418.71700382232666
aF422.19721698760986
aF424.51618003845215
aF426.8362138271332
aF430.3163318634033
aF432.6364049911499
aF434.9573800563812
asS'ExpVersion'
p256
F0.1
sS'completed'
p257
I0
sS'stim_dur'
p258
F1.0
sS'quit_key'
p259
S'q'
p260
sS'onsetfile'
p261
g246
sS'discard_time_to_wait'
p262
F0.0
sS'response'
p263
(dp264
sS'trialdata'
p265
(dp266
I0
(dp267
g8
F0.7266790866851807
sS'stim'
p268
S'./stimfiles/chinese_characters/30204.jpg'
p269
sS'onset'
p270
F2.0
sS'stim_type'
p271
S'chinese_characters'
p272
sS'block'
p273
I0
sS'nback'
p274
I2
sS'duration'
p275
F1.0
sg263
S'1'
p276
sS'match'
p277
I0
sS'actual_onset_time'
p278
F2.016352891921997
ssI1
(dp279
g8
F0.5518929958343506
sg268
S'./stimfiles/chinese_characters/27446.jpg'
p280
sg270
F4.0
sg271
g272
sg273
I0
sg274
I2
sg275
F1.0
sg263
g276
sg277
I0
sg278
F4.017210006713867
ssI2
(dp281
g8
F0.6212787628173828
sg268
S'./stimfiles/chinese_characters/25683.jpg'
p282
sg270
F6.0
sg271
g272
sg273
I0
sg274
I2
sg275
F1.0
sg263
g276
sg277
I0
sg278
F6.017950057983398
ssI3
(dp283
g268
S'./stimfiles/chinese_characters/30297.jpg'
p284
sg270
F8.0
sg271
g272
sg273
I0
sg274
I2
sg275
F1.0
sg277
I0
sg278
F8.018786907196045
ssI4
(dp285
g8
F0.7757351398468018
sg268
S'./stimfiles/chinese_characters/26868.jpg'
p286
sg270
F10.0
sg271
g272
sg273
I0
sg274
I2
sg275
F1.0
sg263
g276
sg277
I0
sg278
F10.019606828689575
ssI5
(dp287
g8
F0.8009209632873535
sg268
S'./stimfiles/chinese_characters/26193.jpg'
p288
sg270
F12.0
sg271
g272
sg273
I0
sg274
I2
sg275
F1.0
sg263
g276
sg277
I0
sg278
F12.020423889160156
ssI6
(dp289
g8
F0.7602071762084961
sg268
S'./stimfiles/chinese_characters/35438.jpg'
p290
sg270
F14.0
sg271
g272
sg273
I0
sg274
I2
sg275
F1.0
sg263
g276
sg277
I0
sg278
F14.021294832229614
ssI7
(dp291
g8
F0.47933006286621094
sg268
S'./stimfiles/chinese_characters/26193.jpg'
p292
sg270
F16.0
sg271
g272
sg273
I0
sg274
I2
sg275
F1.0
sg263
S'4'
p293
sg277
I2
sg278
F16.022133827209473
ssI8
(dp294
g8
F0.9465920925140381
sg268
S'./stimfiles/chinese_characters/35438.jpg'
p295
sg270
F18.0
sg271
g272
sg273
I0
sg274
I2
sg275
F1.0
sg263
g293
sg277
I2
sg278
F18.02294087409973
ssI9
(dp296
g8
F0.6598241329193115
sg268
S'./stimfiles/chinese_characters/26193.jpg'
p297
sg270
F20.0
sg271
g272
sg273
I0
sg274
I2
sg275
F1.0
sg263
g293
sg277
I2
sg278
F20.02377486228943
ssI10
(dp298
g8
F0.8570408821105957
sg268
S'./stimfiles/faces/cropped_56b.png'
p299
sg270
F24.0
sg271
S'faces'
p300
sg273
I1
sg274
I2
sg275
F1.0
sg263
g276
sg277
I0
sg278
F24.008666038513184
ssI11
(dp301
g8
F0.6402430534362793
sg268
S'./stimfiles/faces/cropped_594.png'
p302
sg270
F26.0
sg271
g300
sg273
I1
sg274
I2
sg275
F1.0
sg263
g276
sg277
I0
sg278
F26.009493827819824
ssI12
(dp303
g8
F0.8174891471862793
sg268
S'./stimfiles/faces/cropped_00921015.png'
p304
sg270
F28.0
sg271
g300
sg273
I1
sg274
I2
sg275
F1.0
sg263
g276
sg277
I0
sg278
F28.01038384437561
ssI13
(dp305
g268
S'./stimfiles/faces/cropped_56b.png'
p306
sg270
F30.0
sg271
g300
sg273
I1
sg274
I2
sg275
F1.0
sg277
I3
sg278
F30.011175870895386
ssI14
(dp307
g8
F0.8539960384368896
sg268
S'./stimfiles/faces/cropped_56b.png'
p308
sg270
F32.0
sg271
g300
sg273
I1
sg274
I2
sg275
F1.0
sg263
g276
sg277
I1
sg278
F32.01197791099548
ssI15
(dp309
g8
F0.709277868270874
sg268
S'./stimfiles/faces/cropped_605.png'
p310
sg270
F34.0
sg271
g300
sg273
I1
sg274
I2
sg275
F1.0
sg263
g276
sg277
I0
sg278
F34.012763023376465
ssI16
(dp311
g8
F0.5466160774230957
sg268
S'./stimfiles/faces/cropped_56b.png'
p312
sg270
F36.0
sg271
g300
sg273
I1
sg274
I2
sg275
F1.0
sg263
g293
sg277
I2
sg278
F36.0136079788208
ssI17
(dp313
g8
F0.6057078838348389
sg268
S'./stimfiles/faces/cropped_f4008.png'
p314
sg270
F38.0
sg271
g300
sg273
I1
sg274
I2
sg275
F1.0
sg263
g276
sg277
I0
sg278
F38.014456033706665
ssI18
(dp315
g8
F0.7189478874206543
sg268
S'./stimfiles/faces/cropped_605.png'
p316
sg270
F40.0
sg271
g300
sg273
I1
sg274
I2
sg275
F1.0
sg263
g276
sg277
I3
sg278
F40.015228033065796
ssI19
(dp317
g8
F0.8401930332183838
sg268
S'./stimfiles/faces/cropped_f-013-01.png'
p318
sg270
F42.0
sg271
g300
sg273
I1
sg274
I2
sg275
F1.0
sg263
g276
sg277
I0
sg278
F42.01613092422485
ssI20
(dp319
g8
F0.582421064376831
sg268
S'./stimfiles/chinese_characters/35609.jpg'
p320
sg270
F46.0
sg271
g272
sg273
I2
sg274
I1
sg275
F1.0
sg263
g276
sg277
I0
sg278
F46.017791986465454
ssI21
(dp321
g8
F0.6915061473846436
sg268
S'./stimfiles/chinese_characters/37275.jpg'
p322
sg270
F48.0
sg271
g272
sg273
I2
sg274
I1
sg275
F1.0
sg263
g276
sg277
I0
sg278
F48.01860284805298
ssI22
(dp323
g8
F0.6271059513092041
sg268
S'./stimfiles/chinese_characters/29741.jpg'
p324
sg270
F50.0
sg271
g272
sg273
I2
sg274
I1
sg275
F1.0
sg263
g276
sg277
I0
sg278
F50.019388914108276
ssI23
(dp325
g8
F0.5982351303100586
sg268
S'./stimfiles/chinese_characters/24831.jpg'
p326
sg270
F52.0
sg271
g272
sg273
I2
sg274
I1
sg275
F1.0
sg263
g276
sg277
I0
sg278
F52.02023983001709
ssI24
(dp327
g8
F0.6335580348968506
sg268
S'./stimfiles/chinese_characters/26867.jpg'
p328
sg270
F54.0
sg271
g272
sg273
I2
sg274
I1
sg275
F1.0
sg263
g276
sg277
I0
sg278
F54.02105784416199
ssI25
(dp329
g8
F0.5708410739898682
sg268
S'./stimfiles/chinese_characters/24831.jpg'
p330
sg270
F56.0
sg271
g272
sg273
I2
sg274
I1
sg275
F1.0
sg263
g276
sg277
I2
sg278
F56.021812915802
ssI26
(dp331
g8
F0.6939761638641357
sg268
S'./stimfiles/chinese_characters/35552.jpg'
p332
sg270
F58.0
sg271
g272
sg273
I2
sg274
I1
sg275
F1.0
sg263
g276
sg277
I0
sg278
F58.02271485328674
ssI27
(dp333
g8
F0.6572830677032471
sg268
S'./stimfiles/chinese_characters/24820.jpg'
p334
sg270
F60.0
sg271
g272
sg273
I2
sg274
I1
sg275
F1.0
sg263
g276
sg277
I0
sg278
F60.02349591255188
ssI28
(dp335
g8
F0.5865139961242676
sg268
S'./stimfiles/chinese_characters/24831.jpg'
p336
sg270
F62.0
sg271
g272
sg273
I2
sg274
I1
sg275
F1.0
sg263
g276
sg277
I3
sg278
F62.02429485321045
ssI29
(dp337
g8
F0.5608220100402832
sg268
S'./stimfiles/chinese_characters/24831.jpg'
p338
sg270
F64.0
sg271
g272
sg273
I2
sg274
I1
sg275
F1.0
sg263
g293
sg277
I1
sg278
F64.02513790130615
ssI30
(dp339
g8
F0.6608490943908691
sg268
S'./stimfiles/scenes/1038.jpg'
p340
sg270
F68.0
sg271
S'scenes'
p341
sg273
I3
sg274
I2
sg275
F1.0
sg263
g276
sg277
I0
sg278
F68.01015186309814
ssI31
(dp342
g8
F0.5721590518951416
sg268
S'./stimfiles/scenes/1837.jpg'
p343
sg270
F70.0
sg271
g341
sg273
I3
sg274
I2
sg275
F1.0
sg263
g276
sg277
I0
sg278
F70.01096487045288
ssI32
(dp344
g8
F0.6023581027984619
sg268
S'./stimfiles/scenes/1000.jpg'
p345
sg270
F72.0
sg271
g341
sg273
I3
sg274
I2
sg275
F1.0
sg263
g276
sg277
I0
sg278
F72.01175785064697
ssI33
(dp346
g8
F0.7433691024780273
sg268
S'./stimfiles/scenes/1000.jpg'
p347
sg270
F74.0
sg271
g341
sg273
I3
sg274
I2
sg275
F1.0
sg263
g276
sg277
I1
sg278
F74.01262593269348
ssI34
(dp348
g8
F0.6358060836791992
sg268
S'./stimfiles/scenes/1527.jpg'
p349
sg270
F76.0
sg271
g341
sg273
I3
sg274
I2
sg275
F1.0
sg263
g276
sg277
I0
sg278
F76.01342797279358
ssI35
(dp350
g8
F0.650068998336792
sg268
S'./stimfiles/scenes/329.jpg'
p351
sg270
F78.0
sg271
g341
sg273
I3
sg274
I2
sg275
F1.0
sg263
g276
sg277
I0
sg278
F78.01423501968384
ssI36
(dp352
g8
F0.7912240028381348
sg268
S'./stimfiles/scenes/1000.jpg'
p353
sg270
F80.0
sg271
g341
sg273
I3
sg274
I2
sg275
F1.0
sg263
g276
sg277
I3
sg278
F80.01507592201233
ssI37
(dp354
g8
F0.749413013458252
sg268
S'./stimfiles/scenes/3029.jpg'
p355
sg270
F82.0
sg271
g341
sg273
I3
sg274
I2
sg275
F1.0
sg263
g276
sg277
I0
sg278
F82.01591992378235
ssI38
(dp356
g8
F0.5947480201721191
sg268
S'./stimfiles/scenes/1000.jpg'
p357
sg270
F84.0
sg271
g341
sg273
I3
sg274
I2
sg275
F1.0
sg263
g293
sg277
I2
sg278
F84.01670694351196
ssI39
(dp358
g8
F0.7818050384521484
sg268
S'./stimfiles/scenes/3029.jpg'
p359
sg270
F86.0
sg271
g341
sg273
I3
sg274
I2
sg275
F1.0
sg263
g293
sg277
I2
sg278
F86.01753091812134
ssI40
(dp360
g8
F0.4502890110015869
sg268
S'./stimfiles/scenes/1329.jpg'
p361
sg270
F90.0
sg271
g341
sg273
I4
sg274
I1
sg275
F1.0
sg263
g276
sg277
I0
sg278
F90.01921200752258
ssI41
(dp362
g8
F0.546630859375
sg268
S'./stimfiles/scenes/89.jpg'
p363
sg270
F92.0
sg271
g341
sg273
I4
sg274
I1
sg275
F1.0
sg263
g276
sg277
I0
sg278
F92.02004098892212
ssI42
(dp364
g8
F0.563927173614502
sg268
S'./stimfiles/scenes/968.jpg'
p365
sg270
F94.0
sg271
g341
sg273
I4
sg274
I1
sg275
F1.0
sg263
g276
sg277
I0
sg278
F94.02079486846924
ssI43
(dp366
g8
F0.44483208656311035
sg268
S'./stimfiles/scenes/1329.jpg'
p367
sg270
F96.0
sg271
g341
sg273
I4
sg274
I1
sg275
F1.0
sg263
g276
sg277
I3
sg278
F96.00494384765625
ssI44
(dp368
g8
F0.47501301765441895
sg268
S'./stimfiles/scenes/1015.jpg'
p369
sg270
F98.0
sg271
g341
sg273
I4
sg274
I1
sg275
F1.0
sg263
g276
sg277
I0
sg278
F98.00580382347107
ssI45
(dp370
g8
F0.5193860530853271
sg268
S'./stimfiles/scenes/1329.jpg'
p371
sg270
F100.0
sg271
g341
sg273
I4
sg274
I1
sg275
F1.0
sg263
g276
sg277
I2
sg278
F100.00661897659302
ssI46
(dp372
g8
F0.5084810256958008
sg268
S'./stimfiles/scenes/1427.jpg'
p373
sg270
F102.0
sg271
g341
sg273
I4
sg274
I1
sg275
F1.0
sg263
g276
sg277
I0
sg278
F102.0074188709259
ssI47
(dp374
g8
F0.5117661952972412
sg268
S'./stimfiles/scenes/1918.jpg'
p375
sg270
F104.0
sg271
g341
sg273
I4
sg274
I1
sg275
F1.0
sg263
g276
sg277
I0
sg278
F104.0082278251648
ssI48
(dp376
g8
F0.5590250492095947
sg268
S'./stimfiles/scenes/1427.jpg'
p377
sg270
F106.0
sg271
g341
sg273
I4
sg274
I1
sg275
F1.0
sg263
g276
sg277
I2
sg278
F106.00906586647034
ssI49
(dp378
g8
F0.4782121181488037
sg268
S'./stimfiles/scenes/1056.jpg'
p379
sg270
F108.0
sg271
g341
sg273
I4
sg274
I1
sg275
F1.0
sg263
g276
sg277
I0
sg278
F108.00985884666443
ssI50
(dp380
g8
F0.46598386764526367
sg268
S'./stimfiles/faces/cropped_95MVC-003F.png'
p381
sg270
F112.0
sg271
g300
sg273
I5
sg274
I1
sg275
F1.0
sg263
g276
sg277
I0
sg278
F112.0282039642334
ssI51
(dp382
g8
F0.5019519329071045
sg268
S'./stimfiles/faces/cropped_118.png'
p383
sg270
F114.0
sg271
g300
sg273
I5
sg274
I1
sg275
F1.0
sg263
g276
sg277
I0
sg278
F114.01232099533081
ssI52
(dp384
g8
F0.6712539196014404
sg268
S'./stimfiles/faces/cropped_s03_13.png'
p385
sg270
F116.0
sg271
g300
sg273
I5
sg274
I1
sg275
F1.0
sg263
g276
sg277
I0
sg278
F116.01316905021667
ssI53
(dp386
g8
F0.6223621368408203
sg268
S'./stimfiles/faces/cropped_s03_13.png'
p387
sg270
F118.0
sg271
g300
sg273
I5
sg274
I1
sg275
F1.0
sg263
g293
sg277
I1
sg278
F118.01402187347412
ssI54
(dp388
g8
F0.8976211547851562
sg268
S'./stimfiles/faces/cropped_s03_13.png'
p389
sg270
F120.0
sg271
g300
sg273
I5
sg274
I1
sg275
F1.0
sg263
g293
sg277
I1
sg278
F120.01478385925293
ssI55
(dp390
g8
F0.5418500900268555
sg268
S'./stimfiles/faces/cropped_s03_13.png'
p391
sg270
F122.0
sg271
g300
sg273
I5
sg274
I1
sg275
F1.0
sg263
g293
sg277
I1
sg278
F122.01566290855408
ssI56
(dp392
g8
F0.594160795211792
sg268
S'./stimfiles/faces/cropped_682.png'
p393
sg270
F124.0
sg271
g300
sg273
I5
sg274
I1
sg275
F1.0
sg263
g276
sg277
I0
sg278
F124.01645803451538
ssI57
(dp394
g8
F0.6212999820709229
sg268
S'./stimfiles/faces/cropped_s03_13.png'
p395
sg270
F126.0
sg271
g300
sg273
I5
sg274
I1
sg275
F1.0
sg263
g276
sg277
I3
sg278
F126.01735091209412
ssI58
(dp396
g8
F0.5465130805969238
sg268
S'./stimfiles/faces/cropped_503.png'
p397
sg270
F128.0
sg271
g300
sg273
I5
sg274
I1
sg275
F1.0
sg263
g276
sg277
I0
sg278
F128.01816987991333
ssI59
(dp398
g8
F0.5039389133453369
sg268
S'./stimfiles/faces/cropped_s03_13.png'
p399
sg270
F130.0
sg271
g300
sg273
I5
sg274
I1
sg275
F1.0
sg263
g276
sg277
I2
sg278
F130.01891994476318
ssI60
(dp400
g8
F0.5865828990936279
sg268
S'./stimfiles/chinese_characters/29790.jpg'
p401
sg270
F154.0
sg271
g272
sg273
I6
sg274
I2
sg275
F1.0
sg263
g276
sg277
I0
sg278
F154.02883005142212
ssI61
(dp402
g8
F0.8075010776519775
sg268
S'./stimfiles/chinese_characters/31360.jpg'
p403
sg270
F156.0
sg271
g272
sg273
I6
sg274
I2
sg275
F1.0
sg263
g276
sg277
I0
sg278
F156.01297092437744
ssI62
(dp404
g8
F0.693526029586792
sg268
S'./stimfiles/chinese_characters/29790.jpg'
p405
sg270
F158.0
sg271
g272
sg273
I6
sg274
I2
sg275
F1.0
sg263
g293
sg277
I2
sg278
F158.01382899284363
ssI63
(dp406
g8
F0.713972806930542
sg268
S'./stimfiles/chinese_characters/20570.jpg'
p407
sg270
F160.0
sg271
g272
sg273
I6
sg274
I2
sg275
F1.0
sg263
g276
sg277
I0
sg278
F160.01465702056885
ssI64
(dp408
g8
F0.7541680335998535
sg268
S'./stimfiles/chinese_characters/25639.jpg'
p409
sg270
F162.0
sg271
g272
sg273
I6
sg274
I2
sg275
F1.0
sg263
g276
sg277
I0
sg278
F162.0154628753662
ssI65
(dp410
g8
F0.8714661598205566
sg268
S'./stimfiles/chinese_characters/29790.jpg'
p411
sg270
F164.0
sg271
g272
sg273
I6
sg274
I2
sg275
F1.0
sg263
g276
sg277
I3
sg278
F164.01622486114502
ssI66
(dp412
g8
F0.9807429313659668
sg268
S'./stimfiles/chinese_characters/29790.jpg'
p413
sg270
F166.0
sg271
g272
sg273
I6
sg274
I2
sg275
F1.0
sg263
g276
sg277
I1
sg278
F166.01706504821777
ssI67
(dp414
g8
F0.5969228744506836
sg268
S'./stimfiles/chinese_characters/29790.jpg'
p415
sg270
F168.0
sg271
g272
sg273
I6
sg274
I2
sg275
F1.0
sg263
g293
sg277
I1
sg278
F168.01794004440308
ssI68
(dp416
g8
F0.6391119956970215
sg268
S'./stimfiles/chinese_characters/25903.jpg'
p417
sg270
F170.0
sg271
g272
sg273
I6
sg274
I2
sg275
F1.0
sg263
g276
sg277
I0
sg278
F170.01872897148132
ssI69
(dp418
g8
F0.6144068241119385
sg268
S'./stimfiles/chinese_characters/20558.jpg'
p419
sg270
F172.0
sg271
g272
sg273
I6
sg274
I2
sg275
F1.0
sg263
g276
sg277
I0
sg278
F172.01954102516174
ssI70
(dp420
g8
F0.46063804626464844
sg268
S'./stimfiles/faces/cropped_i206ta-mn.png'
p421
sg270
F176.0
sg271
g300
sg273
I7
sg274
I2
sg275
F1.0
sg263
g276
sg277
I0
sg278
F176.02117800712585
ssI71
(dp422
g8
F0.6420481204986572
sg268
S'./stimfiles/faces/cropped_62a.png'
p423
sg270
F178.0
sg271
g300
sg273
I7
sg274
I2
sg275
F1.0
sg263
g276
sg277
I0
sg278
F178.02200889587402
ssI72
(dp424
g8
F0.6683661937713623
sg268
S'./stimfiles/faces/cropped_m-095-01.png'
p425
sg270
F180.0
sg271
g300
sg273
I7
sg274
I2
sg275
F1.0
sg263
g276
sg277
I0
sg278
F180.02278184890747
ssI73
(dp426
g8
F0.561427116394043
sg268
S'./stimfiles/faces/cropped_62a.png'
p427
sg270
F182.0
sg271
g300
sg273
I7
sg274
I2
sg275
F1.0
sg263
g293
sg277
I2
sg278
F182.0236828327179
ssI74
(dp428
g8
F0.663780927658081
sg268
S'./stimfiles/faces/cropped_m10n1.png'
p429
sg270
F184.0
sg271
g300
sg273
I7
sg274
I2
sg275
F1.0
sg263
g276
sg277
I0
sg278
F184.02447605133057
ssI75
(dp430
g8
F0.6191909313201904
sg268
S'./stimfiles/faces/cropped_m-095-01.png'
p431
sg270
F186.0
sg271
g300
sg273
I7
sg274
I2
sg275
F1.0
sg263
g276
sg277
I3
sg278
F186.02531003952026
ssI76
(dp432
g8
F0.6541271209716797
sg268
S'./stimfiles/faces/cropped_836.png'
p433
sg270
F188.0
sg271
g300
sg273
I7
sg274
I2
sg275
F1.0
sg263
g276
sg277
I0
sg278
F188.02614283561707
ssI77
(dp434
g8
F0.7942709922790527
sg268
S'./stimfiles/faces/cropped_m-095-01.png'
p435
sg270
F190.0
sg271
g300
sg273
I7
sg274
I2
sg275
F1.0
sg263
g293
sg277
I2
sg278
F190.01030802726746
ssI78
(dp436
g8
F0.6313591003417969
sg268
S'./stimfiles/faces/cropped_f4028.png'
p437
sg270
F192.0
sg271
g300
sg273
I7
sg274
I2
sg275
F1.0
sg263
g276
sg277
I0
sg278
F192.01114082336426
ssI79
(dp438
g8
F0.6266648769378662
sg268
S'./stimfiles/faces/cropped_f-040-01.png'
p439
sg270
F194.0
sg271
g300
sg273
I7
sg274
I2
sg275
F1.0
sg263
g276
sg277
I0
sg278
F194.01194405555725
ssI80
(dp440
g8
F0.566990852355957
sg268
S'./stimfiles/chinese_characters/25844.jpg'
p441
sg270
F198.0
sg271
g272
sg273
I8
sg274
I1
sg275
F1.0
sg263
g276
sg277
I0
sg278
F198.01357102394104
ssI81
(dp442
g8
F0.5323019027709961
sg268
S'./stimfiles/chinese_characters/29899.jpg'
p443
sg270
F200.0
sg271
g272
sg273
I8
sg274
I1
sg275
F1.0
sg263
g276
sg277
I0
sg278
F200.01442503929138
ssI82
(dp444
g8
F0.5996308326721191
sg268
S'./stimfiles/chinese_characters/29899.jpg'
p445
sg270
F202.0
sg271
g272
sg273
I8
sg274
I1
sg275
F1.0
sg263
g293
sg277
I1
sg278
F202.01523303985596
ssI83
(dp446
g8
F0.5288059711456299
sg268
S'./stimfiles/chinese_characters/24783.jpg'
p447
sg270
F204.0
sg271
g272
sg273
I8
sg274
I1
sg275
F1.0
sg263
g276
sg277
I0
sg278
F204.0160129070282
ssI84
(dp448
g8
F0.5150182247161865
sg268
S'./stimfiles/chinese_characters/24783.jpg'
p449
sg270
F206.0
sg271
g272
sg273
I8
sg274
I1
sg275
F1.0
sg263
g293
sg277
I1
sg278
F206.01686882972717
ssI85
(dp450
g8
F0.518286943435669
sg268
S'./stimfiles/chinese_characters/24704.jpg'
p451
sg270
F208.0
sg271
g272
sg273
I8
sg274
I1
sg275
F1.0
sg263
g276
sg277
I0
sg278
F208.01769089698792
ssI86
(dp452
g8
F0.6345388889312744
sg268
S'./stimfiles/chinese_characters/24704.jpg'
p453
sg270
F210.0
sg271
g272
sg273
I8
sg274
I1
sg275
F1.0
sg263
g293
sg277
I1
sg278
F210.018492937088
ssI87
(dp454
g8
F0.6157979965209961
sg268
S'./stimfiles/chinese_characters/24783.jpg'
p455
sg270
F212.0
sg271
g272
sg273
I8
sg274
I1
sg275
F1.0
sg263
g276
sg277
I3
sg278
F212.01926398277283
ssI88
(dp456
g8
F0.5989089012145996
sg268
S'./stimfiles/chinese_characters/26361.jpg'
p457
sg270
F214.0
sg271
g272
sg273
I8
sg274
I1
sg275
F1.0
sg263
g276
sg277
I0
sg278
F214.02019095420837
ssI89
(dp458
g8
F0.5384030342102051
sg268
S'./stimfiles/chinese_characters/24783.jpg'
p459
sg270
F216.0
sg271
g272
sg273
I8
sg274
I1
sg275
F1.0
sg263
g276
sg277
I2
sg278
F216.02094793319702
ssI90
(dp460
g8
F0.6729309558868408
sg268
S'./stimfiles/scenes/1160.jpg'
p461
sg270
F220.0
sg271
g341
sg273
I9
sg274
I2
sg275
F1.0
sg263
g276
sg277
I0
sg278
F220.02265095710754
ssI91
(dp462
g8
F0.5386719703674316
sg268
S'./stimfiles/scenes/1584.jpg'
p463
sg270
F222.0
sg271
g341
sg273
I9
sg274
I2
sg275
F1.0
sg263
g276
sg277
I0
sg278
F222.00673699378967
ssI92
(dp464
g8
F0.5888631343841553
sg268
S'./stimfiles/scenes/71.jpg'
p465
sg270
F224.0
sg271
g341
sg273
I9
sg274
I2
sg275
F1.0
sg263
g293
sg277
I0
sg278
F224.00753784179688
ssI93
(dp466
g8
F0.563014030456543
sg268
S'./stimfiles/scenes/1073.jpg'
p467
sg270
F226.0
sg271
g341
sg273
I9
sg274
I2
sg275
F1.0
sg263
g276
sg277
I0
sg278
F226.00844192504883
ssI94
(dp468
g8
F0.6783678531646729
sg268
S'./stimfiles/scenes/87.jpg'
p469
sg270
F228.0
sg271
g341
sg273
I9
sg274
I2
sg275
F1.0
sg263
g276
sg277
I0
sg278
F228.00919604301453
ssI95
(dp470
g268
S'./stimfiles/scenes/1073.jpg'
p471
sg270
F230.0
sg271
g341
sg273
I9
sg274
I2
sg275
F1.0
sg277
I2
sg278
F230.00999784469604
ssI96
(dp472
g8
F0.73679518699646
sg268
S'./stimfiles/scenes/1188.jpg'
p473
sg270
F232.0
sg271
g341
sg273
I9
sg274
I2
sg275
F1.0
sg263
g276
sg277
I0
sg278
F232.0108368396759
ssI97
(dp474
g8
F0.4960520267486572
sg268
S'./stimfiles/scenes/1073.jpg'
p475
sg270
F234.0
sg271
g341
sg273
I9
sg274
I2
sg275
F1.0
sg263
g293
sg277
I2
sg278
F234.01164984703064
ssI98
(dp476
g8
F0.7232258319854736
sg268
S'./stimfiles/scenes/1453.jpg'
p477
sg270
F236.0
sg271
g341
sg273
I9
sg274
I2
sg275
F1.0
sg263
g276
sg277
I0
sg278
F236.0124909877777
ssI99
(dp478
g8
F0.60453200340271
sg268
S'./stimfiles/scenes/1188.jpg'
p479
sg270
F238.0
sg271
g341
sg273
I9
sg274
I2
sg275
F1.0
sg263
g276
sg277
I3
sg278
F238.013365983963
ssI100
(dp480
g8
F0.42493700981140137
sg268
S'./stimfiles/scenes/343.jpg'
p481
sg270
F242.0
sg271
g341
sg273
I10
sg274
I1
sg275
F1.0
sg263
g276
sg277
I0
sg278
F242.01504397392273
ssI101
(dp482
g8
F0.5241270065307617
sg268
S'./stimfiles/scenes/20.jpg'
p483
sg270
F244.0
sg271
g341
sg273
I10
sg274
I1
sg275
F1.0
sg263
g276
sg277
I0
sg278
F244.01584386825562
ssI102
(dp484
g8
F0.465346097946167
sg268
S'./stimfiles/scenes/1669.jpg'
p485
sg270
F246.0
sg271
g341
sg273
I10
sg274
I1
sg275
F1.0
sg263
g276
sg277
I0
sg278
F246.01665687561035
ssI103
(dp486
g8
F0.6085948944091797
sg268
S'./stimfiles/scenes/235.jpg'
p487
sg270
F248.0
sg271
g341
sg273
I10
sg274
I1
sg275
F1.0
sg263
g276
sg277
I0
sg278
F248.0174720287323
ssI104
(dp488
g8
F0.7099928855895996
sg268
S'./stimfiles/scenes/235.jpg'
p489
sg270
F250.0
sg271
g341
sg273
I10
sg274
I1
sg275
F1.0
sg263
g293
sg277
I1
sg278
F250.01830101013184
ssI105
(dp490
g8
F0.56119704246521
sg268
S'./stimfiles/scenes/1669.jpg'
p491
sg270
F252.0
sg271
g341
sg273
I10
sg274
I1
sg275
F1.0
sg263
g276
sg277
I3
sg278
F252.01905989646912
ssI106
(dp492
g8
F0.49831509590148926
sg268
S'./stimfiles/scenes/1772.jpg'
p493
sg270
F254.0
sg271
g341
sg273
I10
sg274
I1
sg275
F1.0
sg263
g276
sg277
I0
sg278
F254.01996994018555
ssI107
(dp494
g8
F0.4536290168762207
sg268
S'./stimfiles/scenes/1669.jpg'
p495
sg270
F256.0
sg271
g341
sg273
I10
sg274
I1
sg275
F1.0
sg263
g276
sg277
I2
sg278
F256.0206940174103
ssI108
(dp496
g8
F0.8707640171051025
sg268
S'./stimfiles/scenes/1669.jpg'
p497
sg270
F258.0
sg271
g341
sg273
I10
sg274
I1
sg275
F1.0
sg263
g293
sg277
I1
sg278
F258.02160000801086
ssI109
(dp498
g8
F0.7200171947479248
sg268
S'./stimfiles/scenes/1669.jpg'
p499
sg270
F260.0
sg271
g341
sg273
I10
sg274
I1
sg275
F1.0
sg263
g293
sg277
I1
sg278
F260.0224118232727
ssI110
(dp500
g8
F0.834540843963623
sg268
S'./stimfiles/faces/cropped_f-014-01.png'
p501
sg270
F264.0
sg271
g300
sg273
I11
sg274
I1
sg275
F1.0
sg263
g276
sg277
I0
sg278
F264.0240089893341
ssI111
(dp502
g8
F0.6206700801849365
sg268
S'./stimfiles/faces/cropped_lynn1.png'
p503
sg270
F266.0
sg271
g300
sg273
I11
sg274
I1
sg275
F1.0
sg263
g276
sg277
I0
sg278
F266.0248808860779
ssI112
(dp504
g8
F0.5549931526184082
sg268
S'./stimfiles/faces/cropped_846.png'
p505
sg270
F268.0
sg271
g300
sg273
I11
sg274
I1
sg275
F1.0
sg263
g276
sg277
I0
sg278
F268.0256898403168
ssI113
(dp506
g8
F0.530163049697876
sg268
S'./stimfiles/faces/cropped_846.png'
p507
sg270
F270.0
sg271
g300
sg273
I11
sg274
I1
sg275
F1.0
sg263
g293
sg277
I1
sg278
F270.02653193473816
ssI114
(dp508
g8
F0.6721529960632324
sg268
S'./stimfiles/faces/cropped_36.png'
p509
sg270
F272.0
sg271
g300
sg273
I11
sg274
I1
sg275
F1.0
sg263
g276
sg277
I0
sg278
F272.01063084602356
ssI115
(dp510
g8
F0.6714539527893066
sg268
S'./stimfiles/faces/cropped_846.png'
p511
sg270
F274.0
sg271
g300
sg273
I11
sg274
I1
sg275
F1.0
sg263
g293
sg277
I2
sg278
F274.01148295402527
ssI116
(dp512
g8
F0.646589994430542
sg268
S'./stimfiles/faces/cropped_marie1.png'
p513
sg270
F276.0
sg271
g300
sg273
I11
sg274
I1
sg275
F1.0
sg263
g276
sg277
I0
sg278
F276.0123059749603
ssI117
(dp514
g8
F0.5256881713867188
sg268
S'./stimfiles/faces/cropped_885.png'
p515
sg270
F278.0
sg271
g300
sg273
I11
sg274
I1
sg275
F1.0
sg263
g276
sg277
I0
sg278
F278.0131368637085
ssI118
(dp516
g8
F0.7810759544372559
sg268
S'./stimfiles/faces/cropped_f9n2b.png'
p517
sg270
F280.0
sg271
g300
sg273
I11
sg274
I1
sg275
F1.0
sg263
g276
sg277
I0
sg278
F280.01394391059875
ssI119
(dp518
g8
F0.5142679214477539
sg268
S'./stimfiles/faces/cropped_885.png'
p519
sg270
F282.0
sg271
g300
sg273
I11
sg274
I1
sg275
F1.0
sg263
g276
sg277
I2
sg278
F282.0147819519043
ssI120
(dp520
g8
F0.488116979598999
sg268
S'./stimfiles/chinese_characters/35335.jpg'
p521
sg270
F306.0
sg271
g272
sg273
I12
sg274
I2
sg275
F1.0
sg263
g276
sg277
I0
sg278
F306.02464604377747
ssI121
(dp522
g8
F0.7233560085296631
sg268
S'./stimfiles/chinese_characters/35335.jpg'
p523
sg270
F308.0
sg271
g272
sg273
I12
sg274
I2
sg275
F1.0
sg263
g293
sg277
I1
sg278
F308.0254418849945
ssI122
(dp524
g8
F0.6867790222167969
sg268
S'./stimfiles/chinese_characters/24969.jpg'
p525
sg270
F310.0
sg271
g272
sg273
I12
sg274
I2
sg275
F1.0
sg263
g276
sg277
I0
sg278
F310.02621603012085
ssI123
(dp526
g268
S'./stimfiles/chinese_characters/35335.jpg'
p527
sg270
F312.0
sg271
g272
sg273
I12
sg274
I2
sg275
F1.0
sg277
I3
sg278
F312.0271019935608
ssI124
(dp528
g8
F0.8647279739379883
sg268
S'./stimfiles/chinese_characters/24969.jpg'
p529
sg270
F314.0
sg271
g272
sg273
I12
sg274
I2
sg275
F1.0
sg263
g293
sg277
I2
sg278
F314.01125288009644
ssI125
(dp530
g8
F0.7519729137420654
sg268
S'./stimfiles/chinese_characters/35335.jpg'
p531
sg270
F316.0
sg271
g272
sg273
I12
sg274
I2
sg275
F1.0
sg263
g276
sg277
I2
sg278
F316.0120370388031
ssI126
(dp532
g8
F0.7871930599212646
sg268
S'./stimfiles/chinese_characters/25497.jpg'
p533
sg270
F318.0
sg271
g272
sg273
I12
sg274
I2
sg275
F1.0
sg263
g276
sg277
I0
sg278
F318.01291489601135
ssI127
(dp534
g8
F0.6164300441741943
sg268
S'./stimfiles/chinese_characters/32081.jpg'
p535
sg270
F320.0
sg271
g272
sg273
I12
sg274
I2
sg275
F1.0
sg263
g276
sg277
I0
sg278
F320.0137629508972
ssI128
(dp536
g8
F0.8536489009857178
sg268
S'./stimfiles/chinese_characters/24819.jpg'
p537
sg270
F322.0
sg271
g272
sg273
I12
sg274
I2
sg275
F1.0
sg263
g276
sg277
I0
sg278
F322.0145299434662
ssI129
(dp538
g8
F0.7210772037506104
sg268
S'./stimfiles/chinese_characters/25497.jpg'
p539
sg270
F324.0
sg271
g272
sg273
I12
sg274
I2
sg275
F1.0
sg263
g293
sg277
I3
sg278
F324.01539182662964
ssI130
(dp540
g8
F0.4932410717010498
sg268
S'./stimfiles/faces/cropped_28a.png'
p541
sg270
F328.0
sg271
g300
sg273
I13
sg274
I2
sg275
F1.0
sg263
g276
sg277
I0
sg278
F328.017009973526
ssI131
(dp542
g8
F0.7605569362640381
sg268
S'./stimfiles/faces/cropped_130.png'
p543
sg270
F330.0
sg271
g300
sg273
I13
sg274
I2
sg275
F1.0
sg263
g276
sg277
I0
sg278
F330.017865896225
ssI132
(dp544
g8
F0.7228329181671143
sg268
S'./stimfiles/faces/cropped_130.png'
p545
sg270
F332.0
sg271
g300
sg273
I13
sg274
I2
sg275
F1.0
sg263
g276
sg277
I1
sg278
F332.0186629295349
ssI133
(dp546
g8
F0.7601680755615234
sg268
S'./stimfiles/faces/cropped_527.png'
p547
sg270
F334.0
sg271
g300
sg273
I13
sg274
I2
sg275
F1.0
sg263
g276
sg277
I0
sg278
F334.0194458961487
ssI134
(dp548
g8
F0.6803450584411621
sg268
S'./stimfiles/faces/cropped_184.png'
p549
sg270
F336.0
sg271
g300
sg273
I13
sg274
I2
sg275
F1.0
sg263
g293
sg277
I0
sg278
F336.0203368663788
ssI135
(dp550
g8
F0.9515318870544434
sg268
S'./stimfiles/faces/cropped_527.png'
p551
sg270
F338.0
sg271
g300
sg273
I13
sg274
I2
sg275
F1.0
sg263
g293
sg277
I2
sg278
F338.0211009979248
ssI136
(dp552
g8
F0.9210000038146973
sg268
S'./stimfiles/faces/cropped_184.png'
p553
sg270
F340.0
sg271
g300
sg273
I13
sg274
I2
sg275
F1.0
sg263
g293
sg277
I2
sg278
F340.0218930244446
ssI137
(dp554
g268
S'./stimfiles/faces/cropped_527.png'
p555
sg270
F342.0
sg271
g300
sg273
I13
sg274
I2
sg275
F1.0
sg277
I2
sg278
F342.02275800704956
ssI138
(dp556
g8
F0.8940658569335938
sg268
S'./stimfiles/faces/cropped_527.png'
p557
sg270
F344.0
sg271
g300
sg273
I13
sg274
I2
sg275
F1.0
sg263
g276
sg277
I1
sg278
F344.02357602119446
ssI139
(dp558
g8
F0.5815119743347168
sg268
S'./stimfiles/faces/cropped_m-070-01.png'
p559
sg270
F346.0
sg271
g300
sg273
I13
sg274
I2
sg275
F1.0
sg263
g276
sg277
I0
sg278
F346.02444291114807
ssI140
(dp560
g8
F0.6198821067810059
sg268
S'./stimfiles/chinese_characters/31434.jpg'
p561
sg270
F350.0
sg271
g272
sg273
I14
sg274
I1
sg275
F1.0
sg263
g276
sg277
I0
sg278
F350.0260899066925
ssI141
(dp562
g8
F0.5421180725097656
sg268
S'./stimfiles/chinese_characters/32019.jpg'
p563
sg270
F352.0
sg271
g272
sg273
I14
sg274
I1
sg275
F1.0
sg263
g276
sg277
I0
sg278
F352.0269138813019
ssI142
(dp564
g8
F0.6594090461730957
sg268
S'./stimfiles/chinese_characters/26017.jpg'
p565
sg270
F354.0
sg271
g272
sg273
I14
sg274
I1
sg275
F1.0
sg263
g276
sg277
I0
sg278
F354.0277419090271
ssI143
(dp566
g8
F0.5672860145568848
sg268
S'./stimfiles/chinese_characters/32019.jpg'
p567
sg270
F356.0
sg271
g272
sg273
I14
sg274
I1
sg275
F1.0
sg263
g276
sg277
I2
sg278
F356.0118570327759
ssI144
(dp568
g8
F0.5924689769744873
sg268
S'./stimfiles/chinese_characters/32019.jpg'
p569
sg270
F358.0
sg271
g272
sg273
I14
sg274
I1
sg275
F1.0
sg263
g293
sg277
I1
sg278
F358.01274704933167
ssI145
(dp570
g8
F0.8656949996948242
sg268
S'./stimfiles/chinese_characters/35611.jpg'
p571
sg270
F360.0
sg271
g272
sg273
I14
sg274
I1
sg275
F1.0
sg263
g276
sg277
I0
sg278
F360.01351594924927
ssI146
(dp572
g8
F0.6720821857452393
sg268
S'./stimfiles/chinese_characters/35611.jpg'
p573
sg270
F362.0
sg271
g272
sg273
I14
sg274
I1
sg275
F1.0
sg263
g293
sg277
I1
sg278
F362.01435685157776
ssI147
(dp574
g8
F0.5432348251342773
sg268
S'./stimfiles/chinese_characters/32019.jpg'
p575
sg270
F364.0
sg271
g272
sg273
I14
sg274
I1
sg275
F1.0
sg263
g276
sg277
I3
sg278
F364.01517605781555
ssI148
(dp576
g8
F0.886462926864624
sg268
S'./stimfiles/chinese_characters/24659.jpg'
p577
sg270
F366.0
sg271
g272
sg273
I14
sg274
I1
sg275
F1.0
sg263
g276
sg277
I0
sg278
F366.0160050392151
ssI149
(dp578
g8
F0.6287550926208496
sg268
S'./stimfiles/chinese_characters/25490.jpg'
p579
sg270
F368.0
sg271
g272
sg273
I14
sg274
I1
sg275
F1.0
sg263
g276
sg277
I0
sg278
F368.01682591438293
ssI150
(dp580
g8
F0.4931058883666992
sg268
S'./stimfiles/scenes/1675.jpg'
p581
sg270
F372.0
sg271
g341
sg273
I15
sg274
I2
sg275
F1.0
sg263
g276
sg277
I0
sg278
F372.0184099674225
ssI151
(dp582
g8
F0.6764318943023682
sg268
S'./stimfiles/scenes/1641.jpg'
p583
sg270
F374.0
sg271
g341
sg273
I15
sg274
I2
sg275
F1.0
sg263
g276
sg277
I0
sg278
F374.0192699432373
ssI152
(dp584
g8
F0.6557579040527344
sg268
S'./stimfiles/scenes/813.jpg'
p585
sg270
F376.0
sg271
g341
sg273
I15
sg274
I2
sg275
F1.0
sg263
g276
sg277
I0
sg278
F376.02004194259644
ssI153
(dp586
g268
S'./stimfiles/scenes/1675.jpg'
p587
sg270
F378.0
sg271
g341
sg273
I15
sg274
I2
sg275
F1.0
sg277
I3
sg278
F378.02091002464294
ssI154
(dp588
g8
F0.6382021903991699
sg268
S'./stimfiles/scenes/1549.jpg'
p589
sg270
F380.0
sg271
g341
sg273
I15
sg274
I2
sg275
F1.0
sg263
g276
sg277
I0
sg278
F380.0216598510742
ssI155
(dp590
g8
F0.49233007431030273
sg268
S'./stimfiles/scenes/1675.jpg'
p591
sg270
F382.0
sg271
g341
sg273
I15
sg274
I2
sg275
F1.0
sg263
g293
sg277
I2
sg278
F382.0225269794464
ssI156
(dp592
g8
F0.8623199462890625
sg268
S'./stimfiles/scenes/1675.jpg'
p593
sg270
F384.0
sg271
g341
sg273
I15
sg274
I2
sg275
F1.0
sg263
g276
sg277
I1
sg278
F384.00667905807495
ssI157
(dp594
g8
F0.5744431018829346
sg268
S'./stimfiles/scenes/1675.jpg'
p595
sg270
F386.0
sg271
g341
sg273
I15
sg274
I2
sg275
F1.0
sg263
g293
sg277
I1
sg278
F386.00755882263184
ssI158
(dp596
g8
F0.7997708320617676
sg268
S'./stimfiles/scenes/453.jpg'
p597
sg270
F388.0
sg271
g341
sg273
I15
sg274
I2
sg275
F1.0
sg263
g276
sg277
I0
sg278
F388.008358001709
ssI159
(dp598
g8
F0.5869300365447998
sg268
S'./stimfiles/scenes/1675.jpg'
p599
sg270
F390.0
sg271
g341
sg273
I15
sg274
I2
sg275
F1.0
sg263
g293
sg277
I2
sg278
F390.00921392440796
ssI160
(dp600
g8
F0.6214239597320557
sg268
S'./stimfiles/scenes/1025.jpg'
p601
sg270
F394.0
sg271
g341
sg273
I16
sg274
I1
sg275
F1.0
sg263
g276
sg277
I0
sg278
F394.0109028816223
ssI161
(dp602
g8
F0.548842191696167
sg268
S'./stimfiles/scenes/1025.jpg'
p603
sg270
F396.0
sg271
g341
sg273
I16
sg274
I1
sg275
F1.0
sg263
g293
sg277
I1
sg278
F396.01160883903503
ssI162
(dp604
g8
F0.48598217964172363
sg268
S'./stimfiles/scenes/215.jpg'
p605
sg270
F398.0
sg271
g341
sg273
I16
sg274
I1
sg275
F1.0
sg263
g276
sg277
I0
sg278
F398.0124628543854
ssI163
(dp606
g8
F0.6091351509094238
sg268
S'./stimfiles/scenes/1025.jpg'
p607
sg270
F400.0
sg271
g341
sg273
I16
sg274
I1
sg275
F1.0
sg263
g276
sg277
I3
sg278
F400.01326990127563
ssI164
(dp608
g8
F0.6103978157043457
sg268
S'./stimfiles/scenes/1412.jpg'
p609
sg270
F402.0
sg271
g341
sg273
I16
sg274
I1
sg275
F1.0
sg263
g276
sg277
I0
sg278
F402.0141010284424
ssI165
(dp610
g8
F0.7156879901885986
sg268
S'./stimfiles/scenes/1412.jpg'
p611
sg270
F404.0
sg271
g341
sg273
I16
sg274
I1
sg275
F1.0
sg263
g293
sg277
I1
sg278
F404.01494002342224
ssI166
(dp612
g8
F0.5460340976715088
sg268
S'./stimfiles/scenes/1128.jpg'
p613
sg270
F406.0
sg271
g341
sg273
I16
sg274
I1
sg275
F1.0
sg263
g276
sg277
I0
sg278
F406.01573395729065
ssI167
(dp614
g8
F0.5800011157989502
sg268
S'./stimfiles/scenes/1509.jpg'
p615
sg270
F408.0
sg271
g341
sg273
I16
sg274
I1
sg275
F1.0
sg263
g276
sg277
I0
sg278
F408.01661682128906
ssI168
(dp616
g8
F0.744408130645752
sg268
S'./stimfiles/scenes/1509.jpg'
p617
sg270
F410.0
sg271
g341
sg273
I16
sg274
I1
sg275
F1.0
sg263
g293
sg277
I1
sg278
F410.01736187934875
ssI169
(dp618
g8
F0.6465928554534912
sg268
S'./stimfiles/scenes/4.jpg'
p619
sg270
F412.0
sg271
g341
sg273
I16
sg274
I1
sg275
F1.0
sg263
g276
sg277
I0
sg278
F412.01817297935486
ssI170
(dp620
g8
F0.5550529956817627
sg268
S'./stimfiles/faces/cropped_211.png'
p621
sg270
F416.0
sg271
g300
sg273
I17
sg274
I1
sg275
F1.0
sg263
g276
sg277
I0
sg278
F416.019907951355
ssI171
(dp622
g8
F0.6261742115020752
sg268
S'./stimfiles/faces/cropped_1007.png'
p623
sg270
F418.0
sg271
g300
sg273
I17
sg274
I1
sg275
F1.0
sg263
g276
sg277
I0
sg278
F418.0206308364868
ssI172
(dp624
g8
F0.6456239223480225
sg268
S'./stimfiles/faces/cropped_774.png'
p625
sg270
F420.0
sg271
g300
sg273
I17
sg274
I1
sg275
F1.0
sg263
g276
sg277
I0
sg278
F420.0214970111847
ssI173
(dp626
g8
F0.5168139934539795
sg268
S'./stimfiles/faces/cropped_211.png'
p627
sg270
F422.0
sg271
g300
sg273
I17
sg274
I1
sg275
F1.0
sg263
g276
sg277
I3
sg278
F422.0222978591919
ssI174
(dp628
g8
F0.6009740829467773
sg268
S'./stimfiles/faces/cropped_211.png'
p629
sg270
F424.0
sg271
g300
sg273
I17
sg274
I1
sg275
F1.0
sg263
g293
sg277
I1
sg278
F424.02311182022095
ssI175
(dp630
g8
F0.7962439060211182
sg268
S'./stimfiles/faces/cropped_774.png'
p631
sg270
F426.0
sg271
g300
sg273
I17
sg274
I1
sg275
F1.0
sg263
g276
sg277
I3
sg278
F426.02398204803467
ssI176
(dp632
g8
F0.8365199565887451
sg268
S'./stimfiles/faces/cropped_204.png'
p633
sg270
F428.0
sg271
g300
sg273
I17
sg274
I1
sg275
F1.0
sg263
g276
sg277
I0
sg278
F428.02478790283203
ssI177
(dp634
g8
F0.572767972946167
sg268
S'./stimfiles/faces/cropped_204.png'
p635
sg270
F430.0
sg271
g300
sg273
I17
sg274
I1
sg275
F1.0
sg263
g293
sg277
I1
sg278
F430.0256018638611
ssI178
(dp636
g8
F0.6398839950561523
sg268
S'./stimfiles/faces/cropped_f-016-01.png'
p637
sg270
F432.0
sg271
g300
sg273
I17
sg274
I1
sg275
F1.0
sg263
g276
sg277
I0
sg278
F432.0264148712158
ssI179
(dp638
g8
F0.6761951446533203
sg268
S'./stimfiles/faces/cropped_711.png'
p639
sg270
F434.0
sg271
g300
sg273
I17
sg274
I1
sg275
F1.0
sg263
g276
sg277
I0
sg278
F434.02725887298584
sssS'stim_log'
p640
(dp641
sS'nstims'
p642
I5
sS'inter_stim_int'
p643
F1.0
sS'SS'
p644
(dp645
sS'inst_time'
p646
F1.0
sS'broke_on_trial'
p647
(dp648
sS'events'
p649
(lp650
(lp651
F0.0
aI0
aI2
aI0
aS'inst'
p652
aa(lp653
F2.0
aI0
aI2
aI0
ag269
aa(lp654
F4.0
aI0
aI2
aI0
ag280
aa(lp655
F6.0
aI0
aI2
aI0
ag282
aa(lp656
F8.0
aI0
aI2
aI0
ag284
aa(lp657
F10.0
aI0
aI2
aI0
ag286
aa(lp658
F12.0
aI0
aI2
aI0
ag288
aa(lp659
F14.0
aI0
aI2
aI0
ag290
aa(lp660
F16.0
aI0
aI2
aI2
ag292
aa(lp661
F18.0
aI0
aI2
aI2
ag295
aa(lp662
F20.0
aI0
aI2
aI2
ag297
aa(lp663
F22.0
aI1
aI2
aI0
aS'inst'
p664
aa(lp665
F24.0
aI1
aI2
aI0
ag299
aa(lp666
F26.0
aI1
aI2
aI0
ag302
aa(lp667
F28.0
aI1
aI2
aI0
ag304
aa(lp668
F30.0
aI1
aI2
aI3
ag306
aa(lp669
F32.0
aI1
aI2
aI1
ag308
aa(lp670
F34.0
aI1
aI2
aI0
ag310
aa(lp671
F36.0
aI1
aI2
aI2
ag312
aa(lp672
F38.0
aI1
aI2
aI0
ag314
aa(lp673
F40.0
aI1
aI2
aI3
ag316
aa(lp674
F42.0
aI1
aI2
aI0
ag318
aa(lp675
F44.0
aI2
aI1
aI0
aS'inst'
p676
aa(lp677
F46.0
aI2
aI1
aI0
ag320
aa(lp678
F48.0
aI2
aI1
aI0
ag322
aa(lp679
F50.0
aI2
aI1
aI0
ag324
aa(lp680
F52.0
aI2
aI1
aI0
ag326
aa(lp681
F54.0
aI2
aI1
aI0
ag328
aa(lp682
F56.0
aI2
aI1
aI2
ag330
aa(lp683
F58.0
aI2
aI1
aI0
ag332
aa(lp684
F60.0
aI2
aI1
aI0
ag334
aa(lp685
F62.0
aI2
aI1
aI3
ag336
aa(lp686
F64.0
aI2
aI1
aI1
ag338
aa(lp687
F66.0
aI3
aI2
aI0
aS'inst'
p688
aa(lp689
F68.0
aI3
aI2
aI0
ag340
aa(lp690
F70.0
aI3
aI2
aI0
ag343
aa(lp691
F72.0
aI3
aI2
aI0
ag345
aa(lp692
F74.0
aI3
aI2
aI1
ag347
aa(lp693
F76.0
aI3
aI2
aI0
ag349
aa(lp694
F78.0
aI3
aI2
aI0
ag351
aa(lp695
F80.0
aI3
aI2
aI3
ag353
aa(lp696
F82.0
aI3
aI2
aI0
ag355
aa(lp697
F84.0
aI3
aI2
aI2
ag357
aa(lp698
F86.0
aI3
aI2
aI2
ag359
aa(lp699
F88.0
aI4
aI1
aI0
aS'inst'
p700
aa(lp701
F90.0
aI4
aI1
aI0
ag361
aa(lp702
F92.0
aI4
aI1
aI0
ag363
aa(lp703
F94.0
aI4
aI1
aI0
ag365
aa(lp704
F96.0
aI4
aI1
aI3
ag367
aa(lp705
F98.0
aI4
aI1
aI0
ag369
aa(lp706
F100.0
aI4
aI1
aI2
ag371
aa(lp707
F102.0
aI4
aI1
aI0
ag373
aa(lp708
F104.0
aI4
aI1
aI0
ag375
aa(lp709
F106.0
aI4
aI1
aI2
ag377
aa(lp710
F108.0
aI4
aI1
aI0
ag379
aa(lp711
F110.0
aI5
aI1
aI0
aS'inst'
p712
aa(lp713
F112.0
aI5
aI1
aI0
ag381
aa(lp714
F114.0
aI5
aI1
aI0
ag383
aa(lp715
F116.0
aI5
aI1
aI0
ag385
aa(lp716
F118.0
aI5
aI1
aI1
ag387
aa(lp717
F120.0
aI5
aI1
aI1
ag389
aa(lp718
F122.0
aI5
aI1
aI1
ag391
aa(lp719
F124.0
aI5
aI1
aI0
ag393
aa(lp720
F126.0
aI5
aI1
aI3
ag395
aa(lp721
F128.0
aI5
aI1
aI0
ag397
aa(lp722
F130.0
aI5
aI1
aI2
ag399
aa(lp723
F152.0
aI0
aI2
aI0
aS'inst'
p724
aa(lp725
F154.0
aI6
aI2
aI0
ag401
aa(lp726
F156.0
aI6
aI2
aI0
ag403
aa(lp727
F158.0
aI6
aI2
aI2
ag405
aa(lp728
F160.0
aI6
aI2
aI0
ag407
aa(lp729
F162.0
aI6
aI2
aI0
ag409
aa(lp730
F164.0
aI6
aI2
aI3
ag411
aa(lp731
F166.0
aI6
aI2
aI1
ag413
aa(lp732
F168.0
aI6
aI2
aI1
ag415
aa(lp733
F170.0
aI6
aI2
aI0
ag417
aa(lp734
F172.0
aI6
aI2
aI0
ag419
aa(lp735
F174.0
aI1
aI2
aI0
aS'inst'
p736
aa(lp737
F176.0
aI7
aI2
aI0
ag421
aa(lp738
F178.0
aI7
aI2
aI0
ag423
aa(lp739
F180.0
aI7
aI2
aI0
ag425
aa(lp740
F182.0
aI7
aI2
aI2
ag427
aa(lp741
F184.0
aI7
aI2
aI0
ag429
aa(lp742
F186.0
aI7
aI2
aI3
ag431
aa(lp743
F188.0
aI7
aI2
aI0
ag433
aa(lp744
F190.0
aI7
aI2
aI2
ag435
aa(lp745
F192.0
aI7
aI2
aI0
ag437
aa(lp746
F194.0
aI7
aI2
aI0
ag439
aa(lp747
F196.0
aI2
aI1
aI0
aS'inst'
p748
aa(lp749
F198.0
aI8
aI1
aI0
ag441
aa(lp750
F200.0
aI8
aI1
aI0
ag443
aa(lp751
F202.0
aI8
aI1
aI1
ag445
aa(lp752
F204.0
aI8
aI1
aI0
ag447
aa(lp753
F206.0
aI8
aI1
aI1
ag449
aa(lp754
F208.0
aI8
aI1
aI0
ag451
aa(lp755
F210.0
aI8
aI1
aI1
ag453
aa(lp756
F212.0
aI8
aI1
aI3
ag455
aa(lp757
F214.0
aI8
aI1
aI0
ag457
aa(lp758
F216.0
aI8
aI1
aI2
ag459
aa(lp759
F218.0
aI3
aI2
aI0
aS'inst'
p760
aa(lp761
F220.0
aI9
aI2
aI0
ag461
aa(lp762
F222.0
aI9
aI2
aI0
ag463
aa(lp763
F224.0
aI9
aI2
aI0
ag465
aa(lp764
F226.0
aI9
aI2
aI0
ag467
aa(lp765
F228.0
aI9
aI2
aI0
ag469
aa(lp766
F230.0
aI9
aI2
aI2
ag471
aa(lp767
F232.0
aI9
aI2
aI0
ag473
aa(lp768
F234.0
aI9
aI2
aI2
ag475
aa(lp769
F236.0
aI9
aI2
aI0
ag477
aa(lp770
F238.0
aI9
aI2
aI3
ag479
aa(lp771
F240.0
aI4
aI1
aI0
aS'inst'
p772
aa(lp773
F242.0
aI10
aI1
aI0
ag481
aa(lp774
F244.0
aI10
aI1
aI0
ag483
aa(lp775
F246.0
aI10
aI1
aI0
ag485
aa(lp776
F248.0
aI10
aI1
aI0
ag487
aa(lp777
F250.0
aI10
aI1
aI1
ag489
aa(lp778
F252.0
aI10
aI1
aI3
ag491
aa(lp779
F254.0
aI10
aI1
aI0
ag493
aa(lp780
F256.0
aI10
aI1
aI2
ag495
aa(lp781
F258.0
aI10
aI1
aI1
ag497
aa(lp782
F260.0
aI10
aI1
aI1
ag499
aa(lp783
F262.0
aI5
aI1
aI0
aS'inst'
p784
aa(lp785
F264.0
aI11
aI1
aI0
ag501
aa(lp786
F266.0
aI11
aI1
aI0
ag503
aa(lp787
F268.0
aI11
aI1
aI0
ag505
aa(lp788
F270.0
aI11
aI1
aI1
ag507
aa(lp789
F272.0
aI11
aI1
aI0
ag509
aa(lp790
F274.0
aI11
aI1
aI2
ag511
aa(lp791
F276.0
aI11
aI1
aI0
ag513
aa(lp792
F278.0
aI11
aI1
aI0
ag515
aa(lp793
F280.0
aI11
aI1
aI0
ag517
aa(lp794
F282.0
aI11
aI1
aI2
ag519
aa(lp795
F304.0
aI0
aI2
aI0
aS'inst'
p796
aa(lp797
F306.0
aI12
aI2
aI0
ag521
aa(lp798
F308.0
aI12
aI2
aI1
ag523
aa(lp799
F310.0
aI12
aI2
aI0
ag525
aa(lp800
F312.0
aI12
aI2
aI3
ag527
aa(lp801
F314.0
aI12
aI2
aI2
ag529
aa(lp802
F316.0
aI12
aI2
aI2
ag531
aa(lp803
F318.0
aI12
aI2
aI0
ag533
aa(lp804
F320.0
aI12
aI2
aI0
ag535
aa(lp805
F322.0
aI12
aI2
aI0
ag537
aa(lp806
F324.0
aI12
aI2
aI3
ag539
aa(lp807
F326.0
aI1
aI2
aI0
aS'inst'
p808
aa(lp809
F328.0
aI13
aI2
aI0
ag541
aa(lp810
F330.0
aI13
aI2
aI0
ag543
aa(lp811
F332.0
aI13
aI2
aI1
ag545
aa(lp812
F334.0
aI13
aI2
aI0
ag547
aa(lp813
F336.0
aI13
aI2
aI0
ag549
aa(lp814
F338.0
aI13
aI2
aI2
ag551
aa(lp815
F340.0
aI13
aI2
aI2
ag553
aa(lp816
F342.0
aI13
aI2
aI2
ag555
aa(lp817
F344.0
aI13
aI2
aI1
ag557
aa(lp818
F346.0
aI13
aI2
aI0
ag559
aa(lp819
F348.0
aI2
aI1
aI0
aS'inst'
p820
aa(lp821
F350.0
aI14
aI1
aI0
ag561
aa(lp822
F352.0
aI14
aI1
aI0
ag563
aa(lp823
F354.0
aI14
aI1
aI0
ag565
aa(lp824
F356.0
aI14
aI1
aI2
ag567
aa(lp825
F358.0
aI14
aI1
aI1
ag569
aa(lp826
F360.0
aI14
aI1
aI0
ag571
aa(lp827
F362.0
aI14
aI1
aI1
ag573
aa(lp828
F364.0
aI14
aI1
aI3
ag575
aa(lp829
F366.0
aI14
aI1
aI0
ag577
aa(lp830
F368.0
aI14
aI1
aI0
ag579
aa(lp831
F370.0
aI3
aI2
aI0
aS'inst'
p832
aa(lp833
F372.0
aI15
aI2
aI0
ag581
aa(lp834
F374.0
aI15
aI2
aI0
ag583
aa(lp835
F376.0
aI15
aI2
aI0
ag585
aa(lp836
F378.0
aI15
aI2
aI3
ag587
aa(lp837
F380.0
aI15
aI2
aI0
ag589
aa(lp838
F382.0
aI15
aI2
aI2
ag591
aa(lp839
F384.0
aI15
aI2
aI1
ag593
aa(lp840
F386.0
aI15
aI2
aI1
ag595
aa(lp841
F388.0
aI15
aI2
aI0
ag597
aa(lp842
F390.0
aI15
aI2
aI2
ag599
aa(lp843
F392.0
aI4
aI1
aI0
aS'inst'
p844
aa(lp845
F394.0
aI16
aI1
aI0
ag601
aa(lp846
F396.0
aI16
aI1
aI1
ag603
aa(lp847
F398.0
aI16
aI1
aI0
ag605
aa(lp848
F400.0
aI16
aI1
aI3
ag607
aa(lp849
F402.0
aI16
aI1
aI0
ag609
aa(lp850
F404.0
aI16
aI1
aI1
ag611
aa(lp851
F406.0
aI16
aI1
aI0
ag613
aa(lp852
F408.0
aI16
aI1
aI0
ag615
aa(lp853
F410.0
aI16
aI1
aI1
ag617
aa(lp854
F412.0
aI16
aI1
aI0
ag619
aa(lp855
F414.0
aI5
aI1
aI0
aS'inst'
p856
aa(lp857
F416.0
aI17
aI1
aI0
ag621
aa(lp858
F418.0
aI17
aI1
aI0
ag623
aa(lp859
F420.0
aI17
aI1
aI0
ag625
aa(lp860
F422.0
aI17
aI1
aI3
ag627
aa(lp861
F424.0
aI17
aI1
aI1
ag629
aa(lp862
F426.0
aI17
aI1
aI3
ag631
aa(lp863
F428.0
aI17
aI1
aI0
ag633
aa(lp864
F430.0
aI17
aI1
aI1
ag635
aa(lp865
F432.0
aI17
aI1
aI0
ag637
aa(lp866
F434.0
aI17
aI1
aI0
ag639
aasS'is_this_SS_trial'
p867
(dp868
sS'subcode'
p869
S'self_tracking_0057'
p870
sS'start_key'
p871
S'5'
p872
s.