(dp0
S'stim_onset_time'
p1
(dp2
sS'datestamp'
p3
S'2012-10-25-07_53_23'
p4
sS'ntrials_per_block'
p5
I6
sS'expt_title'
p6
S'Self_Tracking'
p7
sS'rt'
p8
(dp9
sS'simulated_response'
p10
I00
sS'script'
p11
(lp12
S'#!/usr/bin/env python\n'
p13
aS'\n'
p14
aS'import psychopy\n'
p15
aS'from psychopy import visual, core, event, logging, data, misc, sound\n'
p16
aS'import numpy as N\n'
p17
aS'import pickle,csv\n'
p18
aS'import datetime\n'
p19
aS'import sys\n'
p20
aS'import os, socket, random\n'
p21
aS'import inspect\n'
p22
aS'import hashlib\n'
p23
aS'from socket import gethostname\n'
p24
aS'import exptutils\n'
p25
aS'from exptutils import *\n'
p26
aS'from pylab import imread\n'
p27
ag14
aS'try:\n'
p28
aS'    from save_data_to_db import *\n'
p29
aS'    save_data=1\n'
p30
aS'except:\n'
p31
aS"    print 'cannnot import save_data_to_db'\n"
p32
aS'    save_data=0\n'
p33
ag14
aS'def store_scriptfile():\n'
p34
aS'    scriptfile= inspect.getfile(inspect.currentframe())# save a copy of the script in the data file\n'
p35
aS'    f=open(scriptfile)\n'
p36
aS'    script=f.readlines()\n'
p37
aS'    f.close()\n'
p38
aS'    return script\n'
p39
ag14
aS'#\n'
p40
aS'#- - - - - - - - - - - - - - - - - - - - - - - - - - - - - - - - - - - - - - - - - - - - - - - - - - - - - - - - - - - - - - - - - - - - - - - - - - - - - -\n'
p41
aS'#define functions for awaiting keyboard input & displaying initial instructions\n'
p42
aS'#these functions will be called prior to the stim_block() function (at bottom)\n'
p43
ag14
aS'def wait_for_trigger():\n'
p44
aS'    event.clearEvents()\n'
p45
aS"    if subdata['simulated_response']:\n"
p46
aS'        msg="SIMULATION MODE"\n'
p47
aS'    else:\n'
p48
aS"        msg=''\n"
p49
aS"    message=visual.TextStim(win, text='%s Waiting for start key (or press %s)'%(msg,subdata['start_key']),\n"
p50
aS"    font='BiauKai', height=1,color=u'white', colorSpace=u'rgb', opacity=1,depth=0.0,\n"
p51
aS"    alignHoriz='center',wrapWidth=50)\n"
p52
aS'    message.setAutoDraw(True) #automatically draw every frame\n'
p53
aS'    win.flip()\n'
p54
aS'    start=False\n'
p55
aS'    while start==False:\n'
p56
aS'        k=event.waitKeys()\n'
p57
aS"        if k.count(subdata['start_key'])>0:#as soon as subdata['start_key'] is pressed...\n"
p58
aS'            start=True\n'
p59
aS"            message.setText('')#this clears the screen\n"
p60
aS'            win.flip()\n'
p61
aS"        if k.count(subdata['quit_key']) >0:# if subdata['quit_key'] is pressed...\n"
p62
aS'            exptutils.shut_down_cleanly(subdata,win)\n'
p63
aS'            return subdata\n'
p64
aS'            \n'
p65
aS"def instructions(n,duration):#n here changes depending on the n-back level; yes/no will also switch between 'u' & 'i' keys depending on the Order number selected\n"
p66
aS'    event.clearEvents()\n'
p67
aS"    instructions=visual.TextStim(win=win, ori=0, name='instructions',font='BiauKai',\n"
p68
aS"        text='%d back'%n,\n"
p69
aS"        height=2,color=u'white', colorSpace=u'rgb', alignHoriz='center',wrapWidth=50)\n"
p70
aS'    instructions.setAutoDraw(True)\n'
p71
aS'    win.flip()\n'
p72
aS'    core.wait(duration)#currently it is set up to keep instructions on screen the designated amt of time; a button press will not end these instructions sooner\n'
p73
aS"    instructions.setText('')\n"
p74
aS'    win.flip()\n'
p75
ag14
aS'#- - - - - - - - - - - - - - - - - - - - - - - - - - - - - - - - - - - - - - - - - - - - - - - - - - - - - - - - - - - - - - - - - - - - - - - - \n'
p76
ag14
ag14
aS'#define function for displaying visual stims for each trial on n-back task\n'
p77
ag14
aS'def draw_stim(win,event_info,subdata,visual_stim):\n'
p78
aS'    trialdata={}\n'
p79
aS"    trialdata['duration']=subdata['stim_dur']\n"
p80
aS"    trialdata['onset'],trialdata['block'],trialdata['nback'],trialdata['match'],trialdata['stim']=event_info\n"
p81
aS'    # NB: I removed a lot of data handling stuff from within this function\n'
p82
aS'    # instead, the data get returned and handled at the calling level\n'
p83
aS"    print trialdata['stim']\n"
p84
aS"    if trialdata['stim'].find('faces')>-1:#if it is a face image, display vertically\n"
p85
aS"        stim_type='faces'\n"
p86
aS"    elif trialdata['stim'].find('scenes')>-1:#\n"
p87
aS"        stim_type='scenes'\n"
p88
aS'    else:#if it is a character, display as text\n'
p89
aS"        stim_type='chinese_characters'\n"
p90
aS'        \n'
p91
aS"    visual_stim.setImage(trialdata['stim'])\n"
p92
aS"    trialdata['stim_type']=stim_type\n"
p93
aS'    \n'
p94
aS'        #visual_stim[stim_type].setAutoDraw(True)#get the image ready to display\n'
p95
aS'    visual_stim.draw()\n'
p96
aS"    while clock.getTime()<trialdata['onset']:#wait until the specified onset time to display image_file\n"
p97
aS'        pass\n'
p98
aS'    win.flip()\n'
p99
aS"    trialdata['actual_onset_time']=clock.getTime()\n"
p100
aS'    event.clearEvents()#clear all button presses\n'
p101
aS'    thisResp=None\n'
p102
aS'    simulated_rt=0.5 + N.random.rand()*0.1\n'
p103
aS"    while clock.getTime() < (trialdata['actual_onset_time'] + trialdata['duration']) and  thisResp==None:#before the subdata['stim_dur'] time is exceeded, do this stuff...\n"
p104
aS'            key_response=event.getKeys()#look for yes,no, and quit commands\n'
p105
aS"            if subdata['simulated_response']:\n"
p106
aS"                if clock.getTime()> trialdata['actual_onset_time'] + simulated_rt:\n"
p107
aS'                    thisResp=1\n'
p108
aS"                    trialdata['rt']=clock.getTime() - trialdata['actual_onset_time'] #collect rt\n"
p109
aS"                    trialdata['response']='0'\n"
p110
aS'            elif key_response:#if they press any button\n'
p111
aS"                if key_response.count(subdata['quit_key'])>0:#if subj hits subdata['quit_key']...\n"
p112
aS'                    keep_going=0\n'
p113
aS"                    #subdata['broke_on_trial'][which_block]=trial_num\n"
p114
aS'                    #shut_down_cleanly(subdata,win)\n'
p115
aS'                    return None\n'
p116
aS"                elif key_response.count('5')>0:\n"
p117
aS"                    subdata['trigger_times'].append(clock.getTime())\n"
p118
aS'                else:\n'
p119
aS'                    thisResp=1\n'
p120
aS"                    trialdata['rt']=clock.getTime() - trialdata['actual_onset_time'] #collect rt\n"
p121
aS"                    trialdata['response']=key_response[0]#collect response\n"
p122
ag14
aS'    visual_stim.clearTextures()\n'
p123
ag14
aS'    win.flip()\n'
p124
ag14
aS'    #del visual_stim\n'
p125
aS'    return trialdata\n'
p126
aS'    \n'
p127
ag14
ag14
aS'#Text saying the task has finished. Disappears with key press\n'
p128
ag14
aS'def display_finished_text():#finished with experiment\n'
p129
aS'    event.clearEvents()\n'
p130
aS'    message=visual.TextStim(win=win, ori=0,\n'
p131
aS"    text='All finished! Thanks  :) \\n Press any key to clear the screen.',\n"
p132
aS"    font=u'BiauKai',pos=[0, 0], height=2,color=u'white', colorSpace=u'rgb', opacity=1,depth=0.0,alignHoriz='center',wrapWidth=50)\n"
p133
aS'    message.setAutoDraw(True) \n'
p134
aS'    win.flip()\n'
p135
aS'    start=False\n'
p136
aS'    while start==False:\n'
p137
aS'        key_response=event.getKeys()\n'
p138
aS'        if len(key_response)>0:\n'
p139
aS'            start=True\n'
p140
aS"            message.setText('')#this clears the screen\n"
p141
aS'            win.flip()\n'
p142
aS'    return start\n'
p143
aS'#- - - - - - - - - - - - - - - - - - - - - - - - - - - - - - - - - - - - - - - - - - - - - - - - - - - - - - - - - - - - - - - - - - - - - - \n'
p144
ag14
aS'    \n'
p145
aS'#set-up some variables\n'
p146
ag14
aS'verbose=True\n'
p147
aS'fullscr=True  # change to True for full screen display\n'
p148
ag14
aS"stim_types=['faces','scenes','chinese_characters']\n"
p149
aS'subdata={}\n'
p150
ag14
aS"subdata['start_key']='5'\n"
p151
aS"subdata['quit_key']='q'\n"
p152
aS"subdata['discard_time_to_wait']=0.0\n"
p153
aS"subdata['expt_title']='Self_Tracking'\n"
p154
aS"subdata['stim_dur']=1.5\n"
p155
aS"subdata['inter_stim_int']=1.0\n"
p156
aS"subdata['inst_time']=1.0\n"
p157
aS"subdata['rest_time']=10.0\n"
p158
aS"subdata['ExpVersion']=0.1\n"
p159
aS"subdata['nstims']=5\n"
p160
aS"subdata['ntrials_per_block']=6\n"
p161
aS"subdata['simulated_response']=False\n"
p162
aS"subdata['trigger_times']=[]\n"
p163
ag14
aS'if len(sys.argv)<2:\n'
p164
aS"    print 'USAGE: self_tracking.py <stimlist> <session code>'\n"
p165
aS'    sys.exit()\n'
p166
aS"    #subdata['onsetfile']='/Users/poldrack/Dropbox/Documents/Projects/self-tracking/task/onsetlists/stimlist_000.txt'\n"
p167
aS'else:\n'
p168
aS"    subdata['onsetfile']=sys.argv[1]\n"
p169
aS"    subdata['subcode']=sys.argv[2]\n"
p170
ag14
ag14
aS'# initialize subdata dictionary to store info about the study\n'
p171
aS"subdata['completed']=0\n"
p172
aS"subdata['cwd']=os.getcwd()\n"
p173
aS"subdata['hostname']=socket.gethostname()\n"
p174
aS'clock=core.Clock()\n'
p175
aS'datestamp=datetime.datetime.now().strftime("%Y-%m-%d-%H_%M_%S")\n'
p176
aS"subdata['datestamp']=datestamp\n"
p177
aS"subdata['expt_title']=subdata['expt_title']\n"
p178
aS"subdata['script']=store_scriptfile()\n"
p179
aS"subdata['onsets']=subdata['onsetfile']\n"
p180
ag14
aS'#these are all sub-dictionaries which will be appended w/separate info for each block & each trial\n'
p181
aS"#i.e., the 'response' dictionary will contain the following dictionaries: face_1, face_2, scenes_1, scenes_2, whose keys are trial_num and values are the responses on that trial\n"
p182
aS"subdata['response']={}\n"
p183
aS"subdata['score']={}\n"
p184
aS"subdata['rt']={}\n"
p185
aS"subdata['stim_onset_time']={}\n"
p186
aS"subdata['stim_log']={}\n"
p187
aS"subdata['is_this_SS_trial']={}\n"
p188
aS"subdata['SS']={}\n"
p189
aS"subdata['broke_on_trial']={}\n"
p190
ag14
aS'# set up logging information & create Output directories\n'
p191
aS"if not os.path.isdir('Output'):#make an Output directory if necessary\n"
p192
aS"    os.makedirs('Output') \n"
p193
ag14
aS"dataFileName='Output/%s_%s_subdata.log'%(subdata['subcode'],subdata['datestamp'])\n"
p194
aS'logging.console.setLevel(logging.INFO)\n'
p195
aS'logfile=logging.LogFile(dataFileName,level=logging.INFO)\n'
p196
ag14
aS'# load stimulus file\n'
p197
ag14
aS'def load_stimulus_file(onsfile):\n'
p198
aS'    events=[]\n'
p199
aS'    f=open(onsfile)\n'
p200
aS'    l=f.readlines()\n'
p201
aS'    for line in l:\n'
p202
aS"        l_s=line.strip('\\n').split('\\t')\n"
p203
aS'        events.append([float(l_s[0]),int(l_s[1]),int(l_s[2]),int(l_s[3]),l_s[4]])\n'
p204
aS'    f.close()\n'
p205
aS'    return events\n'
p206
ag14
aS"events=load_stimulus_file(subdata['onsetfile'])\n"
p207
ag14
aS'# set up the window \n'
p208
aS"win = visual.Window([800,600],allowGUI=True, fullscr=fullscr, monitor='testMonitor', units='deg')\n"
p209
aS"win.setColor('black')\n"
p210
aS'win.flip()\n'
p211
aS'win.flip()\n'
p212
ag14
aS'#integrating everything together\n'
p213
ag14
aS"subdata['trialdata']={}\n"
p214
aS'#chardict=create_characters_dict()\n'
p215
ag14
aS"wait_for_trigger()#wait for subdata['start_key'] to be pressed\n"
p216
ag14
aS'visual_stim={}\n'
p217
aS"visual_stim=visual.ImageStim(win, image=N.zeros((10,10)), size=(0.75,0.75),units='height')\n"
p218
ag14
aS'# set clock to zero\n'
p219
aS'clock.reset()\n'
p220
aS'trialctr=0\n'
p221
aS'for i in range(len(events)):\n'
p222
aS"    if events[i][4]=='inst':\n"
p223
aS'        while clock.getTime() < events[i][0]:\n'
p224
aS'            pass\n'
p225
aS"        instructions(events[i][2],subdata['inst_time'])\n"
p226
aS'    else:\n'
p227
aS"        subdata['trialdata'][trialctr]=draw_stim(win,events[i],subdata,visual_stim)\n"
p228
aS"        if subdata['trialdata'][trialctr]==None:\n"
p229
aS'            break\n'
p230
aS'        trialctr+=1\n'
p231
aS"        print 'return time:',clock.getTime()\n"
p232
ag14
aS'#display_finished_text()\n'
p233
ag14
aS"subdata['events']=events\n"
p234
aS'if save_data==1:\n'
p235
aS"    docId,docRev=save_data_to_db(subdata,'selftracking-taskdata')\n"
p236
ag14
aS'shut_down_cleanly(subdata,win)\n'
p237
asS'onsets'
p238
S'onsetlists/stimlist_000.txt'
p239
sS'hostname'
p240
S'IRC-arizona'
p241
sS'score'
p242
(dp243
sS'rest_time'
p244
F10.0
sS'cwd'
p245
S'/Users/rap2623/Dropbox/Documents/Projects/self-tracking/task'
p246
sS'trigger_times'
p247
(lp248
F2.274106025695801
aF4.594195127487183
aF8.074087142944336
aF10.394299030303955
aF12.71436595916748
aF16.19451403617859
aF18.514507055282593
aF24.31468415260315
aF26.63475513458252
aF30.113712072372437
aF32.433836936950684
aF38.234118938446045
aF40.554161071777344
aF46.35425305366516
aF52.15455508232117
aF54.47441506385803
aF60.274686098098755
aF68.39388108253479
aF70.71379804611206
aF74.19421195983887
aF76.514230966568
aF82.31424593925476
aF84.6342351436615
aF90.4346570968628
aF92.75478911399841
aF96.23476004600525
aF98.55374813079834
aF102.03391909599304
aF104.35400295257568
aF106.67410111427307
aF112.47424507141113
aF114.79439997673035
aF118.2744791507721
aF120.59450507164001
aF124.07457304000854
aF126.39467406272888
aF131.03467202186584
aF154.23453307151794
aF156.55459809303284
aF160.0346281528473
aF162.3546130657196
aF164.6747670173645
aF168.1539340019226
aF170.4739351272583
aF172.7940330505371
aF176.27420210838318
aF177.4341869354248
aF178.59418511390686
aF182.07409811019897
aF184.39435005187988
aF186.71444392204285
aF190.1944329738617
aF192.51470112800598
aF194.83471298217773
aF198.3147749900818
aF200.6348259449005
aF204.1139440536499
aF206.43378114700317
aF208.75402212142944
aF212.23416113853455
aF220.3542730808258
aF226.15460014343262
aF228.47452807426453
aF234.27475714683533
aF236.5948450565338
aF242.39377903938293
aF244.71403002738953
aF248.1939980983734
aF250.51427102088928
aF256.3144021034241
aF258.63451194763184
aF264.43469405174255
aF270.2349750995636
aF272.55391097068787
aF276.03407406806946
aF278.35408210754395
aF280.6741440296173
aF306.19490909576416
aF308.5140039920807
aF310.8340709209442
aF313.15409898757935
aF314.3141269683838
aF316.6342351436615
aF318.95431208610535
aF320.1144449710846
aF322.4343841075897
aF324.75440311431885
aF328.23446798324585
aF330.554563999176
aF334.0345079898834
aF336.3547179698944
aF338.67478108406067
aF342.1539030075073
aF344.47371101379395
aF346.79415798187256
aF350.2741961479187
aF352.5941331386566
aF354.9143099784851
aF356.07438492774963
aF358.394406080246
aF360.7142810821533
aF364.1945810317993
aF366.51466393470764
aF368.8346960544586
aF372.31494402885437
aF374.63483905792236
aF378.11403608322144
aF380.43398809432983
aF382.7541160583496
aF386.2340500354767
aF388.5542130470276
aF390.8743691444397
aF394.35443902015686
aF396.6746709346771
aF400.15461015701294
aF402.4746971130371
aF408.2747850418091
aF410.59488105773926
aF416.39399099349976
aF422.19428396224976
aF424.51437497138977
aF426.83444714546204
aF430.3145020008087
aF432.63437008857727
aF434.9546821117401
asS'ExpVersion'
p249
F0.1
sS'completed'
p250
I0
sS'stim_dur'
p251
F1.5
sS'quit_key'
p252
S'q'
p253
sS'onsetfile'
p254
g239
sS'discard_time_to_wait'
p255
F0.0
sS'response'
p256
(dp257
sS'trialdata'
p258
(dp259
I0
(dp260
g8
F0.48367810249328613
sS'stim'
p261
S'./stimfiles/faces/34.png'
p262
sS'onset'
p263
F2.0
sS'stim_type'
p264
S'faces'
p265
sS'block'
p266
I0
sS'nback'
p267
I2
sS'duration'
p268
F1.5
sg256
S'1'
p269
sS'match'
p270
I0
sS'actual_onset_time'
p271
F2.0165209770202637
ssI1
(dp272
g8
F1.1947050094604492
sg261
S'./stimfiles/faces/34.png'
p273
sg263
F4.0
sg264
g265
sg266
I0
sg267
I2
sg268
F1.5
sg256
g269
sg270
I1
sg271
F4.017279148101807
ssI2
(dp274
g8
F0.7660670280456543
sg261
S'./stimfiles/faces/751.png'
p275
sg263
F6.0
sg264
g265
sg266
I0
sg267
I2
sg268
F1.5
sg256
g269
sg270
I0
sg271
F6.01813006401062
ssI3
(dp276
g8
F0.7573258876800537
sg261
S'./stimfiles/faces/252.png'
p277
sg263
F8.0
sg264
g265
sg266
I0
sg267
I2
sg268
F1.5
sg256
g269
sg270
I0
sg271
F8.018891096115112
ssI4
(dp278
g8
F0.796461820602417
sg261
S'./stimfiles/faces/778.png'
p279
sg263
F10.0
sg264
g265
sg266
I0
sg267
I2
sg268
F1.5
sg256
g269
sg270
I0
sg271
F10.019739151000977
ssI5
(dp280
g8
F0.7347447872161865
sg261
S'./stimfiles/faces/751.png'
p281
sg263
F12.0
sg264
g265
sg266
I0
sg267
I2
sg268
F1.5
sg256
S'4'
p282
sg270
I3
sg271
F12.020583152770996
ssI6
(dp283
g8
F0.7172198295593262
sg261
S'./stimfiles/faces/778.png'
p284
sg263
F14.0
sg264
g265
sg266
I0
sg267
I2
sg268
F1.5
sg256
g282
sg270
I2
sg271
F14.021387100219727
ssI7
(dp285
g8
F0.7932209968566895
sg261
S'./stimfiles/faces/324.png'
p286
sg263
F16.0
sg264
g265
sg266
I0
sg267
I2
sg268
F1.5
sg256
g269
sg270
I0
sg271
F16.0222749710083
ssI8
(dp287
g8
F0.7164769172668457
sg261
S'./stimfiles/faces/82.png'
p288
sg263
F18.0
sg264
g265
sg266
I0
sg267
I2
sg268
F1.5
sg256
g269
sg270
I0
sg271
F18.02300715446472
ssI9
(dp289
g8
F0.7875330448150635
sg261
S'./stimfiles/faces/423.png'
p290
sg263
F20.0
sg264
g265
sg266
I0
sg267
I2
sg268
F1.5
sg256
g269
sg270
I0
sg271
F20.02389097213745
ssI10
(dp291
g8
F1.0708868503570557
sg261
S'./stimfiles/scenes/1538.jpg'
p292
sg263
F24.0
sg264
S'scenes'
p293
sg266
I1
sg267
I1
sg268
F1.5
sg256
g269
sg270
I0
sg271
F24.008788108825684
ssI11
(dp294
g8
F0.6611039638519287
sg261
S'./stimfiles/scenes/464.jpg'
p295
sg263
F26.0
sg264
g293
sg266
I1
sg267
I1
sg268
F1.5
sg256
g269
sg270
I0
sg271
F26.00961399078369
ssI12
(dp296
g8
F0.4473249912261963
sg261
S'./stimfiles/scenes/3114.jpg'
p297
sg263
F28.0
sg264
g293
sg266
I1
sg267
I1
sg268
F1.5
sg256
g269
sg270
I0
sg271
F28.010542154312134
ssI13
(dp298
g8
F0.5566039085388184
sg261
S'./stimfiles/scenes/344.jpg'
p299
sg263
F30.0
sg264
g293
sg266
I1
sg267
I1
sg268
F1.5
sg256
g269
sg270
I0
sg271
F30.011274099349976
ssI14
(dp300
g8
F0.5606689453125
sg261
S'./stimfiles/scenes/910.jpg'
p301
sg263
F32.0
sg264
g293
sg266
I1
sg267
I1
sg268
F1.5
sg256
g269
sg270
I0
sg271
F32.01215100288391
ssI15
(dp302
g8
F0.4490020275115967
sg261
S'./stimfiles/scenes/910.jpg'
p303
sg263
F34.0
sg264
g293
sg266
I1
sg267
I1
sg268
F1.5
sg256
g282
sg270
I1
sg271
F34.01297307014465
ssI16
(dp304
g8
F0.45122194290161133
sg261
S'./stimfiles/scenes/910.jpg'
p305
sg263
F36.0
sg264
g293
sg266
I1
sg267
I1
sg268
F1.5
sg256
g282
sg270
I1
sg271
F36.013827085494995
ssI17
(dp306
g8
F0.6214380264282227
sg261
S'./stimfiles/scenes/910.jpg'
p307
sg263
F38.0
sg264
g293
sg266
I1
sg267
I1
sg268
F1.5
sg256
g282
sg270
I3
sg271
F38.0146119594574
ssI18
(dp308
g8
F0.689723014831543
sg261
S'./stimfiles/scenes/1216.jpg'
p309
sg263
F40.0
sg264
g293
sg266
I1
sg267
I1
sg268
F1.5
sg256
g269
sg270
I0
sg271
F40.01540493965149
ssI19
(dp310
g8
F0.5739209651947021
sg261
S'./stimfiles/scenes/463.jpg'
p311
sg263
F42.0
sg264
g293
sg266
I1
sg267
I1
sg268
F1.5
sg256
g269
sg270
I0
sg271
F42.016276121139526
ssI20
(dp312
g8
F0.8245019912719727
sg261
S'./stimfiles/chinese_characters/20745.jpg'
p313
sg263
F46.0
sg264
S'chinese_characters'
p314
sg266
I2
sg267
I1
sg268
F1.5
sg256
g269
sg270
I0
sg271
F46.01792001724243
ssI21
(dp315
g8
F0.5418360233306885
sg261
S'./stimfiles/chinese_characters/32006.jpg'
p316
sg263
F48.0
sg264
g314
sg266
I2
sg267
I1
sg268
F1.5
sg256
g282
sg270
I0
sg271
F48.0187349319458
ssI22
(dp317
g8
F0.591041088104248
sg261
S'./stimfiles/chinese_characters/35460.jpg'
p318
sg263
F50.0
sg264
g314
sg266
I2
sg267
I1
sg268
F1.5
sg256
g269
sg270
I0
sg271
F50.01954102516174
ssI23
(dp319
g8
F0.5920789241790771
sg261
S'./stimfiles/chinese_characters/25233.jpg'
p320
sg263
F52.0
sg264
g314
sg266
I2
sg267
I1
sg268
F1.5
sg256
g269
sg270
I0
sg271
F52.02040505409241
ssI24
(dp321
g8
F0.5121731758117676
sg261
S'./stimfiles/chinese_characters/33280.jpg'
p322
sg263
F54.0
sg264
g314
sg266
I2
sg267
I1
sg268
F1.5
sg256
g269
sg270
I0
sg271
F54.021235942840576
ssI25
(dp323
g8
F0.570605993270874
sg261
S'./stimfiles/chinese_characters/30309.jpg'
p324
sg263
F56.0
sg264
g314
sg266
I2
sg267
I1
sg268
F1.5
sg256
g269
sg270
I0
sg271
F56.02198505401611
ssI26
(dp325
g8
F0.5239510536193848
sg261
S'./stimfiles/chinese_characters/25572.jpg'
p326
sg263
F58.0
sg264
g314
sg266
I2
sg267
I1
sg268
F1.5
sg256
g269
sg270
I0
sg271
F58.02278804779053
ssI27
(dp327
g8
F0.3979959487915039
sg261
S'./stimfiles/chinese_characters/25572.jpg'
p328
sg263
F60.0
sg264
g314
sg266
I2
sg267
I1
sg268
F1.5
sg256
g282
sg270
I1
sg271
F60.023627042770386
ssI28
(dp329
g8
F0.4792959690093994
sg261
S'./stimfiles/chinese_characters/25572.jpg'
p330
sg263
F62.0
sg264
g314
sg266
I2
sg267
I1
sg268
F1.5
sg256
g282
sg270
I1
sg271
F62.02447199821472
ssI29
(dp331
g8
F0.44846296310424805
sg261
S'./stimfiles/chinese_characters/25572.jpg'
p332
sg263
F64.0
sg264
g314
sg266
I2
sg267
I1
sg268
F1.5
sg256
g282
sg270
I2
sg271
F64.02528500556946
ssI30
(dp333
g8
F0.9147958755493164
sg261
S'./stimfiles/faces/375.png'
p334
sg263
F68.0
sg264
g265
sg266
I3
sg267
I1
sg268
F1.5
sg256
g269
sg270
I0
sg271
F68.01021313667297
ssI31
(dp335
g8
F0.7608969211578369
sg261
S'./stimfiles/faces/375.png'
p336
sg263
F70.0
sg264
g265
sg266
I3
sg267
I1
sg268
F1.5
sg256
g282
sg270
I1
sg271
F70.01111102104187
ssI32
(dp337
g8
F0.6732628345489502
sg261
S'./stimfiles/faces/75.png'
p338
sg263
F72.0
sg264
g265
sg266
I3
sg267
I1
sg268
F1.5
sg256
g269
sg270
I0
sg271
F72.01189613342285
ssI33
(dp339
g8
F0.6694381237030029
sg261
S'./stimfiles/faces/75.png'
p340
sg263
F74.0
sg264
g265
sg266
I3
sg267
I1
sg268
F1.5
sg256
g282
sg270
I1
sg271
F74.01269292831421
ssI34
(dp341
g8
F0.5576238632202148
sg261
S'./stimfiles/faces/400.png'
p342
sg263
F76.0
sg264
g265
sg266
I3
sg267
I1
sg268
F1.5
sg256
g269
sg270
I0
sg271
F76.01355910301208
ssI35
(dp343
g8
F0.6109330654144287
sg261
S'./stimfiles/faces/364.png'
p344
sg263
F78.0
sg264
g265
sg266
I3
sg267
I1
sg268
F1.5
sg256
g269
sg270
I0
sg271
F78.01436495780945
ssI36
(dp345
g8
F0.7121710777282715
sg261
S'./stimfiles/faces/303.png'
p346
sg263
F80.0
sg264
g265
sg266
I3
sg267
I1
sg268
F1.5
sg256
g282
sg270
I0
sg271
F80.01515603065491
ssI37
(dp347
g8
F0.6451470851898193
sg261
S'./stimfiles/faces/357.png'
p348
sg263
F82.0
sg264
g265
sg266
I3
sg267
I1
sg268
F1.5
sg256
g269
sg270
I0
sg271
F82.01603293418884
ssI38
(dp349
g8
F0.7185268402099609
sg261
S'./stimfiles/faces/303.png'
p350
sg263
F84.0
sg264
g265
sg266
I3
sg267
I1
sg268
F1.5
sg256
g269
sg270
I2
sg271
F84.01686215400696
ssI39
(dp351
g8
F0.7018120288848877
sg261
S'./stimfiles/faces/368.png'
p352
sg263
F86.0
sg264
g265
sg266
I3
sg267
I1
sg268
F1.5
sg256
g282
sg270
I0
sg271
F86.01771306991577
ssI40
(dp353
g8
F0.8172690868377686
sg261
S'./stimfiles/chinese_characters/26146.jpg'
p354
sg263
F90.0
sg264
g314
sg266
I4
sg267
I2
sg268
F1.5
sg256
g269
sg270
I0
sg271
F90.01932096481323
ssI41
(dp355
g8
F0.8345599174499512
sg261
S'./stimfiles/chinese_characters/37297.jpg'
p356
sg263
F92.0
sg264
g314
sg266
I4
sg267
I2
sg268
F1.5
sg256
g269
sg270
I0
sg271
F92.0201370716095
ssI42
(dp357
g8
F0.8388187885284424
sg261
S'./stimfiles/chinese_characters/25481.jpg'
p358
sg263
F94.0
sg264
g314
sg266
I4
sg267
I2
sg268
F1.5
sg256
g269
sg270
I0
sg271
F94.0209641456604
ssI43
(dp359
g8
F1.1809921264648438
sg261
S'./stimfiles/chinese_characters/26146.jpg'
p360
sg263
F96.0
sg264
g314
sg266
I4
sg267
I2
sg268
F1.5
sg256
g269
sg270
I3
sg271
F96.02182698249817
ssI44
(dp361
g8
F0.6162240505218506
sg261
S'./stimfiles/chinese_characters/25481.jpg'
p362
sg263
F98.0
sg264
g314
sg266
I4
sg267
I2
sg268
F1.5
sg256
g282
sg270
I2
sg271
F98.0225989818573
ssI45
(dp363
g8
F0.7795619964599609
sg261
S'./stimfiles/chinese_characters/24797.jpg'
p364
sg263
F100.0
sg264
g314
sg266
I4
sg267
I2
sg268
F1.5
sg256
g269
sg270
I0
sg271
F100.02336812019348
ssI46
(dp365
g8
F0.8808028697967529
sg261
S'./stimfiles/chinese_characters/33301.jpg'
p366
sg263
F102.0
sg264
g314
sg266
I4
sg267
I2
sg268
F1.5
sg256
g269
sg270
I0
sg271
F102.02419710159302
ssI47
(dp367
g8
F0.6778559684753418
sg261
S'./stimfiles/chinese_characters/35469.jpg'
p368
sg263
F104.0
sg264
g314
sg266
I4
sg267
I2
sg268
F1.5
sg256
g269
sg270
I0
sg271
F104.02504205703735
ssI48
(dp369
g8
F0.7349939346313477
sg261
S'./stimfiles/chinese_characters/25630.jpg'
p370
sg263
F106.0
sg264
g314
sg266
I4
sg267
I2
sg268
F1.5
sg256
g282
sg270
I0
sg271
F106.00916504859924
ssI49
(dp371
g8
F0.7251060009002686
sg261
S'./stimfiles/chinese_characters/35469.jpg'
p372
sg263
F108.0
sg264
g314
sg266
I4
sg267
I2
sg268
F1.5
sg256
g269
sg270
I2
sg271
F108.00998497009277
ssI50
(dp373
g8
F0.6865780353546143
sg261
S'./stimfiles/scenes/1345.jpg'
p374
sg263
F112.0
sg264
g293
sg266
I5
sg267
I2
sg268
F1.5
sg256
g269
sg270
I0
sg271
F112.01166892051697
ssI51
(dp375
g8
F0.7859230041503906
sg261
S'./stimfiles/scenes/290.jpg'
p376
sg263
F114.0
sg264
g293
sg266
I5
sg267
I2
sg268
F1.5
sg256
g269
sg270
I0
sg271
F114.012531042099
ssI52
(dp377
g8
F0.8479399681091309
sg261
S'./stimfiles/scenes/290.jpg'
p378
sg263
F116.0
sg264
g293
sg266
I5
sg267
I2
sg268
F1.5
sg256
g269
sg270
I1
sg271
F116.01332902908325
ssI53
(dp379
g8
F0.8582658767700195
sg261
S'./stimfiles/scenes/1224.jpg'
p380
sg263
F118.0
sg264
g293
sg266
I5
sg267
I2
sg268
F1.5
sg256
g269
sg270
I0
sg271
F118.01417207717896
ssI54
(dp381
g8
F0.8085160255432129
sg261
S'./stimfiles/scenes/1224.jpg'
p382
sg263
F120.0
sg264
g293
sg266
I5
sg267
I2
sg268
F1.5
sg256
g269
sg270
I1
sg271
F120.01502299308777
ssI55
(dp383
g8
F0.701833963394165
sg261
S'./stimfiles/scenes/1224.jpg'
p384
sg263
F122.0
sg264
g293
sg266
I5
sg267
I2
sg268
F1.5
sg256
g282
sg270
I2
sg271
F122.01580214500427
ssI56
(dp385
g8
F0.7619719505310059
sg261
S'./stimfiles/scenes/984.jpg'
p386
sg263
F124.0
sg264
g293
sg266
I5
sg267
I2
sg268
F1.5
sg256
g269
sg270
I0
sg271
F124.01660513877869
ssI57
(dp387
g8
F0.6871590614318848
sg261
S'./stimfiles/scenes/1865.jpg'
p388
sg263
F126.0
sg264
g293
sg266
I5
sg267
I2
sg268
F1.5
sg256
g269
sg270
I0
sg271
F126.01745700836182
ssI58
(dp389
g8
F0.6023621559143066
sg261
S'./stimfiles/scenes/1716.jpg'
p390
sg263
F128.0
sg264
g293
sg266
I5
sg267
I2
sg268
F1.5
sg256
g269
sg270
I0
sg271
F128.01828694343567
ssI59
(dp391
g8
F1.0436489582061768
sg261
S'./stimfiles/scenes/1865.jpg'
p392
sg263
F130.0
sg264
g293
sg266
I5
sg267
I2
sg268
F1.5
sg256
g269
sg270
I2
sg271
F130.01908707618713
ssI60
(dp393
g8
F0.7435190677642822
sg261
S'./stimfiles/faces/399.png'
p394
sg263
F154.0
sg264
g265
sg266
I6
sg267
I2
sg268
F1.5
sg256
g269
sg270
I0
sg271
F154.0289990901947
ssI61
(dp395
g8
F0.6974499225616455
sg261
S'./stimfiles/faces/409.png'
p396
sg263
F156.0
sg264
g265
sg266
I6
sg267
I2
sg268
F1.5
sg256
g269
sg270
I0
sg271
F156.01307201385498
ssI62
(dp397
g8
F0.7696108818054199
sg261
S'./stimfiles/faces/339.png'
p398
sg263
F158.0
sg264
g265
sg266
I6
sg267
I2
sg268
F1.5
sg256
g282
sg270
I0
sg271
F158.0139660835266
ssI63
(dp399
g8
F0.9260408878326416
sg261
S'./stimfiles/faces/409.png'
p400
sg263
F160.0
sg264
g265
sg266
I6
sg267
I2
sg268
F1.5
sg256
g282
sg270
I2
sg271
F160.01470804214478
ssI64
(dp401
g8
F0.7852129936218262
sg261
S'./stimfiles/faces/409.png'
p402
sg263
F162.0
sg264
g265
sg266
I6
sg267
I2
sg268
F1.5
sg256
g269
sg270
I3
sg271
F162.015545129776
ssI65
(dp403
g8
F1.040306806564331
sg261
S'./stimfiles/faces/409.png'
p404
sg263
F164.0
sg264
g265
sg266
I6
sg267
I2
sg268
F1.5
sg256
g282
sg270
I1
sg271
F164.0164351463318
ssI66
(dp405
g8
F0.8475911617279053
sg261
S'./stimfiles/faces/77.png'
p406
sg263
F166.0
sg264
g265
sg266
I6
sg267
I2
sg268
F1.5
sg256
g269
sg270
I0
sg271
F166.01718592643738
ssI67
(dp407
g8
F0.7708640098571777
sg261
S'./stimfiles/faces/80.png'
p408
sg263
F168.0
sg264
g265
sg266
I6
sg267
I2
sg268
F1.5
sg256
g269
sg270
I0
sg271
F168.01803708076477
ssI68
(dp409
g8
F0.6339929103851318
sg261
S'./stimfiles/faces/77.png'
p410
sg263
F170.0
sg264
g265
sg266
I6
sg267
I2
sg268
F1.5
sg256
g282
sg270
I2
sg271
F170.0188250541687
ssI69
(dp411
g8
F0.9843699932098389
sg261
S'./stimfiles/faces/77.png'
p412
sg263
F172.0
sg264
g265
sg266
I6
sg267
I2
sg268
F1.5
sg256
g269
sg270
I3
sg271
F172.0196990966797
ssI70
(dp413
g8
F1.461803913116455
sg261
S'./stimfiles/faces/391.png'
p414
sg263
F176.0
sg264
g265
sg266
I7
sg267
I1
sg268
F1.5
sg256
g269
sg270
I0
sg271
F176.02130508422852
ssI71
(dp415
g8
F0.6622271537780762
sg261
S'./stimfiles/faces/391.png'
p416
sg263
F178.0
sg264
g265
sg266
I7
sg267
I1
sg268
F1.5
sg256
g282
sg270
I1
sg271
F178.0221619606018
ssI72
(dp417
g8
F0.6353888511657715
sg261
S'./stimfiles/faces/391.png'
p418
sg263
F180.0
sg264
g265
sg266
I7
sg267
I1
sg268
F1.5
sg256
g269
sg270
I1
sg271
F180.0229001045227
ssI73
(dp419
g8
F0.6786208152770996
sg261
S'./stimfiles/faces/391.png'
p420
sg263
F182.0
sg264
g265
sg266
I7
sg267
I1
sg268
F1.5
sg256
g269
sg270
I1
sg271
F182.0237901210785
ssI74
(dp421
g8
F1.0956220626831055
sg261
S'./stimfiles/faces/83.png'
p422
sg263
F184.0
sg264
g265
sg266
I7
sg267
I1
sg268
F1.5
sg256
g269
sg270
I0
sg271
F184.02458906173706
ssI75
(dp423
g8
F0.8459649085998535
sg261
S'./stimfiles/faces/83.png'
p424
sg263
F186.0
sg264
g265
sg266
I7
sg267
I1
sg268
F1.5
sg256
g282
sg270
I1
sg271
F186.02544713020325
ssI76
(dp425
g8
F0.714061975479126
sg261
S'./stimfiles/faces/446.png'
p426
sg263
F188.0
sg264
g265
sg266
I7
sg267
I1
sg268
F1.5
sg256
g269
sg270
I0
sg271
F188.0262839794159
ssI77
(dp427
g8
F0.9930548667907715
sg261
S'./stimfiles/faces/381.png'
p428
sg263
F190.0
sg264
g265
sg266
I7
sg267
I1
sg268
F1.5
sg256
g269
sg270
I0
sg271
F190.01045513153076
ssI78
(dp429
g8
F0.8643848896026611
sg261
S'./stimfiles/faces/313.png'
p430
sg263
F192.0
sg264
g265
sg266
I7
sg267
I1
sg268
F1.5
sg256
g269
sg270
I0
sg271
F192.01129007339478
ssI79
(dp431
g8
F0.8465871810913086
sg261
S'./stimfiles/faces/381.png'
p432
sg263
F194.0
sg264
g265
sg266
I7
sg267
I1
sg268
F1.5
sg256
g269
sg270
I2
sg271
F194.01203393936157
ssI80
(dp433
g8
F0.6650731563568115
sg261
S'./stimfiles/scenes/3071.jpg'
p434
sg263
F198.0
sg264
g293
sg266
I8
sg267
I2
sg268
F1.5
sg256
g269
sg270
I0
sg271
F198.01369094848633
ssI81
(dp435
g8
F0.6423089504241943
sg261
S'./stimfiles/scenes/254.jpg'
p436
sg263
F200.0
sg264
g293
sg266
I8
sg267
I2
sg268
F1.5
sg256
g269
sg270
I0
sg271
F200.01449608802795
ssI82
(dp437
g8
F0.6824579238891602
sg261
S'./stimfiles/scenes/1277.jpg'
p438
sg263
F202.0
sg264
g293
sg266
I8
sg267
I2
sg268
F1.5
sg256
g269
sg270
I0
sg271
F202.0153510570526
ssI83
(dp439
g8
F1.0727062225341797
sg261
S'./stimfiles/scenes/3071.jpg'
p440
sg263
F204.0
sg264
g293
sg266
I8
sg267
I2
sg268
F1.5
sg256
g269
sg270
I3
sg271
F204.0162079334259
ssI84
(dp441
g8
F0.7449619770050049
sg261
S'./stimfiles/scenes/320.jpg'
p442
sg263
F206.0
sg264
g293
sg266
I8
sg267
I2
sg268
F1.5
sg256
g269
sg270
I0
sg271
F206.01695799827576
ssI85
(dp443
g8
F0.828265905380249
sg261
S'./stimfiles/scenes/1533.jpg'
p444
sg263
F208.0
sg264
g293
sg266
I8
sg267
I2
sg268
F1.5
sg256
g269
sg270
I0
sg271
F208.01777410507202
ssI86
(dp445
g8
F0.7644760608673096
sg261
S'./stimfiles/scenes/1460.jpg'
p446
sg263
F210.0
sg264
g293
sg266
I8
sg267
I2
sg268
F1.5
sg256
g269
sg270
I0
sg271
F210.01863598823547
ssI87
(dp447
g8
F0.737637996673584
sg261
S'./stimfiles/scenes/4.jpg'
p448
sg263
F212.0
sg264
g293
sg266
I8
sg267
I2
sg268
F1.5
sg256
g269
sg270
I0
sg271
F212.01950812339783
ssI88
(dp449
g8
F0.4988880157470703
sg261
S'./stimfiles/scenes/1460.jpg'
p450
sg263
F214.0
sg264
g293
sg266
I8
sg267
I2
sg268
F1.5
sg256
g282
sg270
I2
sg271
F214.02029705047607
ssI89
(dp451
g8
F0.5332660675048828
sg261
S'./stimfiles/scenes/1200.jpg'
p452
sg263
F216.0
sg264
g293
sg266
I8
sg267
I2
sg268
F1.5
sg256
g269
sg270
I0
sg271
F216.0211009979248
ssI90
(dp453
g8
F1.2632861137390137
sg261
S'./stimfiles/scenes/319.jpg'
p454
sg263
F220.0
sg264
g293
sg266
I9
sg267
I1
sg268
F1.5
sg256
g269
sg270
I0
sg271
F220.00612592697144
ssI91
(dp455
g8
F0.588493824005127
sg261
S'./stimfiles/scenes/345.jpg'
p456
sg263
F222.0
sg264
g293
sg266
I9
sg267
I1
sg268
F1.5
sg256
g269
sg270
I0
sg271
F222.00692009925842
ssI92
(dp457
g8
F0.6618101596832275
sg261
S'./stimfiles/scenes/345.jpg'
p458
sg263
F224.0
sg264
g293
sg266
I9
sg267
I1
sg268
F1.5
sg256
g269
sg270
I1
sg271
F224.0077419281006
ssI93
(dp459
g8
F0.4940159320831299
sg261
S'./stimfiles/scenes/432.jpg'
p460
sg263
F226.0
sg264
g293
sg266
I9
sg267
I1
sg268
F1.5
sg256
g269
sg270
I0
sg271
F226.00855207443237
ssI94
(dp461
g8
F0.5311460494995117
sg261
S'./stimfiles/scenes/345.jpg'
p462
sg263
F228.0
sg264
g293
sg266
I9
sg267
I1
sg268
F1.5
sg256
g269
sg270
I2
sg271
F228.00934600830078
ssI95
(dp463
g8
F0.547461986541748
sg261
S'./stimfiles/scenes/3028.jpg'
p464
sg263
F230.0
sg264
g293
sg266
I9
sg267
I1
sg268
F1.5
sg256
g269
sg270
I0
sg271
F230.01020407676697
ssI96
(dp465
g8
F0.4697399139404297
sg261
S'./stimfiles/scenes/1826.jpg'
p466
sg263
F232.0
sg264
g293
sg266
I9
sg267
I1
sg268
F1.5
sg256
g269
sg270
I0
sg271
F232.01101207733154
ssI97
(dp467
g8
F0.6359360218048096
sg261
S'./stimfiles/scenes/3028.jpg'
p468
sg263
F234.0
sg264
g293
sg266
I9
sg267
I1
sg268
F1.5
sg256
g269
sg270
I2
sg271
F234.01188397407532
ssI98
(dp469
g8
F0.9932389259338379
sg261
S'./stimfiles/scenes/3028.jpg'
p470
sg263
F236.0
sg264
g293
sg266
I9
sg267
I1
sg268
F1.5
sg256
g269
sg270
I1
sg271
F236.01264214515686
ssI99
(dp471
g8
F0.730280876159668
sg261
S'./stimfiles/scenes/3050.jpg'
p472
sg263
F238.0
sg264
g293
sg266
I9
sg267
I1
sg268
F1.5
sg256
g269
sg270
I0
sg271
F238.01349806785583
ssI100
(dp473
g8
F0.9169061183929443
sg261
S'./stimfiles/chinese_characters/26166.jpg'
p474
sg263
F242.0
sg264
g314
sg266
I10
sg267
I2
sg268
F1.5
sg256
g269
sg270
I0
sg271
F242.01515197753906
ssI101
(dp475
g8
F0.8880720138549805
sg261
S'./stimfiles/chinese_characters/35344.jpg'
p476
sg263
F244.0
sg264
g314
sg266
I10
sg267
I2
sg268
F1.5
sg256
g269
sg270
I0
sg271
F244.01597714424133
ssI102
(dp477
g8
F0.6854250431060791
sg261
S'./stimfiles/chinese_characters/31359.jpg'
p478
sg263
F246.0
sg264
g314
sg266
I10
sg267
I2
sg268
F1.5
sg256
g269
sg270
I0
sg271
F246.01672410964966
ssI103
(dp479
g8
F0.8866701126098633
sg261
S'./stimfiles/chinese_characters/26296.jpg'
p480
sg263
F248.0
sg264
g314
sg266
I10
sg267
I2
sg268
F1.5
sg256
g269
sg270
I0
sg271
F248.0176019668579
ssI104
(dp481
g8
F0.5537700653076172
sg261
S'./stimfiles/chinese_characters/26296.jpg'
p482
sg263
F250.0
sg264
g314
sg266
I10
sg267
I2
sg268
F1.5
sg256
g269
sg270
I1
sg271
F250.01846504211426
ssI105
(dp483
g8
F0.7972249984741211
sg261
S'./stimfiles/chinese_characters/24825.jpg'
p484
sg263
F252.0
sg264
g314
sg266
I10
sg267
I2
sg268
F1.5
sg256
g269
sg270
I0
sg271
F252.0192210674286
ssI106
(dp485
g8
F1.053251028060913
sg261
S'./stimfiles/chinese_characters/25774.jpg'
p486
sg263
F254.0
sg264
g314
sg266
I10
sg267
I2
sg268
F1.5
sg256
g269
sg270
I0
sg271
F254.0200641155243
ssI107
(dp487
g8
F1.1974279880523682
sg261
S'./stimfiles/chinese_characters/25494.jpg'
p488
sg263
F256.0
sg264
g314
sg266
I10
sg267
I2
sg268
F1.5
sg256
g269
sg270
I0
sg271
F256.0209209918976
ssI108
(dp489
g8
F0.905066967010498
sg261
S'./stimfiles/chinese_characters/27484.jpg'
p490
sg263
F258.0
sg264
g314
sg266
I10
sg267
I2
sg268
F1.5
sg256
g269
sg270
I0
sg271
F258.0216829776764
ssI109
(dp491
g8
F0.838001012802124
sg261
S'./stimfiles/chinese_characters/26521.jpg'
p492
sg263
F260.0
sg264
g314
sg266
I10
sg267
I2
sg268
F1.5
sg256
g269
sg270
I0
sg271
F260.0225920677185
ssI110
(dp493
g8
F1.312464952468872
sg261
S'./stimfiles/chinese_characters/29922.jpg'
p494
sg263
F264.0
sg264
g314
sg266
I11
sg267
I1
sg268
F1.5
sg256
g269
sg270
I0
sg271
F264.0241870880127
ssI111
(dp495
g8
F0.7187519073486328
sg261
S'./stimfiles/chinese_characters/26178.jpg'
p496
sg263
F266.0
sg264
g314
sg266
I11
sg267
I1
sg268
F1.5
sg256
g269
sg270
I0
sg271
F266.0249741077423
ssI112
(dp497
g8
F0.5630879402160645
sg261
S'./stimfiles/chinese_characters/24931.jpg'
p498
sg263
F268.0
sg264
g314
sg266
I11
sg267
I1
sg268
F1.5
sg256
g269
sg270
I0
sg271
F268.02584505081177
ssI113
(dp499
g8
F0.5752441883087158
sg261
S'./stimfiles/chinese_characters/24931.jpg'
p500
sg263
F270.0
sg264
g314
sg266
I11
sg267
I1
sg268
F1.5
sg256
g282
sg270
I1
sg271
F270.02658796310425
ssI114
(dp501
g8
F0.6480967998504639
sg261
S'./stimfiles/chinese_characters/26088.jpg'
p502
sg263
F272.0
sg264
g314
sg266
I11
sg267
I1
sg268
F1.5
sg256
g269
sg270
I0
sg271
F272.0107741355896
ssI115
(dp503
g8
F0.7391951084136963
sg261
S'./stimfiles/chinese_characters/24923.jpg'
p504
sg263
F274.0
sg264
g314
sg266
I11
sg267
I1
sg268
F1.5
sg256
g269
sg270
I0
sg271
F274.0116620063782
ssI116
(dp505
g8
F0.5405571460723877
sg261
S'./stimfiles/chinese_characters/24601.jpg'
p506
sg263
F276.0
sg264
g314
sg266
I11
sg267
I1
sg268
F1.5
sg256
g269
sg270
I0
sg271
F276.012414932251
ssI117
(dp507
g8
F0.5157840251922607
sg261
S'./stimfiles/chinese_characters/25612.jpg'
p508
sg263
F278.0
sg264
g314
sg266
I11
sg267
I1
sg268
F1.5
sg256
g269
sg270
I0
sg271
F278.01325392723083
ssI118
(dp509
g8
F0.6620879173278809
sg261
S'./stimfiles/chinese_characters/25084.jpg'
p510
sg263
F280.0
sg264
g314
sg266
I11
sg267
I1
sg268
F1.5
sg256
g269
sg270
I0
sg271
F280.014142036438
ssI119
(dp511
g8
F0.5652968883514404
sg261
S'./stimfiles/chinese_characters/26194.jpg'
p512
sg263
F282.0
sg264
g314
sg266
I11
sg267
I1
sg268
F1.5
sg256
g269
sg270
I0
sg271
F282.01488304138184
ssI120
(dp513
g8
F0.41005611419677734
sg261
S'./stimfiles/chinese_characters/35540.jpg'
p514
sg263
F306.0
sg264
g314
sg266
I12
sg267
I2
sg268
F1.5
sg256
g269
sg270
I0
sg271
F306.0247359275818
ssI121
(dp515
g8
F0.8961949348449707
sg261
S'./stimfiles/chinese_characters/35540.jpg'
p516
sg263
F308.0
sg264
g314
sg266
I12
sg267
I2
sg268
F1.5
sg256
g269
sg270
I1
sg271
F308.02557611465454
ssI122
(dp517
g8
F1.159574031829834
sg261
S'./stimfiles/chinese_characters/24684.jpg'
p518
sg263
F310.0
sg264
g314
sg266
I12
sg267
I2
sg268
F1.5
sg256
g269
sg270
I0
sg271
F310.0264000892639
ssI123
(dp519
g8
F1.386523962020874
sg261
S'./stimfiles/chinese_characters/24726.jpg'
p520
sg263
F312.0
sg264
g314
sg266
I12
sg267
I2
sg268
F1.5
sg256
g269
sg270
I0
sg271
F312.0105640888214
ssI124
(dp521
g8
F1.16572904586792
sg261
S'./stimfiles/chinese_characters/37312.jpg'
p522
sg263
F314.0
sg264
g314
sg266
I12
sg267
I2
sg268
F1.5
sg256
g269
sg270
I0
sg271
F314.0113830566406
ssI125
(dp523
g8
F1.101045846939087
sg261
S'./stimfiles/chinese_characters/29741.jpg'
p524
sg263
F316.0
sg264
g314
sg266
I12
sg267
I2
sg268
F1.5
sg256
g269
sg270
I0
sg271
F316.01218914985657
ssI126
(dp525
g8
F1.3193960189819336
sg261
S'./stimfiles/chinese_characters/24726.jpg'
p526
sg263
F318.0
sg264
g314
sg266
I12
sg267
I2
sg268
F1.5
sg256
g269
sg270
I3
sg271
F318.0129930973053
ssI127
(dp527
g8
F1.178459882736206
sg261
S'./stimfiles/chinese_characters/25891.jpg'
p528
sg263
F320.0
sg264
g314
sg266
I12
sg267
I2
sg268
F1.5
sg256
g269
sg270
I0
sg271
F320.01383805274963
ssI128
(dp529
g8
F1.1616830825805664
sg261
S'./stimfiles/chinese_characters/25891.jpg'
p530
sg263
F322.0
sg264
g314
sg266
I12
sg267
I2
sg268
F1.5
sg256
g269
sg270
I1
sg271
F322.0147190093994
ssI129
(dp531
g8
F1.05873703956604
sg261
S'./stimfiles/chinese_characters/24727.jpg'
p532
sg263
F324.0
sg264
g314
sg266
I12
sg267
I2
sg268
F1.5
sg256
g269
sg270
I0
sg271
F324.01552295684814
ssI130
(dp533
g8
F0.7682650089263916
sg261
S'./stimfiles/scenes/1571.jpg'
p534
sg263
F328.0
sg264
g293
sg266
I13
sg267
I2
sg268
F1.5
sg256
g269
sg270
I0
sg271
F328.01725697517395
ssI131
(dp535
g8
F0.8503508567810059
sg261
S'./stimfiles/scenes/1058.jpg'
p536
sg263
F330.0
sg264
g293
sg266
I13
sg267
I2
sg268
F1.5
sg256
g269
sg270
I0
sg271
F330.0179741382599
ssI132
(dp537
g8
F0.7030551433563232
sg261
S'./stimfiles/scenes/470.jpg'
p538
sg263
F332.0
sg264
g293
sg266
I13
sg267
I2
sg268
F1.5
sg256
g269
sg270
I0
sg271
F332.01872992515564
ssI133
(dp539
g8
F1.0501618385314941
sg261
S'./stimfiles/scenes/1058.jpg'
p540
sg263
F334.0
sg264
g293
sg266
I13
sg267
I2
sg268
F1.5
sg256
g282
sg270
I2
sg271
F334.0195550918579
ssI134
(dp541
g8
F0.6672799587249756
sg261
S'./stimfiles/scenes/1014.jpg'
p542
sg263
F336.0
sg264
g293
sg266
I13
sg267
I2
sg268
F1.5
sg256
g269
sg270
I0
sg271
F336.0203959941864
ssI135
(dp543
g8
F0.7645108699798584
sg261
S'./stimfiles/scenes/1750.jpg'
p544
sg263
F338.0
sg264
g293
sg266
I13
sg267
I2
sg268
F1.5
sg256
g269
sg270
I0
sg271
F338.02125906944275
ssI136
(dp545
g8
F0.7717580795288086
sg261
S'./stimfiles/scenes/1156.jpg'
p546
sg263
F340.0
sg264
g293
sg266
I13
sg267
I2
sg268
F1.5
sg256
g269
sg270
I0
sg271
F340.02210807800293
ssI137
(dp547
g8
F1.2197849750518799
sg261
S'./stimfiles/scenes/1014.jpg'
p548
sg263
F342.0
sg264
g293
sg266
I13
sg267
I2
sg268
F1.5
sg256
g282
sg270
I3
sg271
F342.0061819553375
ssI138
(dp549
g8
F0.9159750938415527
sg261
S'./stimfiles/scenes/1883.jpg'
p550
sg263
F344.0
sg264
g293
sg266
I13
sg267
I2
sg268
F1.5
sg256
g269
sg270
I0
sg271
F344.0070650577545
ssI139
(dp551
g8
F0.9741568565368652
sg261
S'./stimfiles/scenes/1620.jpg'
p552
sg263
F346.0
sg264
g293
sg266
I13
sg267
I2
sg268
F1.5
sg256
g269
sg270
I0
sg271
F346.0078830718994
ssI140
(dp553
g8
F1.195720911026001
sg261
S'./stimfiles/scenes/932.jpg'
p554
sg263
F350.0
sg264
g293
sg266
I14
sg267
I1
sg268
F1.5
sg256
g269
sg270
I0
sg271
F350.009535074234
ssI141
(dp555
g8
F0.9268639087677002
sg261
S'./stimfiles/scenes/1853.jpg'
p556
sg263
F352.0
sg264
g293
sg266
I14
sg267
I1
sg268
F1.5
sg256
g269
sg270
I0
sg271
F352.0103690624237
ssI142
(dp557
g8
F0.9270999431610107
sg261
S'./stimfiles/scenes/1144.jpg'
p558
sg263
F354.0
sg264
g293
sg266
I14
sg267
I1
sg268
F1.5
sg256
g269
sg270
I0
sg271
F354.0111610889435
ssI143
(dp559
g8
F1.1032891273498535
sg261
S'./stimfiles/scenes/932.jpg'
p560
sg263
F356.0
sg264
g293
sg266
I14
sg267
I1
sg268
F1.5
sg256
g269
sg270
I3
sg271
F356.0120289325714
ssI144
(dp561
g8
F1.3797328472137451
sg261
S'./stimfiles/scenes/269.jpg'
p562
sg263
F358.0
sg264
g293
sg266
I14
sg267
I1
sg268
F1.5
sg256
g269
sg270
I0
sg271
F358.0127761363983
ssI145
(dp563
g8
F1.0167360305786133
sg261
S'./stimfiles/scenes/1705.jpg'
p564
sg263
F360.0
sg264
g293
sg266
I14
sg267
I1
sg268
F1.5
sg256
g269
sg270
I0
sg271
F360.01365399360657
ssI146
(dp565
g8
F0.7489678859710693
sg261
S'./stimfiles/scenes/1705.jpg'
p566
sg263
F362.0
sg264
g293
sg266
I14
sg267
I1
sg268
F1.5
sg256
g282
sg270
I1
sg271
F362.0144350528717
ssI147
(dp567
g8
F1.0332839488983154
sg261
S'./stimfiles/scenes/1705.jpg'
p568
sg263
F364.0
sg264
g293
sg266
I14
sg267
I1
sg268
F1.5
sg256
g282
sg270
I2
sg271
F364.0152750015259
ssI148
(dp569
g8
F0.7035040855407715
sg261
S'./stimfiles/scenes/1359.jpg'
p570
sg263
F366.0
sg264
g293
sg266
I14
sg267
I1
sg268
F1.5
sg256
g269
sg270
I0
sg271
F366.0160880088806
ssI149
(dp571
g8
F0.8748071193695068
sg261
S'./stimfiles/scenes/519.jpg'
p572
sg263
F368.0
sg264
g293
sg266
I14
sg267
I1
sg268
F1.5
sg256
g269
sg270
I0
sg271
F368.0168459415436
ssI150
(dp573
g8
F0.7092170715332031
sg261
S'./stimfiles/faces/288.png'
p574
sg263
F372.0
sg264
g265
sg266
I15
sg267
I1
sg268
F1.5
sg256
g269
sg270
I0
sg271
F372.0185549259186
ssI151
(dp575
g8
F0.9626510143280029
sg261
S'./stimfiles/faces/288.png'
p576
sg263
F374.0
sg264
g265
sg266
I15
sg267
I1
sg268
F1.5
sg256
g282
sg270
I1
sg271
F374.0194101333618
ssI152
(dp577
g8
F0.8397400379180908
sg261
S'./stimfiles/faces/41.png'
p578
sg263
F376.0
sg264
g265
sg266
I15
sg267
I1
sg268
F1.5
sg256
g269
sg270
I0
sg271
F376.0202250480652
ssI153
(dp579
g8
F0.9990241527557373
sg261
S'./stimfiles/faces/288.png'
p580
sg263
F378.0
sg264
g265
sg266
I15
sg267
I1
sg268
F1.5
sg256
g269
sg270
I2
sg271
F378.0209629535675
ssI154
(dp581
g8
F1.191197156906128
sg261
S'./stimfiles/faces/370.png'
p582
sg263
F380.0
sg264
g265
sg266
I15
sg267
I1
sg268
F1.5
sg256
g269
sg270
I0
sg271
F380.0218379497528
ssI155
(dp583
g8
F0.954474925994873
sg261
S'./stimfiles/faces/346.png'
p584
sg263
F382.0
sg264
g265
sg266
I15
sg267
I1
sg268
F1.5
sg256
g269
sg270
I0
sg271
F382.02262806892395
ssI156
(dp585
g8
F0.6305880546569824
sg261
S'./stimfiles/faces/346.png'
p586
sg263
F384.0
sg264
g265
sg266
I15
sg267
I1
sg268
F1.5
sg256
g282
sg270
I1
sg271
F384.02350902557373
ssI157
(dp587
g8
F0.6727268695831299
sg261
S'./stimfiles/faces/834.png'
p588
sg263
F386.0
sg264
g265
sg266
I15
sg267
I1
sg268
F1.5
sg256
g269
sg270
I0
sg271
F386.0243470668793
ssI158
(dp589
g8
F0.980126142501831
sg261
S'./stimfiles/faces/754.png'
p590
sg263
F388.0
sg264
g265
sg266
I15
sg267
I1
sg268
F1.5
sg256
g269
sg270
I0
sg271
F388.0250999927521
ssI159
(dp591
g8
F0.9252099990844727
sg261
S'./stimfiles/faces/415.png'
p592
sg263
F390.0
sg264
g265
sg266
I15
sg267
I1
sg268
F1.5
sg256
g269
sg270
I0
sg271
F390.02593207359314
ssI160
(dp593
g8
F0.7769639492034912
sg261
S'./stimfiles/chinese_characters/24705.jpg'
p594
sg263
F394.0
sg264
g314
sg266
I16
sg267
I1
sg268
F1.5
sg256
g269
sg270
I0
sg271
F394.02762603759766
ssI161
(dp595
g8
F0.7057180404663086
sg261
S'./stimfiles/chinese_characters/31369.jpg'
p596
sg263
F396.0
sg264
g314
sg266
I16
sg267
I1
sg268
F1.5
sg256
g269
sg270
I0
sg271
F396.01171493530273
ssI162
(dp597
g8
F0.8138730525970459
sg261
S'./stimfiles/chinese_characters/25072.jpg'
p598
sg263
F398.0
sg264
g314
sg266
I16
sg267
I1
sg268
F1.5
sg256
g269
sg270
I0
sg271
F398.0125730037689
ssI163
(dp599
g8
F0.6701908111572266
sg261
S'./stimfiles/chinese_characters/25072.jpg'
p600
sg263
F400.0
sg264
g314
sg266
I16
sg267
I1
sg268
F1.5
sg256
g282
sg270
I1
sg271
F400.0133991241455
ssI164
(dp601
g8
F0.7454149723052979
sg261
S'./stimfiles/chinese_characters/26016.jpg'
p602
sg263
F402.0
sg264
g314
sg266
I16
sg267
I1
sg268
F1.5
sg256
g269
sg270
I0
sg271
F402.01421999931335
ssI165
(dp603
g8
F0.6728098392486572
sg261
S'./stimfiles/chinese_characters/31643.jpg'
p604
sg263
F404.0
sg264
g314
sg266
I16
sg267
I1
sg268
F1.5
sg256
g269
sg270
I0
sg271
F404.015025138855
ssI166
(dp605
g8
F0.7510168552398682
sg261
S'./stimfiles/chinese_characters/20773.jpg'
p606
sg263
F406.0
sg264
g314
sg266
I16
sg267
I1
sg268
F1.5
sg256
g269
sg270
I0
sg271
F406.0158140659332
ssI167
(dp607
g8
F0.8311560153961182
sg261
S'./stimfiles/chinese_characters/26028.jpg'
p608
sg263
F408.0
sg264
g314
sg266
I16
sg267
I1
sg268
F1.5
sg256
g269
sg270
I0
sg271
F408.0166759490967
ssI168
(dp609
g8
F0.8244340419769287
sg261
S'./stimfiles/chinese_characters/27452.jpg'
p610
sg263
F410.0
sg264
g314
sg266
I16
sg267
I1
sg268
F1.5
sg256
g269
sg270
I0
sg271
F410.0175940990448
ssI169
(dp611
g8
F0.7287130355834961
sg261
S'./stimfiles/chinese_characters/26876.jpg'
p612
sg263
F412.0
sg264
g314
sg266
I16
sg267
I1
sg268
F1.5
sg256
g269
sg270
I0
sg271
F412.01829504966736
ssI170
(dp613
g8
F1.0110290050506592
sg261
S'./stimfiles/faces/428.png'
p614
sg263
F416.0
sg264
g265
sg266
I17
sg267
I2
sg268
F1.5
sg256
g269
sg270
I0
sg271
F416.0199649333954
ssI171
(dp615
g8
F0.6464359760284424
sg261
S'./stimfiles/faces/382.png'
p616
sg263
F418.0
sg264
g265
sg266
I17
sg267
I2
sg268
F1.5
sg256
g269
sg270
I0
sg271
F418.0207691192627
ssI172
(dp617
g8
F0.6976749897003174
sg261
S'./stimfiles/faces/336.png'
p618
sg263
F420.0
sg264
g265
sg266
I17
sg267
I2
sg268
F1.5
sg256
g282
sg270
I0
sg271
F420.02156496047974
ssI173
(dp619
g8
F0.7189221382141113
sg261
S'./stimfiles/faces/800.png'
p620
sg263
F422.0
sg264
g265
sg266
I17
sg267
I2
sg268
F1.5
sg256
g269
sg270
I0
sg271
F422.0223879814148
ssI174
(dp621
g8
F0.6439599990844727
sg261
S'./stimfiles/faces/336.png'
p622
sg263
F424.0
sg264
g265
sg266
I17
sg267
I2
sg268
F1.5
sg256
g269
sg270
I2
sg271
F424.02328610420227
ssI175
(dp623
g8
F0.857227087020874
sg261
S'./stimfiles/faces/781.png'
p624
sg263
F426.0
sg264
g265
sg266
I17
sg267
I2
sg268
F1.5
sg256
g269
sg270
I0
sg271
F426.0240650177002
ssI176
(dp625
g8
F1.0685579776763916
sg261
S'./stimfiles/faces/328.png'
p626
sg263
F428.0
sg264
g265
sg266
I17
sg267
I2
sg268
F1.5
sg256
g269
sg270
I0
sg271
F428.0249559879303
ssI177
(dp627
g8
F0.9037270545959473
sg261
S'./stimfiles/faces/162.png'
p628
sg263
F430.0
sg264
g265
sg266
I17
sg267
I2
sg268
F1.5
sg256
g269
sg270
I0
sg271
F430.02575492858887
ssI178
(dp629
g8
F0.8850300312042236
sg261
S'./stimfiles/faces/328.png'
p630
sg263
F432.0
sg264
g265
sg266
I17
sg267
I2
sg268
F1.5
sg256
g282
sg270
I2
sg271
F432.0265190601349
ssI179
(dp631
g8
F1.1761908531188965
sg261
S'./stimfiles/faces/750.png'
p632
sg263
F434.0
sg264
g265
sg266
I17
sg267
I2
sg268
F1.5
sg256
g282
sg270
I0
sg271
F434.0273771286011
sssS'stim_log'
p633
(dp634
sS'nstims'
p635
I5
sS'inter_stim_int'
p636
F1.0
sS'SS'
p637
(dp638
sS'inst_time'
p639
F1.0
sS'broke_on_trial'
p640
(dp641
sS'events'
p642
(lp643
(lp644
F0.0
aI0
aI2
aI0
aS'inst'
p645
aa(lp646
F2.0
aI0
aI2
aI0
ag262
aa(lp647
F4.0
aI0
aI2
aI1
ag273
aa(lp648
F6.0
aI0
aI2
aI0
ag275
aa(lp649
F8.0
aI0
aI2
aI0
ag277
aa(lp650
F10.0
aI0
aI2
aI0
ag279
aa(lp651
F12.0
aI0
aI2
aI3
ag281
aa(lp652
F14.0
aI0
aI2
aI2
ag284
aa(lp653
F16.0
aI0
aI2
aI0
ag286
aa(lp654
F18.0
aI0
aI2
aI0
ag288
aa(lp655
F20.0
aI0
aI2
aI0
ag290
aa(lp656
F22.0
aI1
aI1
aI0
aS'inst'
p657
aa(lp658
F24.0
aI1
aI1
aI0
ag292
aa(lp659
F26.0
aI1
aI1
aI0
ag295
aa(lp660
F28.0
aI1
aI1
aI0
ag297
aa(lp661
F30.0
aI1
aI1
aI0
ag299
aa(lp662
F32.0
aI1
aI1
aI0
ag301
aa(lp663
F34.0
aI1
aI1
aI1
ag303
aa(lp664
F36.0
aI1
aI1
aI1
ag305
aa(lp665
F38.0
aI1
aI1
aI3
ag307
aa(lp666
F40.0
aI1
aI1
aI0
ag309
aa(lp667
F42.0
aI1
aI1
aI0
ag311
aa(lp668
F44.0
aI2
aI1
aI0
aS'inst'
p669
aa(lp670
F46.0
aI2
aI1
aI0
ag313
aa(lp671
F48.0
aI2
aI1
aI0
ag316
aa(lp672
F50.0
aI2
aI1
aI0
ag318
aa(lp673
F52.0
aI2
aI1
aI0
ag320
aa(lp674
F54.0
aI2
aI1
aI0
ag322
aa(lp675
F56.0
aI2
aI1
aI0
ag324
aa(lp676
F58.0
aI2
aI1
aI0
ag326
aa(lp677
F60.0
aI2
aI1
aI1
ag328
aa(lp678
F62.0
aI2
aI1
aI1
ag330
aa(lp679
F64.0
aI2
aI1
aI2
ag332
aa(lp680
F66.0
aI3
aI1
aI0
aS'inst'
p681
aa(lp682
F68.0
aI3
aI1
aI0
ag334
aa(lp683
F70.0
aI3
aI1
aI1
ag336
aa(lp684
F72.0
aI3
aI1
aI0
ag338
aa(lp685
F74.0
aI3
aI1
aI1
ag340
aa(lp686
F76.0
aI3
aI1
aI0
ag342
aa(lp687
F78.0
aI3
aI1
aI0
ag344
aa(lp688
F80.0
aI3
aI1
aI0
ag346
aa(lp689
F82.0
aI3
aI1
aI0
ag348
aa(lp690
F84.0
aI3
aI1
aI2
ag350
aa(lp691
F86.0
aI3
aI1
aI0
ag352
aa(lp692
F88.0
aI4
aI2
aI0
aS'inst'
p693
aa(lp694
F90.0
aI4
aI2
aI0
ag354
aa(lp695
F92.0
aI4
aI2
aI0
ag356
aa(lp696
F94.0
aI4
aI2
aI0
ag358
aa(lp697
F96.0
aI4
aI2
aI3
ag360
aa(lp698
F98.0
aI4
aI2
aI2
ag362
aa(lp699
F100.0
aI4
aI2
aI0
ag364
aa(lp700
F102.0
aI4
aI2
aI0
ag366
aa(lp701
F104.0
aI4
aI2
aI0
ag368
aa(lp702
F106.0
aI4
aI2
aI0
ag370
aa(lp703
F108.0
aI4
aI2
aI2
ag372
aa(lp704
F110.0
aI5
aI2
aI0
aS'inst'
p705
aa(lp706
F112.0
aI5
aI2
aI0
ag374
aa(lp707
F114.0
aI5
aI2
aI0
ag376
aa(lp708
F116.0
aI5
aI2
aI1
ag378
aa(lp709
F118.0
aI5
aI2
aI0
ag380
aa(lp710
F120.0
aI5
aI2
aI1
ag382
aa(lp711
F122.0
aI5
aI2
aI2
ag384
aa(lp712
F124.0
aI5
aI2
aI0
ag386
aa(lp713
F126.0
aI5
aI2
aI0
ag388
aa(lp714
F128.0
aI5
aI2
aI0
ag390
aa(lp715
F130.0
aI5
aI2
aI2
ag392
aa(lp716
F152.0
aI0
aI2
aI0
aS'inst'
p717
aa(lp718
F154.0
aI6
aI2
aI0
ag394
aa(lp719
F156.0
aI6
aI2
aI0
ag396
aa(lp720
F158.0
aI6
aI2
aI0
ag398
aa(lp721
F160.0
aI6
aI2
aI2
ag400
aa(lp722
F162.0
aI6
aI2
aI3
ag402
aa(lp723
F164.0
aI6
aI2
aI1
ag404
aa(lp724
F166.0
aI6
aI2
aI0
ag406
aa(lp725
F168.0
aI6
aI2
aI0
ag408
aa(lp726
F170.0
aI6
aI2
aI2
ag410
aa(lp727
F172.0
aI6
aI2
aI3
ag412
aa(lp728
F174.0
aI1
aI1
aI0
aS'inst'
p729
aa(lp730
F176.0
aI7
aI1
aI0
ag414
aa(lp731
F178.0
aI7
aI1
aI1
ag416
aa(lp732
F180.0
aI7
aI1
aI1
ag418
aa(lp733
F182.0
aI7
aI1
aI1
ag420
aa(lp734
F184.0
aI7
aI1
aI0
ag422
aa(lp735
F186.0
aI7
aI1
aI1
ag424
aa(lp736
F188.0
aI7
aI1
aI0
ag426
aa(lp737
F190.0
aI7
aI1
aI0
ag428
aa(lp738
F192.0
aI7
aI1
aI0
ag430
aa(lp739
F194.0
aI7
aI1
aI2
ag432
aa(lp740
F196.0
aI2
aI2
aI0
aS'inst'
p741
aa(lp742
F198.0
aI8
aI2
aI0
ag434
aa(lp743
F200.0
aI8
aI2
aI0
ag436
aa(lp744
F202.0
aI8
aI2
aI0
ag438
aa(lp745
F204.0
aI8
aI2
aI3
ag440
aa(lp746
F206.0
aI8
aI2
aI0
ag442
aa(lp747
F208.0
aI8
aI2
aI0
ag444
aa(lp748
F210.0
aI8
aI2
aI0
ag446
aa(lp749
F212.0
aI8
aI2
aI0
ag448
aa(lp750
F214.0
aI8
aI2
aI2
ag450
aa(lp751
F216.0
aI8
aI2
aI0
ag452
aa(lp752
F218.0
aI3
aI1
aI0
aS'inst'
p753
aa(lp754
F220.0
aI9
aI1
aI0
ag454
aa(lp755
F222.0
aI9
aI1
aI0
ag456
aa(lp756
F224.0
aI9
aI1
aI1
ag458
aa(lp757
F226.0
aI9
aI1
aI0
ag460
aa(lp758
F228.0
aI9
aI1
aI2
ag462
aa(lp759
F230.0
aI9
aI1
aI0
ag464
aa(lp760
F232.0
aI9
aI1
aI0
ag466
aa(lp761
F234.0
aI9
aI1
aI2
ag468
aa(lp762
F236.0
aI9
aI1
aI1
ag470
aa(lp763
F238.0
aI9
aI1
aI0
ag472
aa(lp764
F240.0
aI4
aI2
aI0
aS'inst'
p765
aa(lp766
F242.0
aI10
aI2
aI0
ag474
aa(lp767
F244.0
aI10
aI2
aI0
ag476
aa(lp768
F246.0
aI10
aI2
aI0
ag478
aa(lp769
F248.0
aI10
aI2
aI0
ag480
aa(lp770
F250.0
aI10
aI2
aI1
ag482
aa(lp771
F252.0
aI10
aI2
aI0
ag484
aa(lp772
F254.0
aI10
aI2
aI0
ag486
aa(lp773
F256.0
aI10
aI2
aI0
ag488
aa(lp774
F258.0
aI10
aI2
aI0
ag490
aa(lp775
F260.0
aI10
aI2
aI0
ag492
aa(lp776
F262.0
aI5
aI1
aI0
aS'inst'
p777
aa(lp778
F264.0
aI11
aI1
aI0
ag494
aa(lp779
F266.0
aI11
aI1
aI0
ag496
aa(lp780
F268.0
aI11
aI1
aI0
ag498
aa(lp781
F270.0
aI11
aI1
aI1
ag500
aa(lp782
F272.0
aI11
aI1
aI0
ag502
aa(lp783
F274.0
aI11
aI1
aI0
ag504
aa(lp784
F276.0
aI11
aI1
aI0
ag506
aa(lp785
F278.0
aI11
aI1
aI0
ag508
aa(lp786
F280.0
aI11
aI1
aI0
ag510
aa(lp787
F282.0
aI11
aI1
aI0
ag512
aa(lp788
F304.0
aI0
aI2
aI0
aS'inst'
p789
aa(lp790
F306.0
aI12
aI2
aI0
ag514
aa(lp791
F308.0
aI12
aI2
aI1
ag516
aa(lp792
F310.0
aI12
aI2
aI0
ag518
aa(lp793
F312.0
aI12
aI2
aI0
ag520
aa(lp794
F314.0
aI12
aI2
aI0
ag522
aa(lp795
F316.0
aI12
aI2
aI0
ag524
aa(lp796
F318.0
aI12
aI2
aI3
ag526
aa(lp797
F320.0
aI12
aI2
aI0
ag528
aa(lp798
F322.0
aI12
aI2
aI1
ag530
aa(lp799
F324.0
aI12
aI2
aI0
ag532
aa(lp800
F326.0
aI1
aI2
aI0
aS'inst'
p801
aa(lp802
F328.0
aI13
aI2
aI0
ag534
aa(lp803
F330.0
aI13
aI2
aI0
ag536
aa(lp804
F332.0
aI13
aI2
aI0
ag538
aa(lp805
F334.0
aI13
aI2
aI2
ag540
aa(lp806
F336.0
aI13
aI2
aI0
ag542
aa(lp807
F338.0
aI13
aI2
aI0
ag544
aa(lp808
F340.0
aI13
aI2
aI0
ag546
aa(lp809
F342.0
aI13
aI2
aI3
ag548
aa(lp810
F344.0
aI13
aI2
aI0
ag550
aa(lp811
F346.0
aI13
aI2
aI0
ag552
aa(lp812
F348.0
aI2
aI1
aI0
aS'inst'
p813
aa(lp814
F350.0
aI14
aI1
aI0
ag554
aa(lp815
F352.0
aI14
aI1
aI0
ag556
aa(lp816
F354.0
aI14
aI1
aI0
ag558
aa(lp817
F356.0
aI14
aI1
aI3
ag560
aa(lp818
F358.0
aI14
aI1
aI0
ag562
aa(lp819
F360.0
aI14
aI1
aI0
ag564
aa(lp820
F362.0
aI14
aI1
aI1
ag566
aa(lp821
F364.0
aI14
aI1
aI2
ag568
aa(lp822
F366.0
aI14
aI1
aI0
ag570
aa(lp823
F368.0
aI14
aI1
aI0
ag572
aa(lp824
F370.0
aI3
aI1
aI0
aS'inst'
p825
aa(lp826
F372.0
aI15
aI1
aI0
ag574
aa(lp827
F374.0
aI15
aI1
aI1
ag576
aa(lp828
F376.0
aI15
aI1
aI0
ag578
aa(lp829
F378.0
aI15
aI1
aI2
ag580
aa(lp830
F380.0
aI15
aI1
aI0
ag582
aa(lp831
F382.0
aI15
aI1
aI0
ag584
aa(lp832
F384.0
aI15
aI1
aI1
ag586
aa(lp833
F386.0
aI15
aI1
aI0
ag588
aa(lp834
F388.0
aI15
aI1
aI0
ag590
aa(lp835
F390.0
aI15
aI1
aI0
ag592
aa(lp836
F392.0
aI4
aI1
aI0
aS'inst'
p837
aa(lp838
F394.0
aI16
aI1
aI0
ag594
aa(lp839
F396.0
aI16
aI1
aI0
ag596
aa(lp840
F398.0
aI16
aI1
aI0
ag598
aa(lp841
F400.0
aI16
aI1
aI1
ag600
aa(lp842
F402.0
aI16
aI1
aI0
ag602
aa(lp843
F404.0
aI16
aI1
aI0
ag604
aa(lp844
F406.0
aI16
aI1
aI0
ag606
aa(lp845
F408.0
aI16
aI1
aI0
ag608
aa(lp846
F410.0
aI16
aI1
aI0
ag610
aa(lp847
F412.0
aI16
aI1
aI0
ag612
aa(lp848
F414.0
aI5
aI2
aI0
aS'inst'
p849
aa(lp850
F416.0
aI17
aI2
aI0
ag614
aa(lp851
F418.0
aI17
aI2
aI0
ag616
aa(lp852
F420.0
aI17
aI2
aI0
ag618
aa(lp853
F422.0
aI17
aI2
aI0
ag620
aa(lp854
F424.0
aI17
aI2
aI2
ag622
aa(lp855
F426.0
aI17
aI2
aI0
ag624
aa(lp856
F428.0
aI17
aI2
aI0
ag626
aa(lp857
F430.0
aI17
aI2
aI0
ag628
aa(lp858
F432.0
aI17
aI2
aI2
ag630
aa(lp859
F434.0
aI17
aI2
aI0
ag632
aasS'is_this_SS_trial'
p860
(dp861
sS'subcode'
p862
S'self-tracking_0014'
p863
sS'start_key'
p864
S'5'
p865
s.