(dp0
S'stim_onset_time'
p1
(dp2
sS'datestamp'
p3
S'2012-12-20-07_33_06'
p4
sS'ntrials_per_block'
p5
I6
sS'expt_title'
p6
S'Self_Tracking'
p7
sS'rt'
p8
(dp9
sS'simulated_response'
p10
I00
sS'script'
p11
(lp12
S'#!/usr/bin/env python\n'
p13
aS'\n'
p14
aS'import psychopy\n'
p15
aS'from psychopy import visual, core, event, logging, data, misc, sound\n'
p16
aS'import numpy as N\n'
p17
aS'import pickle,csv\n'
p18
aS'import datetime\n'
p19
aS'import sys\n'
p20
aS'import os, socket, random\n'
p21
aS'import inspect\n'
p22
aS'import hashlib\n'
p23
aS'from socket import gethostname\n'
p24
aS'import exptutils\n'
p25
aS'from exptutils import *\n'
p26
aS'from pylab import imread\n'
p27
ag14
aS'try:\n'
p28
aS'    from save_data_to_db import *\n'
p29
aS'    save_data=1\n'
p30
aS'except:\n'
p31
aS"    print 'cannnot import save_data_to_db'\n"
p32
aS'    save_data=0\n'
p33
ag14
aS'def store_scriptfile():\n'
p34
aS'    scriptfile= inspect.getfile(inspect.currentframe())# save a copy of the script in the data file\n'
p35
aS'    f=open(scriptfile)\n'
p36
aS'    script=f.readlines()\n'
p37
aS'    f.close()\n'
p38
aS'    return script\n'
p39
ag14
aS'#\n'
p40
aS'#- - - - - - - - - - - - - - - - - - - - - - - - - - - - - - - - - - - - - - - - - - - - - - - - - - - - - - - - - - - - - - - - - - - - - - - - - - - - - -\n'
p41
aS'#define functions for awaiting keyboard input & displaying initial instructions\n'
p42
aS'#these functions will be called prior to the stim_block() function (at bottom)\n'
p43
ag14
aS'def wait_for_trigger():\n'
p44
aS'    event.clearEvents()\n'
p45
aS"    if subdata['simulated_response']:\n"
p46
aS'        msg="SIMULATION MODE"\n'
p47
aS'    else:\n'
p48
aS"        msg=''\n"
p49
aS"    message=visual.TextStim(win, text='%s Waiting for start key (or press %s)'%(msg,subdata['start_key']),\n"
p50
aS"    font='BiauKai', height=1,color=u'white', colorSpace=u'rgb', opacity=1,depth=0.0,\n"
p51
aS"    alignHoriz='center',wrapWidth=50)\n"
p52
aS'    message.setAutoDraw(True) #automatically draw every frame\n'
p53
aS'    win.flip()\n'
p54
aS'    start=False\n'
p55
aS'    while start==False:\n'
p56
aS'        k=event.waitKeys()\n'
p57
aS"        if k.count(subdata['start_key'])>0:#as soon as subdata['start_key'] is pressed...\n"
p58
aS'            start=True\n'
p59
aS"            message.setText('')#this clears the screen\n"
p60
aS'            win.flip()\n'
p61
aS"        if k.count(subdata['quit_key']) >0:# if subdata['quit_key'] is pressed...\n"
p62
aS'            exptutils.shut_down_cleanly(subdata,win)\n'
p63
aS'            return subdata\n'
p64
aS'            \n'
p65
aS"def instructions(n,duration):#n here changes depending on the n-back level; yes/no will also switch between 'u' & 'i' keys depending on the Order number selected\n"
p66
aS'    event.clearEvents()\n'
p67
aS"    instructions=visual.TextStim(win=win, ori=0, name='instructions',font='BiauKai',\n"
p68
aS"        text='%d back'%n,\n"
p69
aS"        height=2,color=u'white', colorSpace=u'rgb', alignHoriz='center',wrapWidth=50)\n"
p70
aS'    instructions.setAutoDraw(True)\n'
p71
aS'    win.flip()\n'
p72
aS'    core.wait(duration)#currently it is set up to keep instructions on screen the designated amt of time; a button press will not end these instructions sooner\n'
p73
aS"    instructions.setText('')\n"
p74
aS'    win.flip()\n'
p75
ag14
aS'#- - - - - - - - - - - - - - - - - - - - - - - - - - - - - - - - - - - - - - - - - - - - - - - - - - - - - - - - - - - - - - - - - - - - - - - - \n'
p76
ag14
ag14
aS'#define function for displaying visual stims for each trial on n-back task\n'
p77
ag14
aS'def draw_stim(win,event_info,subdata,visual_stim):\n'
p78
aS'    trialdata={}\n'
p79
aS"    trialdata['duration']=subdata['stim_dur']\n"
p80
aS"    trialdata['onset'],trialdata['block'],trialdata['nback'],trialdata['match'],trialdata['stim']=event_info\n"
p81
aS'    # NB: I removed a lot of data handling stuff from within this function\n'
p82
aS'    # instead, the data get returned and handled at the calling level\n'
p83
aS"    print trialdata['stim']\n"
p84
aS"    if trialdata['stim'].find('faces')>-1:#if it is a face image, display vertically\n"
p85
aS"        stim_type='faces'\n"
p86
aS"    elif trialdata['stim'].find('scenes')>-1:#\n"
p87
aS"        stim_type='scenes'\n"
p88
aS'    else:#if it is a character, display as text\n'
p89
aS"        stim_type='chinese_characters'\n"
p90
aS'        \n'
p91
aS"    visual_stim.setImage(trialdata['stim'])\n"
p92
aS"    trialdata['stim_type']=stim_type\n"
p93
aS'    \n'
p94
aS'        #visual_stim[stim_type].setAutoDraw(True)#get the image ready to display\n'
p95
aS'    visual_stim.draw()\n'
p96
aS"    while clock.getTime()<trialdata['onset']:#wait until the specified onset time to display image_file\n"
p97
aS'        pass\n'
p98
aS'    win.flip()\n'
p99
aS"    trialdata['actual_onset_time']=clock.getTime()\n"
p100
aS'    event.clearEvents()#clear all button presses\n'
p101
aS'    thisResp=None\n'
p102
aS'    simulated_rt=0.5 + N.random.rand()*0.1\n'
p103
aS"    while clock.getTime() < (trialdata['actual_onset_time'] + trialdata['duration']):#before the subdata['stim_dur'] time is exceeded, do this stuff...\n"
p104
aS'            key_response=event.getKeys()#look for yes,no, and quit commands\n'
p105
aS"            if subdata['simulated_response']:\n"
p106
aS"                if clock.getTime()> trialdata['actual_onset_time'] + simulated_rt:\n"
p107
aS'                    thisResp=1\n'
p108
aS"                    trialdata['rt']=clock.getTime() - trialdata['actual_onset_time'] #collect rt\n"
p109
aS"                    if trialdata['match']==trialdata['nback']:\n"
p110
aS"                        trialdata['response']='4'\n"
p111
aS'                    else:\n'
p112
aS"                        trialdata['response']='1'\n"
p113
ag14
aS'            elif key_response:#if they press any button\n'
p114
aS"                if key_response.count(subdata['quit_key'])>0:#if subj hits subdata['quit_key']...\n"
p115
aS'                    keep_going=0\n'
p116
aS"                    #subdata['broke_on_trial'][which_block]=trial_num\n"
p117
aS'                    #shut_down_cleanly(subdata,win)\n'
p118
aS'                    return None\n'
p119
aS"                elif key_response.count('5')>0:\n"
p120
aS"                    subdata['trigger_times'].append(clock.getTime())\n"
p121
aS'                else:\n'
p122
aS'                    thisResp=1\n'
p123
aS"                    trialdata['rt']=clock.getTime() - trialdata['actual_onset_time'] #collect rt\n"
p124
aS"                    trialdata['response']=key_response[0]#collect response\n"
p125
ag14
aS'    visual_stim.clearTextures()\n'
p126
ag14
aS'    win.flip()\n'
p127
ag14
aS'    #del visual_stim\n'
p128
aS'    return trialdata\n'
p129
aS'    \n'
p130
ag14
ag14
aS'#Text saying the task has finished. Disappears with key press\n'
p131
ag14
aS'def display_finished_text():#finished with experiment\n'
p132
aS'    event.clearEvents()\n'
p133
aS'    message=visual.TextStim(win=win, ori=0,\n'
p134
aS"    text='All finished! Thanks  :) \\n Press any key to clear the screen.',\n"
p135
aS"    font=u'BiauKai',pos=[0, 0], height=2,color=u'white', colorSpace=u'rgb', opacity=1,depth=0.0,alignHoriz='center',wrapWidth=50)\n"
p136
aS'    message.setAutoDraw(True) \n'
p137
aS'    win.flip()\n'
p138
aS'    start=False\n'
p139
aS'    while start==False:\n'
p140
aS'        key_response=event.getKeys()\n'
p141
aS'        if len(key_response)>0:\n'
p142
aS'            start=True\n'
p143
aS"            message.setText('')#this clears the screen\n"
p144
aS'            win.flip()\n'
p145
aS'    return start\n'
p146
aS'#- - - - - - - - - - - - - - - - - - - - - - - - - - - - - - - - - - - - - - - - - - - - - - - - - - - - - - - - - - - - - - - - - - - - - - \n'
p147
ag14
aS'    \n'
p148
aS'#set-up some variables\n'
p149
ag14
aS'verbose=True\n'
p150
aS'fullscr=False  # change to True for full screen display\n'
p151
ag14
aS"stim_types=['faces','scenes','chinese_characters']\n"
p152
aS'subdata={}\n'
p153
aS'finish_time=440\n'
p154
ag14
aS"subdata['start_key']='5'\n"
p155
aS"subdata['quit_key']='q'\n"
p156
aS"subdata['discard_time_to_wait']=0.0\n"
p157
aS"subdata['expt_title']='Self_Tracking'\n"
p158
aS"subdata['stim_dur']=1.0\n"
p159
aS"subdata['inter_stim_int']=1.0\n"
p160
aS"subdata['inst_time']=1.0\n"
p161
aS"subdata['rest_time']=10.0\n"
p162
aS"subdata['ExpVersion']=0.1\n"
p163
aS"subdata['nstims']=5\n"
p164
aS"subdata['ntrials_per_block']=6\n"
p165
aS"subdata['simulated_response']=False\n"
p166
aS"subdata['trigger_times']=[]\n"
p167
ag14
aS'if len(sys.argv)<2:\n'
p168
aS"    print 'USAGE: self_tracking.py <stimlist> <session code>'\n"
p169
aS'    sys.exit()\n'
p170
aS"    #subdata['onsetfile']='/Users/poldrack/Dropbox/Documents/Projects/self-tracking/task/onsetlists/stimlist_000.txt'\n"
p171
aS'else:\n'
p172
aS"    subdata['onsetfile']=sys.argv[1]\n"
p173
aS"    subdata['subcode']=sys.argv[2]\n"
p174
ag14
ag14
aS'# initialize subdata dictionary to store info about the study\n'
p175
aS"subdata['completed']=0\n"
p176
aS"subdata['cwd']=os.getcwd()\n"
p177
aS"subdata['hostname']=socket.gethostname()\n"
p178
aS'clock=core.Clock()\n'
p179
aS'datestamp=datetime.datetime.now().strftime("%Y-%m-%d-%H_%M_%S")\n'
p180
aS"subdata['datestamp']=datestamp\n"
p181
aS"subdata['expt_title']=subdata['expt_title']\n"
p182
aS"subdata['script']=store_scriptfile()\n"
p183
aS"subdata['onsets']=subdata['onsetfile']\n"
p184
ag14
aS'#these are all sub-dictionaries which will be appended w/separate info for each block & each trial\n'
p185
aS"#i.e., the 'response' dictionary will contain the following dictionaries: face_1, face_2, scenes_1, scenes_2, whose keys are trial_num and values are the responses on that trial\n"
p186
aS"subdata['response']={}\n"
p187
aS"subdata['score']={}\n"
p188
aS"subdata['rt']={}\n"
p189
aS"subdata['stim_onset_time']={}\n"
p190
aS"subdata['stim_log']={}\n"
p191
aS"subdata['is_this_SS_trial']={}\n"
p192
aS"subdata['SS']={}\n"
p193
aS"subdata['broke_on_trial']={}\n"
p194
ag14
aS'# set up logging information & create Output directories\n'
p195
aS"if not os.path.isdir('Output'):#make an Output directory if necessary\n"
p196
aS"    os.makedirs('Output') \n"
p197
ag14
aS"dataFileName='Output/%s_%s_subdata.log'%(subdata['subcode'],subdata['datestamp'])\n"
p198
aS'logging.console.setLevel(logging.INFO)\n'
p199
aS'logfile=logging.LogFile(dataFileName,level=logging.INFO)\n'
p200
ag14
aS'# load stimulus file\n'
p201
ag14
aS'def load_stimulus_file(onsfile):\n'
p202
aS'    events=[]\n'
p203
aS'    f=open(onsfile)\n'
p204
aS'    l=f.readlines()\n'
p205
aS'    for line in l:\n'
p206
aS"        l_s=line.strip('\\n').split('\\t')\n"
p207
aS'        events.append([float(l_s[0]),int(l_s[1]),int(l_s[2]),int(l_s[3]),l_s[4]])\n'
p208
aS'    f.close()\n'
p209
aS'    return events\n'
p210
ag14
aS"events=load_stimulus_file(subdata['onsetfile'])\n"
p211
ag14
aS'# set up the window \n'
p212
aS"win = visual.Window([800,600],allowGUI=True, fullscr=True, monitor='testMonitor', units='deg')\n"
p213
aS"win.setColor('black')\n"
p214
aS'win.flip()\n'
p215
aS'win.flip()\n'
p216
ag14
aS'#integrating everything together\n'
p217
ag14
aS"subdata['trialdata']={}\n"
p218
aS'#chardict=create_characters_dict()\n'
p219
ag14
aS"wait_for_trigger()#wait for subdata['start_key'] to be pressed\n"
p220
ag14
aS'visual_stim={}\n'
p221
aS"visual_stim=visual.ImageStim(win, image=N.zeros((10,10)), size=(0.75,0.75),units='height')\n"
p222
ag14
aS'# set clock to zero\n'
p223
aS'clock.reset()\n'
p224
aS'trialctr=0\n'
p225
aS'for i in range(len(events)):\n'
p226
aS"    if events[i][4]=='inst':\n"
p227
aS'        while clock.getTime() < events[i][0]:\n'
p228
aS'            pass\n'
p229
aS"        instructions(events[i][2],subdata['inst_time'])\n"
p230
aS'    else:\n'
p231
aS"        subdata['trialdata'][trialctr]=draw_stim(win,events[i],subdata,visual_stim)\n"
p232
aS"        if subdata['trialdata'][trialctr]==None:\n"
p233
aS'            break\n'
p234
aS'        trialctr+=1\n'
p235
aS"        print 'return time:',clock.getTime()\n"
p236
ag14
aS'#display_finished_text()\n'
p237
aS'while clock.getTime()<finish_time:\n'
p238
aS'\tpass\n'
p239
aS'\t\n'
p240
aS"subdata['events']=events\n"
p241
aS'if save_data==1:\n'
p242
aS"    docId,docRev=save_data_to_db(subdata,'selftracking-taskdata')\n"
p243
ag14
aS'shut_down_cleanly(subdata,win)\n'
p244
asS'onsets'
p245
S'onsetlists/stimlist_004.txt'
p246
sS'hostname'
p247
S'IRC-arizona'
p248
sS'score'
p249
(dp250
sS'rest_time'
p251
F10.0
sS'cwd'
p252
S'/Users/rap2623/Dropbox/Documents/Projects/self-tracking/task'
p253
sS'trigger_times'
p254
(lp255
F2.28141713142395
aF4.6015660762786865
aF6.92146110534668
aF8.081751108169556
aF10.400695085525513
aF12.720786094665527
aF16.200903177261353
aF18.52096199989319
aF20.84086799621582
aF24.32113814353943
aF26.641231060028076
aF28.961268186569214
aF30.121541023254395
aF32.441380977630615
aF34.76149296760559
aF38.24164915084839
aF40.561686992645264
aF42.881690979003906
aF46.361868143081665
aF48.68193817138672
aF51.00186204910278
aF52.162161111831665
aF54.482123136520386
aF56.80219507217407
aF60.282382011413574
aF62.60141897201538
aF64.92145013809204
aF68.40161609649658
aF70.72175097465515
aF74.20192098617554
aF76.52181696891785
aF78.84191513061523
aF82.32212400436401
aF84.6421229839325
aF86.96220898628235
aF90.44229316711426
aF92.76241111755371
aF96.24252510070801
aF98.56252813339233
aF100.88264513015747
aF102.04282999038696
aF104.36278700828552
aF106.68285703659058
aF109.00284910202026
aF112.4823100566864
aF114.80209708213806
aF118.28221797943115
aF120.60234999656677
aF122.9225389957428
aF124.08254814147949
aF126.40257501602173
aF128.7225480079651
aF154.24342703819275
aF156.56342196464539
aF158.8835141658783
aF160.04370999336243
aF162.36374497413635
aF164.68276715278625
aF167.00280618667603
aF168.16300201416016
aF170.4829080104828
aF172.80280900001526
aF176.28306412696838
aF178.60319709777832
aF180.92335414886475
aF182.08345103263855
aF184.4034140110016
aF186.7233591079712
aF190.2036190032959
aF192.52365016937256
aF194.84374809265137
aF198.32386708259583
aF200.64395403862
aF202.96392607688904
aF204.1241250038147
aF206.44406008720398
aF208.76416301727295
aF212.2443881034851
aF214.56333303451538
aF216.88343405723572
aF220.3635790348053
aF222.6838309764862
aF225.0035719871521
aF226.16385507583618
aF228.48378801345825
aF230.80395603179932
aF234.2839720249176
aF236.6040780544281
aF238.92413806915283
aF242.40409207344055
aF244.72430300712585
aF248.2044939994812
aF250.52448511123657
aF252.84457111358643
aF256.3246901035309
aF258.6448221206665
aF260.964812040329
aF264.44391417503357
aF266.76401710510254
aF270.24405908584595
aF272.5641770362854
aF274.8841781616211
aF276.04443407058716
aF278.36425709724426
aF280.6844551563263
aF283.0044631958008
aF306.20535016059875
aF308.5253281593323
aF310.8454201221466
aF314.3257381916046
aF316.6446771621704
aF318.9646770954132
aF320.12486600875854
aF322.44481205940247
aF324.76486802101135
aF328.24503898620605
aF330.565062046051
aF332.8850619792938
aF334.04531812667847
aF336.3652160167694
aF338.68534302711487
aF341.00549507141113
aF342.1655111312866
aF344.4855070114136
aF346.8055741786957
aF350.2857201099396
aF352.60594415664673
aF354.9258351325989
aF356.08602809906006
aF358.4059410095215
aF360.72602915763855
aF364.206178188324
aF366.525199174881
aF368.8453061580658
aF372.3254191875458
aF374.64541006088257
aF376.9655611515045
aF378.1257359981537
aF380.4456481933594
aF382.76573514938354
aF386.24585700035095
aF388.5659101009369
aF390.88597202301025
aF394.3660960197449
aF396.6861870288849
aF399.0061659812927
aF400.16633796691895
aF402.486319065094
aF404.80652618408203
aF408.28652715682983
aF410.6066291332245
aF412.92665100097656
aF416.4057240486145
aF418.72587513923645
aF422.20601511001587
aF424.5260109901428
aF426.8460261821747
aF430.32621216773987
aF432.6462860107422
aF434.96635603904724
asS'ExpVersion'
p256
F0.1
sS'completed'
p257
I0
sS'stim_dur'
p258
F1.0
sS'quit_key'
p259
S'q'
p260
sS'onsetfile'
p261
g246
sS'discard_time_to_wait'
p262
F0.0
sS'response'
p263
(dp264
sS'trialdata'
p265
(dp266
I0
(dp267
g8
F0.567979097366333
sS'stim'
p268
S'./stimfiles/chinese_characters/20793.jpg'
p269
sS'onset'
p270
F2.0
sS'stim_type'
p271
S'chinese_characters'
p272
sS'block'
p273
I0
sS'nback'
p274
I2
sS'duration'
p275
F1.0
sg263
S'1'
p276
sS'match'
p277
I0
sS'actual_onset_time'
p278
F2.016427993774414
ssI1
(dp279
g8
F0.8381600379943848
sg268
S'./stimfiles/chinese_characters/24593.jpg'
p280
sg270
F4.0
sg271
g272
sg273
I0
sg274
I2
sg275
F1.0
sg263
g276
sg277
I0
sg278
F4.017229080200195
ssI2
(dp281
g8
F0.8025951385498047
sg268
S'./stimfiles/chinese_characters/20533.jpg'
p282
sg270
F6.0
sg271
g272
sg273
I0
sg274
I2
sg275
F1.0
sg263
g276
sg277
I0
sg278
F6.018028020858765
ssI3
(dp283
g8
F0.734713077545166
sg268
S'./stimfiles/chinese_characters/20793.jpg'
p284
sg270
F8.0
sg271
g272
sg273
I0
sg274
I2
sg275
F1.0
sg263
g276
sg277
I3
sg278
F8.018902063369751
ssI4
(dp285
g8
F0.8439321517944336
sg268
S'./stimfiles/chinese_characters/20793.jpg'
p286
sg270
F10.0
sg271
g272
sg273
I0
sg274
I2
sg275
F1.0
sg263
g276
sg277
I1
sg278
F10.019737005233765
ssI5
(dp287
g8
F0.7721700668334961
sg268
S'./stimfiles/chinese_characters/26248.jpg'
p288
sg270
F12.0
sg271
g272
sg273
I0
sg274
I2
sg275
F1.0
sg263
g276
sg277
I0
sg278
F12.020565032958984
ssI6
(dp289
g8
F0.5194978713989258
sg268
S'./stimfiles/chinese_characters/20793.jpg'
p290
sg270
F14.0
sg271
g272
sg273
I0
sg274
I2
sg275
F1.0
sg263
S'4'
p291
sg277
I3
sg278
F14.021346092224121
ssI7
(dp292
g8
F0.7548718452453613
sg268
S'./stimfiles/chinese_characters/32024.jpg'
p293
sg270
F16.0
sg271
g272
sg273
I0
sg274
I2
sg275
F1.0
sg263
g276
sg277
I0
sg278
F16.02213716506958
ssI8
(dp294
g8
F0.49997782707214355
sg268
S'./stimfiles/chinese_characters/20793.jpg'
p295
sg270
F18.0
sg271
g272
sg273
I0
sg274
I2
sg275
F1.0
sg263
g291
sg277
I2
sg278
F18.023032188415527
ssI9
(dp296
g8
F0.9281740188598633
sg268
S'./stimfiles/chinese_characters/32024.jpg'
p297
sg270
F20.0
sg271
g272
sg273
I0
sg274
I2
sg275
F1.0
sg263
g291
sg277
I2
sg278
F20.023827075958252
ssI10
(dp298
g8
F0.8383049964904785
sg268
S'./stimfiles/faces/cropped_johannes1.png'
p299
sg270
F24.0
sg271
S'faces'
p300
sg273
I1
sg274
I2
sg275
F1.0
sg263
g276
sg277
I0
sg278
F24.008865118026733
ssI11
(dp301
g8
F0.7095551490783691
sg268
S'./stimfiles/faces/cropped_451.png'
p302
sg270
F26.0
sg271
g300
sg273
I1
sg274
I2
sg275
F1.0
sg263
g276
sg277
I0
sg278
F26.009670972824097
ssI12
(dp303
g8
F0.6417441368103027
sg268
S'./stimfiles/faces/cropped_370.png'
p304
sg270
F28.0
sg271
g300
sg273
I1
sg274
I2
sg275
F1.0
sg263
g276
sg277
I0
sg278
F28.010540008544922
ssI13
(dp305
g8
F0.7180559635162354
sg268
S'./stimfiles/faces/cropped_451.png'
p306
sg270
F30.0
sg271
g300
sg273
I1
sg274
I2
sg275
F1.0
sg263
g291
sg277
I2
sg278
F30.011308193206787
ssI14
(dp307
g8
F0.6281819343566895
sg268
S'./stimfiles/faces/cropped_589.png'
p308
sg270
F32.0
sg271
g300
sg273
I1
sg274
I2
sg275
F1.0
sg263
g276
sg277
I0
sg278
F32.01210904121399
ssI15
(dp309
g8
F0.6025021076202393
sg268
S'./stimfiles/faces/cropped_108.png'
p310
sg270
F34.0
sg271
g300
sg273
I1
sg274
I2
sg275
F1.0
sg263
g276
sg277
I0
sg278
F34.01301407814026
ssI16
(dp311
g8
F0.7357518672943115
sg268
S'./stimfiles/faces/cropped_589.png'
p312
sg270
F36.0
sg271
g300
sg273
I1
sg274
I2
sg275
F1.0
sg263
g276
sg277
I2
sg278
F36.013832092285156
ssI17
(dp313
g8
F0.7348339557647705
sg268
S'./stimfiles/faces/cropped_f4027.png'
p314
sg270
F38.0
sg271
g300
sg273
I1
sg274
I2
sg275
F1.0
sg263
g276
sg277
I0
sg278
F38.0146050453186
ssI18
(dp315
g8
F0.640294075012207
sg268
S'./stimfiles/faces/cropped_589.png'
p316
sg270
F40.0
sg271
g300
sg273
I1
sg274
I2
sg275
F1.0
sg263
g291
sg277
I2
sg278
F40.01548910140991
ssI19
(dp317
g8
F0.649432897567749
sg268
S'./stimfiles/faces/cropped_962.png'
p318
sg270
F42.0
sg271
g300
sg273
I1
sg274
I2
sg275
F1.0
sg263
g276
sg277
I0
sg278
F42.01635217666626
ssI20
(dp319
g8
F0.6589310169219971
sg268
S'./stimfiles/faces/cropped_986.png'
p320
sg270
F46.0
sg271
g300
sg273
I2
sg274
I1
sg275
F1.0
sg263
g276
sg277
I0
sg278
F46.017935037612915
ssI21
(dp321
g8
F0.5011711120605469
sg268
S'./stimfiles/faces/cropped_120.png'
p322
sg270
F48.0
sg271
g300
sg273
I2
sg274
I1
sg275
F1.0
sg263
g276
sg277
I0
sg278
F48.01876997947693
ssI22
(dp323
g8
F0.6454288959503174
sg268
S'./stimfiles/faces/cropped_754.png'
p324
sg270
F50.0
sg271
g300
sg273
I2
sg274
I1
sg275
F1.0
sg263
g276
sg277
I0
sg278
F50.01961612701416
ssI23
(dp325
g8
F0.5066828727722168
sg268
S'./stimfiles/faces/cropped_derek1.png'
p326
sg270
F52.0
sg271
g300
sg273
I2
sg274
I1
sg275
F1.0
sg263
g276
sg277
I0
sg278
F52.02049016952515
ssI24
(dp327
g8
F0.5147819519042969
sg268
S'./stimfiles/faces/cropped_529.png'
p328
sg270
F54.0
sg271
g300
sg273
I2
sg274
I1
sg275
F1.0
sg263
g276
sg277
I0
sg278
F54.021300077438354
ssI25
(dp329
g8
F0.7681488990783691
sg268
S'./stimfiles/faces/cropped_754.png'
p330
sg270
F56.0
sg271
g300
sg273
I2
sg274
I1
sg275
F1.0
sg263
g276
sg277
I3
sg278
F56.0220901966095
ssI26
(dp331
g8
F0.6023919582366943
sg268
S'./stimfiles/faces/cropped_116.png'
p332
sg270
F58.0
sg271
g300
sg273
I2
sg274
I1
sg275
F1.0
sg263
g276
sg277
I0
sg278
F58.02295207977295
ssI27
(dp333
g8
F0.5265438556671143
sg268
S'./stimfiles/faces/cropped_12.png'
p334
sg270
F60.0
sg271
g300
sg273
I2
sg274
I1
sg275
F1.0
sg263
g276
sg277
I0
sg278
F60.023728132247925
ssI28
(dp335
g8
F0.6397168636322021
sg268
S'./stimfiles/faces/cropped_12.png'
p336
sg270
F62.0
sg271
g300
sg273
I2
sg274
I1
sg275
F1.0
sg263
g291
sg277
I1
sg278
F62.02462315559387
ssI29
(dp337
g8
F0.6520981788635254
sg268
S'./stimfiles/faces/cropped_12.png'
p338
sg270
F64.0
sg271
g300
sg273
I2
sg274
I1
sg275
F1.0
sg263
g291
sg277
I1
sg278
F64.02541899681091
ssI30
(dp339
g268
S'./stimfiles/chinese_characters/24766.jpg'
p340
sg270
F68.0
sg271
g272
sg273
I3
sg274
I1
sg275
F1.0
sg277
I0
sg278
F68.0104501247406
ssI31
(dp341
g8
F0.5534069538116455
sg268
S'./stimfiles/chinese_characters/24766.jpg'
p342
sg270
F70.0
sg271
g272
sg273
I3
sg274
I1
sg275
F1.0
sg263
g291
sg277
I1
sg278
F70.01123404502869
ssI32
(dp343
g8
F0.43561410903930664
sg268
S'./stimfiles/chinese_characters/25417.jpg'
p344
sg270
F72.0
sg271
g272
sg273
I3
sg274
I1
sg275
F1.0
sg263
g276
sg277
I0
sg278
F72.01212406158447
ssI33
(dp345
g8
F0.4588179588317871
sg268
S'./stimfiles/chinese_characters/29746.jpg'
p346
sg270
F74.0
sg271
g272
sg273
I3
sg274
I1
sg275
F1.0
sg263
g276
sg277
I0
sg278
F74.012864112854
ssI34
(dp347
g8
F0.4501149654388428
sg268
S'./stimfiles/chinese_characters/24766.jpg'
p348
sg270
F76.0
sg271
g272
sg273
I3
sg274
I1
sg275
F1.0
sg263
g276
sg277
I3
sg278
F76.0137619972229
ssI35
(dp349
g8
F0.5543498992919922
sg268
S'./stimfiles/chinese_characters/24766.jpg'
p350
sg270
F78.0
sg271
g272
sg273
I3
sg274
I1
sg275
F1.0
sg263
g291
sg277
I1
sg278
F78.01457214355469
ssI36
(dp351
g8
F0.8345959186553955
sg268
S'./stimfiles/chinese_characters/35549.jpg'
p352
sg270
F80.0
sg271
g272
sg273
I3
sg274
I1
sg275
F1.0
sg263
g276
sg277
I0
sg278
F80.01541519165039
ssI37
(dp353
g8
F0.7749350070953369
sg268
S'./stimfiles/chinese_characters/35549.jpg'
p354
sg270
F82.0
sg271
g272
sg273
I3
sg274
I1
sg275
F1.0
sg263
g291
sg277
I1
sg278
F82.01626896858215
ssI38
(dp355
g8
F0.596107006072998
sg268
S'./stimfiles/chinese_characters/26034.jpg'
p356
sg270
F84.0
sg271
g272
sg273
I3
sg274
I1
sg275
F1.0
sg263
g276
sg277
I0
sg278
F84.0170590877533
ssI39
(dp357
g8
F0.5783162117004395
sg268
S'./stimfiles/chinese_characters/24802.jpg'
p358
sg270
F86.0
sg271
g272
sg273
I3
sg274
I1
sg275
F1.0
sg263
g276
sg277
I0
sg278
F86.01791596412659
ssI40
(dp359
g8
F0.8508670330047607
sg268
S'./stimfiles/scenes/1725.jpg'
p360
sg270
F90.0
sg271
S'scenes'
p361
sg273
I4
sg274
I1
sg275
F1.0
sg263
g276
sg277
I0
sg278
F90.01957106590271
ssI41
(dp362
g8
F0.61307692527771
sg268
S'./stimfiles/scenes/341.jpg'
p363
sg270
F92.0
sg271
g361
sg273
I4
sg274
I1
sg275
F1.0
sg263
g276
sg277
I0
sg278
F92.02039408683777
ssI42
(dp364
g8
F0.5552899837493896
sg268
S'./stimfiles/scenes/1871.jpg'
p365
sg270
F94.0
sg271
g361
sg273
I4
sg274
I1
sg275
F1.0
sg263
g276
sg277
I0
sg278
F94.02116107940674
ssI43
(dp366
g8
F0.5821230411529541
sg268
S'./stimfiles/scenes/967.jpg'
p367
sg270
F96.0
sg271
g361
sg273
I4
sg274
I1
sg275
F1.0
sg263
g276
sg277
I0
sg278
F96.0053780078888
ssI44
(dp368
g8
F0.5094659328460693
sg268
S'./stimfiles/scenes/1130.jpg'
p369
sg270
F98.0
sg271
g361
sg273
I4
sg274
I1
sg275
F1.0
sg263
g276
sg277
I0
sg278
F98.00612616539001
ssI45
(dp370
g8
F0.6596260070800781
sg268
S'./stimfiles/scenes/1741.jpg'
p371
sg270
F100.0
sg271
g361
sg273
I4
sg274
I1
sg275
F1.0
sg263
g276
sg277
I0
sg278
F100.00701904296875
ssI46
(dp372
g8
F0.5057740211486816
sg268
S'./stimfiles/scenes/1070.jpg'
p373
sg270
F102.0
sg271
g361
sg273
I4
sg274
I1
sg275
F1.0
sg263
g276
sg277
I0
sg278
F102.00787305831909
ssI47
(dp374
g8
F0.522104024887085
sg268
S'./stimfiles/scenes/1768.jpg'
p375
sg270
F104.0
sg271
g361
sg273
I4
sg274
I1
sg275
F1.0
sg263
g276
sg277
I0
sg278
F104.00871300697327
ssI48
(dp376
g8
F0.5512869358062744
sg268
S'./stimfiles/scenes/1768.jpg'
p377
sg270
F106.0
sg271
g361
sg273
I4
sg274
I1
sg275
F1.0
sg263
g291
sg277
I1
sg278
F106.00952816009521
ssI49
(dp378
g8
F0.5345699787139893
sg268
S'./stimfiles/scenes/1481.jpg'
p379
sg270
F108.0
sg271
g361
sg273
I4
sg274
I1
sg275
F1.0
sg263
g276
sg277
I0
sg278
F108.01030898094177
ssI50
(dp380
g8
F0.6970551013946533
sg268
S'./stimfiles/scenes/660.jpg'
p381
sg270
F112.0
sg271
g361
sg273
I5
sg274
I2
sg275
F1.0
sg263
g276
sg277
I0
sg278
F112.01199007034302
ssI51
(dp382
g8
F0.6323440074920654
sg268
S'./stimfiles/scenes/3039.jpg'
p383
sg270
F114.0
sg271
g361
sg273
I5
sg274
I2
sg275
F1.0
sg263
g276
sg277
I0
sg278
F114.01276397705078
ssI52
(dp384
g8
F0.8765578269958496
sg268
S'./stimfiles/scenes/3039.jpg'
p385
sg270
F116.0
sg271
g361
sg273
I5
sg274
I2
sg275
F1.0
sg263
g276
sg277
I1
sg278
F116.0136091709137
ssI53
(dp386
g8
F0.5566539764404297
sg268
S'./stimfiles/scenes/1705.jpg'
p387
sg270
F118.0
sg271
g361
sg273
I5
sg274
I2
sg275
F1.0
sg263
g276
sg277
I0
sg278
F118.0145251750946
ssI54
(dp388
g8
F0.6870560646057129
sg268
S'./stimfiles/scenes/1421.jpg'
p389
sg270
F120.0
sg271
g361
sg273
I5
sg274
I2
sg275
F1.0
sg263
g276
sg277
I0
sg278
F120.0152530670166
ssI55
(dp390
g8
F0.5042481422424316
sg268
S'./stimfiles/scenes/1267.jpg'
p391
sg270
F122.0
sg271
g361
sg273
I5
sg274
I2
sg275
F1.0
sg263
g276
sg277
I0
sg278
F122.0161030292511
ssI56
(dp392
g8
F0.5614428520202637
sg268
S'./stimfiles/scenes/1421.jpg'
p393
sg270
F124.0
sg271
g361
sg273
I5
sg274
I2
sg275
F1.0
sg263
g276
sg277
I2
sg278
F124.01693511009216
ssI57
(dp394
g8
F0.5306539535522461
sg268
S'./stimfiles/scenes/1241.jpg'
p395
sg270
F126.0
sg271
g361
sg273
I5
sg274
I2
sg275
F1.0
sg263
g276
sg277
I0
sg278
F126.01779413223267
ssI58
(dp396
g8
F0.5289480686187744
sg268
S'./stimfiles/scenes/1267.jpg'
p397
sg270
F128.0
sg271
g361
sg273
I5
sg274
I2
sg275
F1.0
sg263
g276
sg277
I3
sg278
F128.0185821056366
ssI59
(dp398
g8
F0.5431289672851562
sg268
S'./stimfiles/scenes/1694.jpg'
p399
sg270
F130.0
sg271
g361
sg273
I5
sg274
I2
sg275
F1.0
sg263
g276
sg277
I0
sg278
F130.01945209503174
ssI60
(dp400
g8
F0.503756046295166
sg268
S'./stimfiles/chinese_characters/25293.jpg'
p401
sg270
F154.0
sg271
g272
sg273
I6
sg274
I2
sg275
F1.0
sg263
g276
sg277
I0
sg278
F154.0126781463623
ssI61
(dp402
g8
F0.4239230155944824
sg268
S'./stimfiles/chinese_characters/25476.jpg'
p403
sg270
F156.0
sg271
g272
sg273
I6
sg274
I2
sg275
F1.0
sg263
g276
sg277
I0
sg278
F156.01354098320007
ssI62
(dp404
g8
F0.7011539936065674
sg268
S'./stimfiles/chinese_characters/29399.jpg'
p405
sg270
F158.0
sg271
g272
sg273
I6
sg274
I2
sg275
F1.0
sg263
g276
sg277
I0
sg278
F158.01439118385315
ssI63
(dp406
g8
F0.7603998184204102
sg268
S'./stimfiles/chinese_characters/25476.jpg'
p407
sg270
F160.0
sg271
g272
sg273
I6
sg274
I2
sg275
F1.0
sg263
g291
sg277
I2
sg278
F160.01517915725708
ssI64
(dp408
g8
F0.6517670154571533
sg268
S'./stimfiles/chinese_characters/24817.jpg'
p409
sg270
F162.0
sg271
g272
sg273
I6
sg274
I2
sg275
F1.0
sg263
g276
sg277
I0
sg278
F162.01598405838013
ssI65
(dp410
g8
F0.8948709964752197
sg268
S'./stimfiles/chinese_characters/25476.jpg'
p411
sg270
F164.0
sg271
g272
sg273
I6
sg274
I2
sg275
F1.0
sg263
g276
sg277
I2
sg278
F164.0168740749359
ssI66
(dp412
g8
F0.7690820693969727
sg268
S'./stimfiles/chinese_characters/25588.jpg'
p413
sg270
F166.0
sg271
g272
sg273
I6
sg274
I2
sg275
F1.0
sg263
g276
sg277
I0
sg278
F166.01766896247864
ssI67
(dp414
g268
S'./stimfiles/chinese_characters/25476.jpg'
p415
sg270
F168.0
sg271
g272
sg273
I6
sg274
I2
sg275
F1.0
sg277
I2
sg278
F168.01851296424866
ssI68
(dp416
g8
F0.8436589241027832
sg268
S'./stimfiles/chinese_characters/35545.jpg'
p417
sg270
F170.0
sg271
g272
sg273
I6
sg274
I2
sg275
F1.0
sg263
g291
sg277
I0
sg278
F170.01930117607117
ssI69
(dp418
g8
F0.7490119934082031
sg268
S'./stimfiles/chinese_characters/25588.jpg'
p419
sg270
F172.0
sg271
g272
sg273
I6
sg274
I2
sg275
F1.0
sg263
g291
sg277
I3
sg278
F172.02021718025208
ssI70
(dp420
g8
F0.6523091793060303
sg268
S'./stimfiles/faces/cropped_04047.png'
p421
sg270
F176.0
sg271
g300
sg273
I7
sg274
I2
sg275
F1.0
sg263
g276
sg277
I0
sg278
F176.02180099487305
ssI71
(dp422
g8
F0.5847580432891846
sg268
S'./stimfiles/faces/cropped_334.png'
p423
sg270
F178.0
sg271
g300
sg273
I7
sg274
I2
sg275
F1.0
sg263
g276
sg277
I0
sg278
F178.022696018219
ssI72
(dp424
g8
F0.5488779544830322
sg268
S'./stimfiles/faces/cropped_39MVC-003F.png'
p425
sg270
F180.0
sg271
g300
sg273
I7
sg274
I2
sg275
F1.0
sg263
g276
sg277
I0
sg278
F180.02350616455078
ssI73
(dp426
g8
F0.8721671104431152
sg268
S'./stimfiles/faces/cropped_04047.png'
p427
sg270
F182.0
sg271
g300
sg273
I7
sg274
I2
sg275
F1.0
sg263
g276
sg277
I3
sg278
F182.0243260860443
ssI74
(dp428
g8
F0.617150068283081
sg268
S'./stimfiles/faces/cropped_04047.png'
p429
sg270
F184.0
sg271
g300
sg273
I7
sg274
I2
sg275
F1.0
sg263
g276
sg277
I1
sg278
F184.02514696121216
ssI75
(dp430
g8
F0.652534008026123
sg268
S'./stimfiles/faces/cropped_04047.png'
p431
sg270
F186.0
sg271
g300
sg273
I7
sg274
I2
sg275
F1.0
sg263
g291
sg277
I1
sg278
F186.02597999572754
ssI76
(dp432
g8
F0.7013530731201172
sg268
S'./stimfiles/faces/cropped_04047.png'
p433
sg270
F188.0
sg271
g300
sg273
I7
sg274
I2
sg275
F1.0
sg263
g291
sg277
I3
sg278
F188.01015710830688
ssI77
(dp434
g8
F0.605583906173706
sg268
S'./stimfiles/faces/cropped_198.png'
p435
sg270
F190.0
sg271
g300
sg273
I7
sg274
I2
sg275
F1.0
sg263
g276
sg277
I0
sg278
F190.01100206375122
ssI78
(dp436
g8
F0.6878149509429932
sg268
S'./stimfiles/faces/cropped_198.png'
p437
sg270
F192.0
sg271
g300
sg273
I7
sg274
I2
sg275
F1.0
sg263
g276
sg277
I1
sg278
F192.01181411743164
ssI79
(dp438
g8
F0.8961310386657715
sg268
S'./stimfiles/faces/cropped_04047.png'
p439
sg270
F194.0
sg271
g300
sg273
I7
sg274
I2
sg275
F1.0
sg263
g276
sg277
I3
sg278
F194.01260113716125
ssI80
(dp440
g8
F0.6896440982818604
sg268
S'./stimfiles/faces/cropped_544.png'
p441
sg270
F198.0
sg271
g300
sg273
I8
sg274
I1
sg275
F1.0
sg263
g276
sg277
I0
sg278
F198.01421308517456
ssI81
(dp442
g8
F0.6888840198516846
sg268
S'./stimfiles/faces/cropped_509.png'
p443
sg270
F200.0
sg271
g300
sg273
I8
sg274
I1
sg275
F1.0
sg263
g276
sg277
I0
sg278
F200.015074968338
ssI82
(dp444
g8
F0.847135066986084
sg268
S'./stimfiles/faces/cropped_544.png'
p445
sg270
F202.0
sg271
g300
sg273
I8
sg274
I1
sg275
F1.0
sg263
g291
sg277
I2
sg278
F202.0159420967102
ssI83
(dp446
g8
F0.9743449687957764
sg268
S'./stimfiles/faces/cropped_509.png'
p447
sg270
F204.0
sg271
g300
sg273
I8
sg274
I1
sg275
F1.0
sg263
g291
sg277
I2
sg278
F204.01671600341797
ssI84
(dp448
g8
F0.5745208263397217
sg268
S'./stimfiles/faces/cropped_f4017.png'
p449
sg270
F206.0
sg271
g300
sg273
I8
sg274
I1
sg275
F1.0
sg263
g276
sg277
I0
sg278
F206.01755213737488
ssI85
(dp450
g8
F0.6295721530914307
sg268
S'./stimfiles/faces/cropped_544.png'
p451
sg270
F208.0
sg271
g300
sg273
I8
sg274
I1
sg275
F1.0
sg263
g276
sg277
I3
sg278
F208.01844000816345
ssI86
(dp452
g8
F0.7949750423431396
sg268
S'./stimfiles/faces/cropped_20MVC-003F.png'
p453
sg270
F210.0
sg271
g300
sg273
I8
sg274
I1
sg275
F1.0
sg263
g276
sg277
I0
sg278
F210.0192461013794
ssI87
(dp454
g8
F0.6502189636230469
sg268
S'./stimfiles/faces/cropped_169.png'
p455
sg270
F212.0
sg271
g300
sg273
I8
sg274
I1
sg275
F1.0
sg263
g276
sg277
I0
sg278
F212.02002215385437
ssI88
(dp456
g8
F0.8134791851043701
sg268
S'./stimfiles/faces/cropped_111.png'
p457
sg270
F214.0
sg271
g300
sg273
I8
sg274
I1
sg275
F1.0
sg263
g276
sg277
I0
sg278
F214.02086400985718
ssI89
(dp458
g8
F0.5566270351409912
sg268
S'./stimfiles/faces/cropped_583.png'
p459
sg270
F216.0
sg271
g300
sg273
I8
sg274
I1
sg275
F1.0
sg263
g276
sg277
I0
sg278
F216.02175998687744
ssI90
(dp460
g8
F0.5751900672912598
sg268
S'./stimfiles/chinese_characters/25642.jpg'
p461
sg270
F220.0
sg271
g272
sg273
I9
sg274
I1
sg275
F1.0
sg263
g276
sg277
I0
sg278
F220.02333998680115
ssI91
(dp462
g8
F0.5723588466644287
sg268
S'./stimfiles/chinese_characters/25400.jpg'
p463
sg270
F222.0
sg271
g272
sg273
I9
sg274
I1
sg275
F1.0
sg263
g276
sg277
I0
sg278
F222.02424716949463
ssI92
(dp464
g8
F0.5186638832092285
sg268
S'./stimfiles/chinese_characters/27491.jpg'
p465
sg270
F224.0
sg271
g272
sg273
I9
sg274
I1
sg275
F1.0
sg263
g276
sg277
I0
sg278
F224.025071144104
ssI93
(dp466
g8
F0.9055180549621582
sg268
S'./stimfiles/chinese_characters/25642.jpg'
p467
sg270
F226.0
sg271
g272
sg273
I9
sg274
I1
sg275
F1.0
sg263
g276
sg277
I3
sg278
F226.00920605659485
ssI94
(dp468
g8
F0.6260991096496582
sg268
S'./stimfiles/chinese_characters/27491.jpg'
p469
sg270
F228.0
sg271
g272
sg273
I9
sg274
I1
sg275
F1.0
sg263
g276
sg277
I2
sg278
F228.02672600746155
ssI95
(dp470
g8
F0.457974910736084
sg268
S'./stimfiles/chinese_characters/27491.jpg'
p471
sg270
F230.0
sg271
g272
sg273
I9
sg274
I1
sg275
F1.0
sg263
g291
sg277
I1
sg278
F230.01082015037537
ssI96
(dp472
g8
F0.5533468723297119
sg268
S'./stimfiles/chinese_characters/25806.jpg'
p473
sg270
F232.0
sg271
g272
sg273
I9
sg274
I1
sg275
F1.0
sg263
g276
sg277
I0
sg278
F232.01169419288635
ssI97
(dp474
g8
F0.6524569988250732
sg268
S'./stimfiles/chinese_characters/37280.jpg'
p475
sg270
F234.0
sg271
g272
sg273
I9
sg274
I1
sg275
F1.0
sg263
g276
sg277
I0
sg278
F234.01251912117004
ssI98
(dp476
g8
F0.7607421875
sg268
S'./stimfiles/chinese_characters/29864.jpg'
p477
sg270
F236.0
sg271
g272
sg273
I9
sg274
I1
sg275
F1.0
sg263
g276
sg277
I0
sg278
F236.01337099075317
ssI99
(dp478
g8
F0.6589689254760742
sg268
S'./stimfiles/chinese_characters/25806.jpg'
p479
sg270
F238.0
sg271
g272
sg273
I9
sg274
I1
sg275
F1.0
sg263
g276
sg277
I3
sg278
F238.01417708396912
ssI100
(dp480
g8
F0.6973390579223633
sg268
S'./stimfiles/scenes/712.jpg'
p481
sg270
F242.0
sg271
g361
sg273
I10
sg274
I1
sg275
F1.0
sg263
g276
sg277
I0
sg278
F242.0158450603485
ssI101
(dp482
g8
F0.5776469707489014
sg268
S'./stimfiles/scenes/1082.jpg'
p483
sg270
F244.0
sg271
g361
sg273
I10
sg274
I1
sg275
F1.0
sg263
g276
sg277
I0
sg278
F244.01664304733276
ssI102
(dp484
g8
F0.5398898124694824
sg268
S'./stimfiles/scenes/712.jpg'
p485
sg270
F246.0
sg271
g361
sg273
I10
sg274
I1
sg275
F1.0
sg263
g276
sg277
I2
sg278
F246.0175051689148
ssI103
(dp486
g8
F0.560164213180542
sg268
S'./stimfiles/scenes/1082.jpg'
p487
sg270
F248.0
sg271
g361
sg273
I10
sg274
I1
sg275
F1.0
sg263
g276
sg277
I2
sg278
F248.01827096939087
ssI104
(dp488
g8
F0.6064128875732422
sg268
S'./stimfiles/scenes/1082.jpg'
p489
sg270
F250.0
sg271
g361
sg273
I10
sg274
I1
sg275
F1.0
sg263
g291
sg277
I1
sg278
F250.01908111572266
ssI105
(dp490
g8
F0.5646100044250488
sg268
S'./stimfiles/scenes/1791.jpg'
p491
sg270
F252.0
sg271
g361
sg273
I10
sg274
I1
sg275
F1.0
sg263
g276
sg277
I0
sg278
F252.01997113227844
ssI106
(dp492
g8
F0.6938560009002686
sg268
S'./stimfiles/scenes/1082.jpg'
p493
sg270
F254.0
sg271
g361
sg273
I10
sg274
I1
sg275
F1.0
sg263
g276
sg277
I3
sg278
F254.0207781791687
ssI107
(dp494
g8
F0.5640978813171387
sg268
S'./stimfiles/scenes/711.jpg'
p495
sg270
F256.0
sg271
g361
sg273
I10
sg274
I1
sg275
F1.0
sg263
g276
sg277
I0
sg278
F256.0215861797333
ssI108
(dp496
g8
F0.7483060359954834
sg268
S'./stimfiles/scenes/1082.jpg'
p497
sg270
F258.0
sg271
g361
sg273
I10
sg274
I1
sg275
F1.0
sg263
g276
sg277
I2
sg278
F258.0224440097809
ssI109
(dp498
g8
F0.6751561164855957
sg268
S'./stimfiles/scenes/481.jpg'
p499
sg270
F260.0
sg271
g361
sg273
I10
sg274
I1
sg275
F1.0
sg263
g276
sg277
I0
sg278
F260.0066809654236
ssI110
(dp500
g8
F0.6227099895477295
sg268
S'./stimfiles/scenes/1783.jpg'
p501
sg270
F264.0
sg271
g361
sg273
I11
sg274
I2
sg275
F1.0
sg263
g276
sg277
I0
sg278
F264.00825810432434
ssI111
(dp502
g8
F0.5299961566925049
sg268
S'./stimfiles/scenes/0.jpg'
p503
sg270
F266.0
sg271
g361
sg273
I11
sg274
I2
sg275
F1.0
sg263
g276
sg277
I0
sg278
F266.00903701782227
ssI112
(dp504
g8
F0.6992201805114746
sg268
S'./stimfiles/scenes/1783.jpg'
p505
sg270
F268.0
sg271
g361
sg273
I11
sg274
I2
sg275
F1.0
sg263
g291
sg277
I2
sg278
F268.0098719596863
ssI113
(dp506
g8
F0.8144569396972656
sg268
S'./stimfiles/scenes/0.jpg'
p507
sg270
F270.0
sg271
g361
sg273
I11
sg274
I2
sg275
F1.0
sg263
g291
sg277
I2
sg278
F270.0106761455536
ssI114
(dp508
g8
F0.532660961151123
sg268
S'./stimfiles/scenes/383.jpg'
p509
sg270
F272.0
sg271
g361
sg273
I11
sg274
I2
sg275
F1.0
sg263
g276
sg277
I0
sg278
F272.0116140842438
ssI115
(dp510
g8
F0.743865966796875
sg268
S'./stimfiles/scenes/1783.jpg'
p511
sg270
F274.0
sg271
g361
sg273
I11
sg274
I2
sg275
F1.0
sg263
g276
sg277
I3
sg278
F274.01244616508484
ssI116
(dp512
g8
F0.7871360778808594
sg268
S'./stimfiles/scenes/383.jpg'
p513
sg270
F276.0
sg271
g361
sg273
I11
sg274
I2
sg275
F1.0
sg263
g291
sg277
I2
sg278
F276.01320004463196
ssI117
(dp514
g8
F0.7894189357757568
sg268
S'./stimfiles/scenes/1783.jpg'
p515
sg270
F278.0
sg271
g361
sg273
I11
sg274
I2
sg275
F1.0
sg263
g291
sg277
I2
sg278
F278.01400804519653
ssI118
(dp516
g8
F0.6176059246063232
sg268
S'./stimfiles/scenes/1166.jpg'
p517
sg270
F280.0
sg271
g361
sg273
I11
sg274
I2
sg275
F1.0
sg263
g276
sg277
I0
sg278
F280.0148401260376
ssI119
(dp518
g8
F0.5868561267852783
sg268
S'./stimfiles/scenes/1176.jpg'
p519
sg270
F282.0
sg271
g361
sg273
I11
sg274
I2
sg275
F1.0
sg263
g276
sg277
I0
sg278
F282.0156919956207
ssI120
(dp520
g8
F0.5876390933990479
sg268
S'./stimfiles/chinese_characters/26269.jpg'
p521
sg270
F306.0
sg271
g272
sg273
I12
sg274
I2
sg275
F1.0
sg263
g276
sg277
I0
sg278
F306.02568197250366
ssI121
(dp522
g8
F0.5458898544311523
sg268
S'./stimfiles/chinese_characters/25151.jpg'
p523
sg270
F308.0
sg271
g272
sg273
I12
sg274
I2
sg275
F1.0
sg263
g276
sg277
I0
sg278
F308.02646112442017
ssI122
(dp524
g8
F0.63185715675354
sg268
S'./stimfiles/chinese_characters/25401.jpg'
p525
sg270
F310.0
sg271
g272
sg273
I12
sg274
I2
sg275
F1.0
sg263
g276
sg277
I0
sg278
F310.01058197021484
ssI123
(dp526
g8
F0.8590729236602783
sg268
S'./stimfiles/chinese_characters/26155.jpg'
p527
sg270
F312.0
sg271
g272
sg273
I12
sg274
I2
sg275
F1.0
sg263
g291
sg277
I0
sg278
F312.01141810417175
ssI124
(dp528
g8
F0.7432661056518555
sg268
S'./stimfiles/chinese_characters/26595.jpg'
p529
sg270
F314.0
sg271
g272
sg273
I12
sg274
I2
sg275
F1.0
sg263
g276
sg277
I0
sg278
F314.012305021286
ssI125
(dp530
g8
F0.8546497821807861
sg268
S'./stimfiles/chinese_characters/26595.jpg'
p531
sg270
F316.0
sg271
g272
sg273
I12
sg274
I2
sg275
F1.0
sg263
g276
sg277
I1
sg278
F316.0130271911621
ssI126
(dp532
g8
F0.566748857498169
sg268
S'./stimfiles/chinese_characters/26595.jpg'
p533
sg270
F318.0
sg271
g272
sg273
I12
sg274
I2
sg275
F1.0
sg263
g291
sg277
I1
sg278
F318.0139591693878
ssI127
(dp534
g8
F0.6080269813537598
sg268
S'./stimfiles/chinese_characters/37221.jpg'
p535
sg270
F320.0
sg271
g272
sg273
I12
sg274
I2
sg275
F1.0
sg263
g276
sg277
I0
sg278
F320.0147271156311
ssI128
(dp536
g8
F0.637286901473999
sg268
S'./stimfiles/chinese_characters/29835.jpg'
p537
sg270
F322.0
sg271
g272
sg273
I12
sg274
I2
sg275
F1.0
sg263
g276
sg277
I0
sg278
F322.0155951976776
ssI129
(dp538
g8
F0.6904881000518799
sg268
S'./stimfiles/chinese_characters/37221.jpg'
p539
sg270
F324.0
sg271
g272
sg273
I12
sg274
I2
sg275
F1.0
sg263
g276
sg277
I2
sg278
F324.0164110660553
ssI130
(dp540
g8
F0.6248819828033447
sg268
S'./stimfiles/faces/cropped_687.png'
p541
sg270
F328.0
sg271
g300
sg273
I13
sg274
I2
sg275
F1.0
sg263
g276
sg277
I0
sg278
F328.01811504364014
ssI131
(dp542
g8
F0.5761349201202393
sg268
S'./stimfiles/faces/cropped_856.png'
p543
sg270
F330.0
sg271
g300
sg273
I13
sg274
I2
sg275
F1.0
sg263
g276
sg277
I0
sg278
F330.01889419555664
ssI132
(dp544
g8
F0.6292970180511475
sg268
S'./stimfiles/faces/cropped_259.png'
p545
sg270
F332.0
sg271
g300
sg273
I13
sg274
I2
sg275
F1.0
sg263
g276
sg277
I0
sg278
F332.0197219848633
ssI133
(dp546
g8
F0.6437070369720459
sg268
S'./stimfiles/faces/cropped_308.png'
p547
sg270
F334.0
sg271
g300
sg273
I13
sg274
I2
sg275
F1.0
sg263
g276
sg277
I0
sg278
F334.02050399780273
ssI134
(dp548
g8
F0.7348189353942871
sg268
S'./stimfiles/faces/cropped_00571015.png'
p549
sg270
F336.0
sg271
g300
sg273
I13
sg274
I2
sg275
F1.0
sg263
g276
sg277
I0
sg278
F336.021427154541
ssI135
(dp550
g8
F0.5160629749298096
sg268
S'./stimfiles/faces/cropped_308.png'
p551
sg270
F338.0
sg271
g300
sg273
I13
sg274
I2
sg275
F1.0
sg263
g291
sg277
I2
sg278
F338.0222370624542
ssI136
(dp552
g8
F0.7864739894866943
sg268
S'./stimfiles/faces/cropped_697.png'
p553
sg270
F340.0
sg271
g300
sg273
I13
sg274
I2
sg275
F1.0
sg263
g276
sg277
I0
sg278
F340.0229880809784
ssI137
(dp554
g8
F0.7075719833374023
sg268
S'./stimfiles/faces/cropped_308.png'
p555
sg270
F342.0
sg271
g300
sg273
I13
sg274
I2
sg275
F1.0
sg263
g291
sg277
I2
sg278
F342.023885011673
ssI138
(dp556
g8
F0.5858409404754639
sg268
S'./stimfiles/faces/cropped_107.png'
p557
sg270
F344.0
sg271
g300
sg273
I13
sg274
I2
sg275
F1.0
sg263
g276
sg277
I0
sg278
F344.02466011047363
ssI139
(dp558
g8
F0.748103141784668
sg268
S'./stimfiles/faces/cropped_308.png'
p559
sg270
F346.0
sg271
g300
sg273
I13
sg274
I2
sg275
F1.0
sg263
g276
sg277
I2
sg278
F346.02551102638245
ssI140
(dp560
g8
F0.6965367794036865
sg268
S'./stimfiles/faces/cropped_dbell1.png'
p561
sg270
F350.0
sg271
g300
sg273
I14
sg274
I1
sg275
F1.0
sg263
g276
sg277
I0
sg278
F350.0271441936493
ssI141
(dp562
g8
F0.7104809284210205
sg268
S'./stimfiles/faces/cropped_dbell1.png'
p563
sg270
F352.0
sg271
g300
sg273
I14
sg274
I1
sg275
F1.0
sg263
g291
sg277
I1
sg278
F352.011283159256
ssI142
(dp564
g8
F0.6406190395355225
sg268
S'./stimfiles/faces/cropped_179.png'
p565
sg270
F354.0
sg271
g300
sg273
I14
sg274
I1
sg275
F1.0
sg263
g276
sg277
I0
sg278
F354.01214599609375
ssI143
(dp566
g8
F0.6009500026702881
sg268
S'./stimfiles/faces/cropped_17MVC-003F.png'
p567
sg270
F356.0
sg271
g300
sg273
I14
sg274
I1
sg275
F1.0
sg263
g276
sg277
I0
sg278
F356.0129840373993
ssI144
(dp568
g8
F0.7711138725280762
sg268
S'./stimfiles/faces/cropped_179.png'
p569
sg270
F358.0
sg271
g300
sg273
I14
sg274
I1
sg275
F1.0
sg263
g276
sg277
I2
sg278
F358.01383209228516
ssI145
(dp570
g8
F0.9344089031219482
sg268
S'./stimfiles/faces/cropped_179.png'
p571
sg270
F360.0
sg271
g300
sg273
I14
sg274
I1
sg275
F1.0
sg263
g291
sg277
I1
sg278
F360.0146040916443
ssI146
(dp572
g8
F0.7636101245880127
sg268
S'./stimfiles/faces/cropped_179.png'
p573
sg270
F362.0
sg271
g300
sg273
I14
sg274
I1
sg275
F1.0
sg263
g291
sg277
I1
sg278
F362.01550698280334
ssI147
(dp574
g8
F0.7548251152038574
sg268
S'./stimfiles/faces/cropped_179.png'
p575
sg270
F364.0
sg271
g300
sg273
I14
sg274
I1
sg275
F1.0
sg263
g291
sg277
I3
sg278
F364.01633501052856
ssI148
(dp576
g8
F0.6101400852203369
sg268
S'./stimfiles/faces/cropped_179.png'
p577
sg270
F366.0
sg271
g300
sg273
I14
sg274
I1
sg275
F1.0
sg263
g291
sg277
I1
sg278
F366.0170660018921
ssI149
(dp578
g8
F0.5052227973937988
sg268
S'./stimfiles/faces/cropped_112.png'
p579
sg270
F368.0
sg271
g300
sg273
I14
sg274
I1
sg275
F1.0
sg263
g276
sg277
I0
sg278
F368.0179271697998
ssI150
(dp580
g8
F0.5147879123687744
sg268
S'./stimfiles/chinese_characters/26204.jpg'
p581
sg270
F372.0
sg271
g272
sg273
I15
sg274
I1
sg275
F1.0
sg263
g276
sg277
I0
sg278
F372.0195691585541
ssI151
(dp582
g8
F0.6730790138244629
sg268
S'./stimfiles/chinese_characters/25487.jpg'
p583
sg270
F374.0
sg271
g272
sg273
I15
sg274
I1
sg275
F1.0
sg263
g276
sg277
I0
sg278
F374.02037501335144
ssI152
(dp584
g8
F0.5963029861450195
sg268
S'./stimfiles/chinese_characters/31380.jpg'
p585
sg270
F376.0
sg271
g272
sg273
I15
sg274
I1
sg275
F1.0
sg263
g276
sg277
I0
sg278
F376.02125811576843
ssI153
(dp586
g8
F0.5885179042816162
sg268
S'./stimfiles/chinese_characters/26355.jpg'
p587
sg270
F378.0
sg271
g272
sg273
I15
sg274
I1
sg275
F1.0
sg263
g276
sg277
I0
sg278
F378.02209305763245
ssI154
(dp588
g8
F0.5368340015411377
sg268
S'./stimfiles/chinese_characters/31380.jpg'
p589
sg270
F380.0
sg271
g272
sg273
I15
sg274
I1
sg275
F1.0
sg263
g276
sg277
I2
sg278
F380.02287697792053
ssI155
(dp590
g8
F0.44611382484436035
sg268
S'./stimfiles/chinese_characters/31380.jpg'
p591
sg270
F382.0
sg271
g272
sg273
I15
sg274
I1
sg275
F1.0
sg263
g291
sg277
I1
sg278
F382.02373814582825
ssI156
(dp592
g8
F0.9543790817260742
sg268
S'./stimfiles/chinese_characters/24643.jpg'
p593
sg270
F384.0
sg271
g272
sg273
I15
sg274
I1
sg275
F1.0
sg263
g276
sg277
I0
sg278
F384.0245180130005
ssI157
(dp594
g8
F0.6214699745178223
sg268
S'./stimfiles/chinese_characters/35388.jpg'
p595
sg270
F386.0
sg271
g272
sg273
I15
sg274
I1
sg275
F1.0
sg263
g276
sg277
I0
sg278
F386.0253961086273
ssI158
(dp596
g8
F0.5766568183898926
sg268
S'./stimfiles/chinese_characters/24643.jpg'
p597
sg270
F388.0
sg271
g272
sg273
I15
sg274
I1
sg275
F1.0
sg263
g276
sg277
I2
sg278
F388.02621817588806
ssI159
(dp598
g8
F0.7219250202178955
sg268
S'./stimfiles/chinese_characters/24643.jpg'
p599
sg270
F390.0
sg271
g272
sg273
I15
sg274
I1
sg275
F1.0
sg263
g291
sg277
I1
sg278
F390.0270531177521
ssI160
(dp600
g8
F0.5829439163208008
sg268
S'./stimfiles/scenes/1316.jpg'
p601
sg270
F394.0
sg271
g361
sg273
I16
sg274
I1
sg275
F1.0
sg263
g276
sg277
I0
sg278
F394.01206707954407
ssI161
(dp602
g8
F0.7923150062561035
sg268
S'./stimfiles/scenes/1316.jpg'
p603
sg270
F396.0
sg271
g361
sg273
I16
sg274
I1
sg275
F1.0
sg263
g291
sg277
I1
sg278
F396.0128619670868
ssI162
(dp604
g8
F0.4674978256225586
sg268
S'./stimfiles/scenes/1316.jpg'
p605
sg270
F398.0
sg271
g361
sg273
I16
sg274
I1
sg275
F1.0
sg263
g291
sg277
I1
sg278
F398.01362013816833
ssI163
(dp606
g8
F0.5357048511505127
sg268
S'./stimfiles/scenes/1316.jpg'
p607
sg270
F400.0
sg271
g361
sg273
I16
sg274
I1
sg275
F1.0
sg263
g291
sg277
I1
sg278
F400.01447916030884
ssI164
(dp608
g8
F0.4570200443267822
sg268
S'./stimfiles/scenes/933.jpg'
p609
sg270
F402.0
sg271
g361
sg273
I16
sg274
I1
sg275
F1.0
sg263
g276
sg277
I0
sg278
F402.015349149704
ssI165
(dp610
g8
F0.8452658653259277
sg268
S'./stimfiles/scenes/1316.jpg'
p611
sg270
F404.0
sg271
g361
sg273
I16
sg274
I1
sg275
F1.0
sg263
g276
sg277
I3
sg278
F404.0161681175232
ssI166
(dp612
g8
F0.5625419616699219
sg268
S'./stimfiles/scenes/1316.jpg'
p613
sg270
F406.0
sg271
g361
sg273
I16
sg274
I1
sg275
F1.0
sg263
g276
sg277
I1
sg278
F406.01699709892273
ssI167
(dp614
g8
F0.640779972076416
sg268
S'./stimfiles/scenes/3112.jpg'
p615
sg270
F408.0
sg271
g361
sg273
I16
sg274
I1
sg275
F1.0
sg263
g276
sg277
I0
sg278
F408.01777601242065
ssI168
(dp616
g8
F0.8439669609069824
sg268
S'./stimfiles/scenes/1316.jpg'
p617
sg270
F410.0
sg271
g361
sg273
I16
sg274
I1
sg275
F1.0
sg263
g276
sg277
I3
sg278
F410.0186400413513
ssI169
(dp618
g8
F0.6124179363250732
sg268
S'./stimfiles/scenes/856.jpg'
p619
sg270
F412.0
sg271
g361
sg273
I16
sg274
I1
sg275
F1.0
sg263
g276
sg277
I0
sg278
F412.0194790363312
ssI170
(dp620
g8
F0.5746371746063232
sg268
S'./stimfiles/scenes/1590.jpg'
p621
sg270
F416.0
sg271
g361
sg273
I17
sg274
I2
sg275
F1.0
sg263
g276
sg277
I0
sg278
F416.02115297317505
ssI171
(dp622
g8
F0.6278820037841797
sg268
S'./stimfiles/scenes/847.jpg'
p623
sg270
F418.0
sg271
g361
sg273
I17
sg274
I2
sg275
F1.0
sg263
g276
sg277
I0
sg278
F418.02189016342163
ssI172
(dp624
g8
F0.6810920238494873
sg268
S'./stimfiles/scenes/513.jpg'
p625
sg270
F420.0
sg271
g361
sg273
I17
sg274
I2
sg275
F1.0
sg263
g276
sg277
I0
sg278
F420.0228991508484
ssI173
(dp626
g268
S'./stimfiles/scenes/513.jpg'
p627
sg270
F422.0
sg271
g361
sg273
I17
sg274
I2
sg275
F1.0
sg277
I1
sg278
F422.0236451625824
ssI174
(dp628
g8
F0.8613078594207764
sg268
S'./stimfiles/scenes/847.jpg'
p629
sg270
F424.0
sg271
g361
sg273
I17
sg274
I2
sg275
F1.0
sg263
g276
sg277
I3
sg278
F424.00776410102844
ssI175
(dp630
g8
F0.8306131362915039
sg268
S'./stimfiles/scenes/1410.jpg'
p631
sg270
F426.0
sg271
g361
sg273
I17
sg274
I2
sg275
F1.0
sg263
g276
sg277
I0
sg278
F426.0085480213165
ssI176
(dp632
g8
F0.7117698192596436
sg268
S'./stimfiles/scenes/807.jpg'
p633
sg270
F428.0
sg271
g361
sg273
I17
sg274
I2
sg275
F1.0
sg263
g276
sg277
I0
sg278
F428.00939416885376
ssI177
(dp634
g8
F0.6270260810852051
sg268
S'./stimfiles/scenes/663.jpg'
p635
sg270
F430.0
sg271
g361
sg273
I17
sg274
I2
sg275
F1.0
sg263
g276
sg277
I0
sg278
F430.01021909713745
ssI178
(dp636
g8
F0.6292610168457031
sg268
S'./stimfiles/scenes/807.jpg'
p637
sg270
F432.0
sg271
g361
sg273
I17
sg274
I2
sg275
F1.0
sg263
g291
sg277
I2
sg278
F432.01104712486267
ssI179
(dp638
g8
F0.8174560070037842
sg268
S'./stimfiles/scenes/807.jpg'
p639
sg270
F434.0
sg271
g361
sg273
I17
sg274
I2
sg275
F1.0
sg263
g276
sg277
I1
sg278
F434.01193618774414
sssS'stim_log'
p640
(dp641
sS'nstims'
p642
I5
sS'inter_stim_int'
p643
F1.0
sS'SS'
p644
(dp645
sS'inst_time'
p646
F1.0
sS'broke_on_trial'
p647
(dp648
sS'events'
p649
(lp650
(lp651
F0.0
aI0
aI2
aI0
aS'inst'
p652
aa(lp653
F2.0
aI0
aI2
aI0
ag269
aa(lp654
F4.0
aI0
aI2
aI0
ag280
aa(lp655
F6.0
aI0
aI2
aI0
ag282
aa(lp656
F8.0
aI0
aI2
aI3
ag284
aa(lp657
F10.0
aI0
aI2
aI1
ag286
aa(lp658
F12.0
aI0
aI2
aI0
ag288
aa(lp659
F14.0
aI0
aI2
aI3
ag290
aa(lp660
F16.0
aI0
aI2
aI0
ag293
aa(lp661
F18.0
aI0
aI2
aI2
ag295
aa(lp662
F20.0
aI0
aI2
aI2
ag297
aa(lp663
F22.0
aI1
aI2
aI0
aS'inst'
p664
aa(lp665
F24.0
aI1
aI2
aI0
ag299
aa(lp666
F26.0
aI1
aI2
aI0
ag302
aa(lp667
F28.0
aI1
aI2
aI0
ag304
aa(lp668
F30.0
aI1
aI2
aI2
ag306
aa(lp669
F32.0
aI1
aI2
aI0
ag308
aa(lp670
F34.0
aI1
aI2
aI0
ag310
aa(lp671
F36.0
aI1
aI2
aI2
ag312
aa(lp672
F38.0
aI1
aI2
aI0
ag314
aa(lp673
F40.0
aI1
aI2
aI2
ag316
aa(lp674
F42.0
aI1
aI2
aI0
ag318
aa(lp675
F44.0
aI2
aI1
aI0
aS'inst'
p676
aa(lp677
F46.0
aI2
aI1
aI0
ag320
aa(lp678
F48.0
aI2
aI1
aI0
ag322
aa(lp679
F50.0
aI2
aI1
aI0
ag324
aa(lp680
F52.0
aI2
aI1
aI0
ag326
aa(lp681
F54.0
aI2
aI1
aI0
ag328
aa(lp682
F56.0
aI2
aI1
aI3
ag330
aa(lp683
F58.0
aI2
aI1
aI0
ag332
aa(lp684
F60.0
aI2
aI1
aI0
ag334
aa(lp685
F62.0
aI2
aI1
aI1
ag336
aa(lp686
F64.0
aI2
aI1
aI1
ag338
aa(lp687
F66.0
aI3
aI1
aI0
aS'inst'
p688
aa(lp689
F68.0
aI3
aI1
aI0
ag340
aa(lp690
F70.0
aI3
aI1
aI1
ag342
aa(lp691
F72.0
aI3
aI1
aI0
ag344
aa(lp692
F74.0
aI3
aI1
aI0
ag346
aa(lp693
F76.0
aI3
aI1
aI3
ag348
aa(lp694
F78.0
aI3
aI1
aI1
ag350
aa(lp695
F80.0
aI3
aI1
aI0
ag352
aa(lp696
F82.0
aI3
aI1
aI1
ag354
aa(lp697
F84.0
aI3
aI1
aI0
ag356
aa(lp698
F86.0
aI3
aI1
aI0
ag358
aa(lp699
F88.0
aI4
aI1
aI0
aS'inst'
p700
aa(lp701
F90.0
aI4
aI1
aI0
ag360
aa(lp702
F92.0
aI4
aI1
aI0
ag363
aa(lp703
F94.0
aI4
aI1
aI0
ag365
aa(lp704
F96.0
aI4
aI1
aI0
ag367
aa(lp705
F98.0
aI4
aI1
aI0
ag369
aa(lp706
F100.0
aI4
aI1
aI0
ag371
aa(lp707
F102.0
aI4
aI1
aI0
ag373
aa(lp708
F104.0
aI4
aI1
aI0
ag375
aa(lp709
F106.0
aI4
aI1
aI1
ag377
aa(lp710
F108.0
aI4
aI1
aI0
ag379
aa(lp711
F110.0
aI5
aI2
aI0
aS'inst'
p712
aa(lp713
F112.0
aI5
aI2
aI0
ag381
aa(lp714
F114.0
aI5
aI2
aI0
ag383
aa(lp715
F116.0
aI5
aI2
aI1
ag385
aa(lp716
F118.0
aI5
aI2
aI0
ag387
aa(lp717
F120.0
aI5
aI2
aI0
ag389
aa(lp718
F122.0
aI5
aI2
aI0
ag391
aa(lp719
F124.0
aI5
aI2
aI2
ag393
aa(lp720
F126.0
aI5
aI2
aI0
ag395
aa(lp721
F128.0
aI5
aI2
aI3
ag397
aa(lp722
F130.0
aI5
aI2
aI0
ag399
aa(lp723
F152.0
aI0
aI2
aI0
aS'inst'
p724
aa(lp725
F154.0
aI6
aI2
aI0
ag401
aa(lp726
F156.0
aI6
aI2
aI0
ag403
aa(lp727
F158.0
aI6
aI2
aI0
ag405
aa(lp728
F160.0
aI6
aI2
aI2
ag407
aa(lp729
F162.0
aI6
aI2
aI0
ag409
aa(lp730
F164.0
aI6
aI2
aI2
ag411
aa(lp731
F166.0
aI6
aI2
aI0
ag413
aa(lp732
F168.0
aI6
aI2
aI2
ag415
aa(lp733
F170.0
aI6
aI2
aI0
ag417
aa(lp734
F172.0
aI6
aI2
aI3
ag419
aa(lp735
F174.0
aI1
aI2
aI0
aS'inst'
p736
aa(lp737
F176.0
aI7
aI2
aI0
ag421
aa(lp738
F178.0
aI7
aI2
aI0
ag423
aa(lp739
F180.0
aI7
aI2
aI0
ag425
aa(lp740
F182.0
aI7
aI2
aI3
ag427
aa(lp741
F184.0
aI7
aI2
aI1
ag429
aa(lp742
F186.0
aI7
aI2
aI1
ag431
aa(lp743
F188.0
aI7
aI2
aI3
ag433
aa(lp744
F190.0
aI7
aI2
aI0
ag435
aa(lp745
F192.0
aI7
aI2
aI1
ag437
aa(lp746
F194.0
aI7
aI2
aI3
ag439
aa(lp747
F196.0
aI2
aI1
aI0
aS'inst'
p748
aa(lp749
F198.0
aI8
aI1
aI0
ag441
aa(lp750
F200.0
aI8
aI1
aI0
ag443
aa(lp751
F202.0
aI8
aI1
aI2
ag445
aa(lp752
F204.0
aI8
aI1
aI2
ag447
aa(lp753
F206.0
aI8
aI1
aI0
ag449
aa(lp754
F208.0
aI8
aI1
aI3
ag451
aa(lp755
F210.0
aI8
aI1
aI0
ag453
aa(lp756
F212.0
aI8
aI1
aI0
ag455
aa(lp757
F214.0
aI8
aI1
aI0
ag457
aa(lp758
F216.0
aI8
aI1
aI0
ag459
aa(lp759
F218.0
aI3
aI1
aI0
aS'inst'
p760
aa(lp761
F220.0
aI9
aI1
aI0
ag461
aa(lp762
F222.0
aI9
aI1
aI0
ag463
aa(lp763
F224.0
aI9
aI1
aI0
ag465
aa(lp764
F226.0
aI9
aI1
aI3
ag467
aa(lp765
F228.0
aI9
aI1
aI2
ag469
aa(lp766
F230.0
aI9
aI1
aI1
ag471
aa(lp767
F232.0
aI9
aI1
aI0
ag473
aa(lp768
F234.0
aI9
aI1
aI0
ag475
aa(lp769
F236.0
aI9
aI1
aI0
ag477
aa(lp770
F238.0
aI9
aI1
aI3
ag479
aa(lp771
F240.0
aI4
aI1
aI0
aS'inst'
p772
aa(lp773
F242.0
aI10
aI1
aI0
ag481
aa(lp774
F244.0
aI10
aI1
aI0
ag483
aa(lp775
F246.0
aI10
aI1
aI2
ag485
aa(lp776
F248.0
aI10
aI1
aI2
ag487
aa(lp777
F250.0
aI10
aI1
aI1
ag489
aa(lp778
F252.0
aI10
aI1
aI0
ag491
aa(lp779
F254.0
aI10
aI1
aI3
ag493
aa(lp780
F256.0
aI10
aI1
aI0
ag495
aa(lp781
F258.0
aI10
aI1
aI2
ag497
aa(lp782
F260.0
aI10
aI1
aI0
ag499
aa(lp783
F262.0
aI5
aI2
aI0
aS'inst'
p784
aa(lp785
F264.0
aI11
aI2
aI0
ag501
aa(lp786
F266.0
aI11
aI2
aI0
ag503
aa(lp787
F268.0
aI11
aI2
aI2
ag505
aa(lp788
F270.0
aI11
aI2
aI2
ag507
aa(lp789
F272.0
aI11
aI2
aI0
ag509
aa(lp790
F274.0
aI11
aI2
aI3
ag511
aa(lp791
F276.0
aI11
aI2
aI2
ag513
aa(lp792
F278.0
aI11
aI2
aI2
ag515
aa(lp793
F280.0
aI11
aI2
aI0
ag517
aa(lp794
F282.0
aI11
aI2
aI0
ag519
aa(lp795
F304.0
aI0
aI2
aI0
aS'inst'
p796
aa(lp797
F306.0
aI12
aI2
aI0
ag521
aa(lp798
F308.0
aI12
aI2
aI0
ag523
aa(lp799
F310.0
aI12
aI2
aI0
ag525
aa(lp800
F312.0
aI12
aI2
aI0
ag527
aa(lp801
F314.0
aI12
aI2
aI0
ag529
aa(lp802
F316.0
aI12
aI2
aI1
ag531
aa(lp803
F318.0
aI12
aI2
aI1
ag533
aa(lp804
F320.0
aI12
aI2
aI0
ag535
aa(lp805
F322.0
aI12
aI2
aI0
ag537
aa(lp806
F324.0
aI12
aI2
aI2
ag539
aa(lp807
F326.0
aI1
aI2
aI0
aS'inst'
p808
aa(lp809
F328.0
aI13
aI2
aI0
ag541
aa(lp810
F330.0
aI13
aI2
aI0
ag543
aa(lp811
F332.0
aI13
aI2
aI0
ag545
aa(lp812
F334.0
aI13
aI2
aI0
ag547
aa(lp813
F336.0
aI13
aI2
aI0
ag549
aa(lp814
F338.0
aI13
aI2
aI2
ag551
aa(lp815
F340.0
aI13
aI2
aI0
ag553
aa(lp816
F342.0
aI13
aI2
aI2
ag555
aa(lp817
F344.0
aI13
aI2
aI0
ag557
aa(lp818
F346.0
aI13
aI2
aI2
ag559
aa(lp819
F348.0
aI2
aI1
aI0
aS'inst'
p820
aa(lp821
F350.0
aI14
aI1
aI0
ag561
aa(lp822
F352.0
aI14
aI1
aI1
ag563
aa(lp823
F354.0
aI14
aI1
aI0
ag565
aa(lp824
F356.0
aI14
aI1
aI0
ag567
aa(lp825
F358.0
aI14
aI1
aI2
ag569
aa(lp826
F360.0
aI14
aI1
aI1
ag571
aa(lp827
F362.0
aI14
aI1
aI1
ag573
aa(lp828
F364.0
aI14
aI1
aI3
ag575
aa(lp829
F366.0
aI14
aI1
aI1
ag577
aa(lp830
F368.0
aI14
aI1
aI0
ag579
aa(lp831
F370.0
aI3
aI1
aI0
aS'inst'
p832
aa(lp833
F372.0
aI15
aI1
aI0
ag581
aa(lp834
F374.0
aI15
aI1
aI0
ag583
aa(lp835
F376.0
aI15
aI1
aI0
ag585
aa(lp836
F378.0
aI15
aI1
aI0
ag587
aa(lp837
F380.0
aI15
aI1
aI2
ag589
aa(lp838
F382.0
aI15
aI1
aI1
ag591
aa(lp839
F384.0
aI15
aI1
aI0
ag593
aa(lp840
F386.0
aI15
aI1
aI0
ag595
aa(lp841
F388.0
aI15
aI1
aI2
ag597
aa(lp842
F390.0
aI15
aI1
aI1
ag599
aa(lp843
F392.0
aI4
aI1
aI0
aS'inst'
p844
aa(lp845
F394.0
aI16
aI1
aI0
ag601
aa(lp846
F396.0
aI16
aI1
aI1
ag603
aa(lp847
F398.0
aI16
aI1
aI1
ag605
aa(lp848
F400.0
aI16
aI1
aI1
ag607
aa(lp849
F402.0
aI16
aI1
aI0
ag609
aa(lp850
F404.0
aI16
aI1
aI3
ag611
aa(lp851
F406.0
aI16
aI1
aI1
ag613
aa(lp852
F408.0
aI16
aI1
aI0
ag615
aa(lp853
F410.0
aI16
aI1
aI3
ag617
aa(lp854
F412.0
aI16
aI1
aI0
ag619
aa(lp855
F414.0
aI5
aI2
aI0
aS'inst'
p856
aa(lp857
F416.0
aI17
aI2
aI0
ag621
aa(lp858
F418.0
aI17
aI2
aI0
ag623
aa(lp859
F420.0
aI17
aI2
aI0
ag625
aa(lp860
F422.0
aI17
aI2
aI1
ag627
aa(lp861
F424.0
aI17
aI2
aI3
ag629
aa(lp862
F426.0
aI17
aI2
aI0
ag631
aa(lp863
F428.0
aI17
aI2
aI0
ag633
aa(lp864
F430.0
aI17
aI2
aI0
ag635
aa(lp865
F432.0
aI17
aI2
aI2
ag637
aa(lp866
F434.0
aI17
aI2
aI1
ag639
aasS'is_this_SS_trial'
p867
(dp868
sS'subcode'
p869
S'self_tracking_0035'
p870
sS'start_key'
p871
S'5'
p872
s.