(dp0
S'stim_onset_time'
p1
(dp2
sS'datestamp'
p3
S'2013-01-24-07_40_42'
p4
sS'ntrials_per_block'
p5
I6
sS'expt_title'
p6
S'Self_Tracking'
p7
sS'rt'
p8
(dp9
sS'simulated_response'
p10
I00
sS'script'
p11
(lp12
S'#!/usr/bin/env python\n'
p13
aS'\n'
p14
aS'import psychopy\n'
p15
aS'from psychopy import visual, core, event, logging, data, misc, sound\n'
p16
aS'import numpy as N\n'
p17
aS'import pickle,csv\n'
p18
aS'import datetime\n'
p19
aS'import sys\n'
p20
aS'import os, socket, random\n'
p21
aS'import inspect\n'
p22
aS'import hashlib\n'
p23
aS'from socket import gethostname\n'
p24
aS'import exptutils\n'
p25
aS'from exptutils import *\n'
p26
aS'from pylab import imread\n'
p27
ag14
aS'try:\n'
p28
aS'    from save_data_to_db import *\n'
p29
aS'    save_data=1\n'
p30
aS'except:\n'
p31
aS"    print 'cannnot import save_data_to_db'\n"
p32
aS'    save_data=0\n'
p33
ag14
aS'def store_scriptfile():\n'
p34
aS'    scriptfile= inspect.getfile(inspect.currentframe())# save a copy of the script in the data file\n'
p35
aS'    f=open(scriptfile)\n'
p36
aS'    script=f.readlines()\n'
p37
aS'    f.close()\n'
p38
aS'    return script\n'
p39
ag14
aS'#\n'
p40
aS'#- - - - - - - - - - - - - - - - - - - - - - - - - - - - - - - - - - - - - - - - - - - - - - - - - - - - - - - - - - - - - - - - - - - - - - - - - - - - - -\n'
p41
aS'#define functions for awaiting keyboard input & displaying initial instructions\n'
p42
aS'#these functions will be called prior to the stim_block() function (at bottom)\n'
p43
ag14
aS'def wait_for_trigger():\n'
p44
aS'    event.clearEvents()\n'
p45
aS"    if subdata['simulated_response']:\n"
p46
aS'        msg="SIMULATION MODE"\n'
p47
aS'    else:\n'
p48
aS"        msg=''\n"
p49
aS"    message=visual.TextStim(win, text='%s Waiting for start key (or press %s)'%(msg,subdata['start_key']),\n"
p50
aS"    font='BiauKai', height=1,color=u'white', colorSpace=u'rgb', opacity=1,depth=0.0,\n"
p51
aS"    alignHoriz='center',wrapWidth=50)\n"
p52
aS'    message.setAutoDraw(True) #automatically draw every frame\n'
p53
aS'    win.flip()\n'
p54
aS'    start=False\n'
p55
aS'    while start==False:\n'
p56
aS'        k=event.waitKeys()\n'
p57
aS"        if k.count(subdata['start_key'])>0:#as soon as subdata['start_key'] is pressed...\n"
p58
aS'            start=True\n'
p59
aS"            message.setText('')#this clears the screen\n"
p60
aS'            win.flip()\n'
p61
aS"        if k.count(subdata['quit_key']) >0:# if subdata['quit_key'] is pressed...\n"
p62
aS'            exptutils.shut_down_cleanly(subdata,win)\n'
p63
aS'            return subdata\n'
p64
aS'            \n'
p65
aS"def instructions(n,duration):#n here changes depending on the n-back level; yes/no will also switch between 'u' & 'i' keys depending on the Order number selected\n"
p66
aS'    event.clearEvents()\n'
p67
aS"    instructions=visual.TextStim(win=win, ori=0, name='instructions',font='BiauKai',\n"
p68
aS"        text='%d back'%n,\n"
p69
aS"        height=2,color=u'white', colorSpace=u'rgb', alignHoriz='center',wrapWidth=50)\n"
p70
aS'    instructions.setAutoDraw(True)\n'
p71
aS'    win.flip()\n'
p72
aS'    core.wait(duration)#currently it is set up to keep instructions on screen the designated amt of time; a button press will not end these instructions sooner\n'
p73
aS"    instructions.setText('')\n"
p74
aS'    win.flip()\n'
p75
ag14
aS'#- - - - - - - - - - - - - - - - - - - - - - - - - - - - - - - - - - - - - - - - - - - - - - - - - - - - - - - - - - - - - - - - - - - - - - - - \n'
p76
ag14
ag14
aS'#define function for displaying visual stims for each trial on n-back task\n'
p77
ag14
aS'def draw_stim(win,event_info,subdata,visual_stim):\n'
p78
aS'    trialdata={}\n'
p79
aS"    trialdata['duration']=subdata['stim_dur']\n"
p80
aS"    trialdata['onset'],trialdata['block'],trialdata['nback'],trialdata['match'],trialdata['stim']=event_info\n"
p81
aS'    # NB: I removed a lot of data handling stuff from within this function\n'
p82
aS'    # instead, the data get returned and handled at the calling level\n'
p83
aS"    print trialdata['stim']\n"
p84
aS"    if trialdata['stim'].find('faces')>-1:#if it is a face image, display vertically\n"
p85
aS"        stim_type='faces'\n"
p86
aS"    elif trialdata['stim'].find('scenes')>-1:#\n"
p87
aS"        stim_type='scenes'\n"
p88
aS'    else:#if it is a character, display as text\n'
p89
aS"        stim_type='chinese_characters'\n"
p90
aS'        \n'
p91
aS"    visual_stim.setImage(trialdata['stim'])\n"
p92
aS"    trialdata['stim_type']=stim_type\n"
p93
aS'    \n'
p94
aS'        #visual_stim[stim_type].setAutoDraw(True)#get the image ready to display\n'
p95
aS'    visual_stim.draw()\n'
p96
aS"    while clock.getTime()<trialdata['onset']:#wait until the specified onset time to display image_file\n"
p97
aS'        pass\n'
p98
aS'    win.flip()\n'
p99
aS"    trialdata['actual_onset_time']=clock.getTime()\n"
p100
aS'    event.clearEvents()#clear all button presses\n'
p101
aS'    thisResp=None\n'
p102
aS'    simulated_rt=0.5 + N.random.rand()*0.1\n'
p103
aS"    while clock.getTime() < (trialdata['actual_onset_time'] + trialdata['duration']):#before the subdata['stim_dur'] time is exceeded, do this stuff...\n"
p104
aS'            key_response=event.getKeys()#look for yes,no, and quit commands\n'
p105
aS"            if subdata['simulated_response']:\n"
p106
aS"                if clock.getTime()> trialdata['actual_onset_time'] + simulated_rt:\n"
p107
aS'                    thisResp=1\n'
p108
aS"                    trialdata['rt']=clock.getTime() - trialdata['actual_onset_time'] #collect rt\n"
p109
aS"                    if trialdata['match']==trialdata['nback']:\n"
p110
aS"                        trialdata['response']='4'\n"
p111
aS'                    else:\n'
p112
aS"                        trialdata['response']='1'\n"
p113
ag14
aS'            elif key_response:#if they press any button\n'
p114
aS"                if key_response.count(subdata['quit_key'])>0:#if subj hits subdata['quit_key']...\n"
p115
aS'                    keep_going=0\n'
p116
aS"                    #subdata['broke_on_trial'][which_block]=trial_num\n"
p117
aS'                    #shut_down_cleanly(subdata,win)\n'
p118
aS'                    return None\n'
p119
aS"                elif key_response.count('5')>0:\n"
p120
aS"                    subdata['trigger_times'].append(clock.getTime())\n"
p121
aS'                else:\n'
p122
aS'                    thisResp=1\n'
p123
aS"                    trialdata['rt']=clock.getTime() - trialdata['actual_onset_time'] #collect rt\n"
p124
aS"                    trialdata['response']=key_response[0]#collect response\n"
p125
ag14
aS'    visual_stim.clearTextures()\n'
p126
ag14
aS'    win.flip()\n'
p127
ag14
aS'    #del visual_stim\n'
p128
aS'    return trialdata\n'
p129
aS'    \n'
p130
ag14
ag14
aS'#Text saying the task has finished. Disappears with key press\n'
p131
ag14
aS'def display_finished_text():#finished with experiment\n'
p132
aS'    event.clearEvents()\n'
p133
aS'    message=visual.TextStim(win=win, ori=0,\n'
p134
aS"    text='All finished! Thanks  :) \\n Press any key to clear the screen.',\n"
p135
aS"    font=u'BiauKai',pos=[0, 0], height=2,color=u'white', colorSpace=u'rgb', opacity=1,depth=0.0,alignHoriz='center',wrapWidth=50)\n"
p136
aS'    message.setAutoDraw(True) \n'
p137
aS'    win.flip()\n'
p138
aS'    start=False\n'
p139
aS'    while start==False:\n'
p140
aS'        key_response=event.getKeys()\n'
p141
aS'        if len(key_response)>0:\n'
p142
aS'            start=True\n'
p143
aS"            message.setText('')#this clears the screen\n"
p144
aS'            win.flip()\n'
p145
aS'    return start\n'
p146
aS'#- - - - - - - - - - - - - - - - - - - - - - - - - - - - - - - - - - - - - - - - - - - - - - - - - - - - - - - - - - - - - - - - - - - - - - \n'
p147
ag14
aS'    \n'
p148
aS'#set-up some variables\n'
p149
ag14
aS'verbose=True\n'
p150
aS'fullscr=False  # change to True for full screen display\n'
p151
ag14
aS"stim_types=['faces','scenes','chinese_characters']\n"
p152
aS'subdata={}\n'
p153
aS'finish_time=440\n'
p154
ag14
aS"subdata['start_key']='5'\n"
p155
aS"subdata['quit_key']='q'\n"
p156
aS"subdata['discard_time_to_wait']=0.0\n"
p157
aS"subdata['expt_title']='Self_Tracking'\n"
p158
aS"subdata['stim_dur']=1.0\n"
p159
aS"subdata['inter_stim_int']=1.0\n"
p160
aS"subdata['inst_time']=1.0\n"
p161
aS"subdata['rest_time']=10.0\n"
p162
aS"subdata['ExpVersion']=0.1\n"
p163
aS"subdata['nstims']=5\n"
p164
aS"subdata['ntrials_per_block']=6\n"
p165
aS"subdata['simulated_response']=False\n"
p166
aS"subdata['trigger_times']=[]\n"
p167
ag14
aS'if len(sys.argv)<2:\n'
p168
aS"    print 'USAGE: self_tracking.py <stimlist> <session code>'\n"
p169
aS'    sys.exit()\n'
p170
aS"    #subdata['onsetfile']='/Users/poldrack/Dropbox/Documents/Projects/self-tracking/task/onsetlists/stimlist_000.txt'\n"
p171
aS'else:\n'
p172
aS"    subdata['onsetfile']=sys.argv[1]\n"
p173
aS"    subdata['subcode']=sys.argv[2]\n"
p174
ag14
ag14
aS'# initialize subdata dictionary to store info about the study\n'
p175
aS"subdata['completed']=0\n"
p176
aS"subdata['cwd']=os.getcwd()\n"
p177
aS"subdata['hostname']=socket.gethostname()\n"
p178
aS'clock=core.Clock()\n'
p179
aS'datestamp=datetime.datetime.now().strftime("%Y-%m-%d-%H_%M_%S")\n'
p180
aS"subdata['datestamp']=datestamp\n"
p181
aS"subdata['expt_title']=subdata['expt_title']\n"
p182
aS"subdata['script']=store_scriptfile()\n"
p183
aS"subdata['onsets']=subdata['onsetfile']\n"
p184
ag14
aS'#these are all sub-dictionaries which will be appended w/separate info for each block & each trial\n'
p185
aS"#i.e., the 'response' dictionary will contain the following dictionaries: face_1, face_2, scenes_1, scenes_2, whose keys are trial_num and values are the responses on that trial\n"
p186
aS"subdata['response']={}\n"
p187
aS"subdata['score']={}\n"
p188
aS"subdata['rt']={}\n"
p189
aS"subdata['stim_onset_time']={}\n"
p190
aS"subdata['stim_log']={}\n"
p191
aS"subdata['is_this_SS_trial']={}\n"
p192
aS"subdata['SS']={}\n"
p193
aS"subdata['broke_on_trial']={}\n"
p194
ag14
aS'# set up logging information & create Output directories\n'
p195
aS"if not os.path.isdir('Output'):#make an Output directory if necessary\n"
p196
aS"    os.makedirs('Output') \n"
p197
ag14
aS"dataFileName='Output/%s_%s_subdata.log'%(subdata['subcode'],subdata['datestamp'])\n"
p198
aS'logging.console.setLevel(logging.INFO)\n'
p199
aS'logfile=logging.LogFile(dataFileName,level=logging.INFO)\n'
p200
ag14
aS'# load stimulus file\n'
p201
ag14
aS'def load_stimulus_file(onsfile):\n'
p202
aS'    events=[]\n'
p203
aS'    f=open(onsfile)\n'
p204
aS'    l=f.readlines()\n'
p205
aS'    for line in l:\n'
p206
aS"        l_s=line.strip('\\n').split('\\t')\n"
p207
aS'        events.append([float(l_s[0]),int(l_s[1]),int(l_s[2]),int(l_s[3]),l_s[4]])\n'
p208
aS'    f.close()\n'
p209
aS'    return events\n'
p210
ag14
aS"events=load_stimulus_file(subdata['onsetfile'])\n"
p211
ag14
aS'# set up the window \n'
p212
aS"win = visual.Window([800,600],allowGUI=True, fullscr=True, monitor='testMonitor', units='deg')\n"
p213
aS"win.setColor('black')\n"
p214
aS'win.flip()\n'
p215
aS'win.flip()\n'
p216
ag14
aS'#integrating everything together\n'
p217
ag14
aS"subdata['trialdata']={}\n"
p218
aS'#chardict=create_characters_dict()\n'
p219
ag14
aS"wait_for_trigger()#wait for subdata['start_key'] to be pressed\n"
p220
ag14
aS'visual_stim={}\n'
p221
aS"visual_stim=visual.ImageStim(win, image=N.zeros((10,10)), size=(0.75,0.75),units='height')\n"
p222
ag14
aS'# set clock to zero\n'
p223
aS'clock.reset()\n'
p224
aS'trialctr=0\n'
p225
aS'for i in range(len(events)):\n'
p226
aS"    if events[i][4]=='inst':\n"
p227
aS'        while clock.getTime() < events[i][0]:\n'
p228
aS'            pass\n'
p229
aS"        instructions(events[i][2],subdata['inst_time'])\n"
p230
aS'    else:\n'
p231
aS"        subdata['trialdata'][trialctr]=draw_stim(win,events[i],subdata,visual_stim)\n"
p232
aS"        if subdata['trialdata'][trialctr]==None:\n"
p233
aS'            break\n'
p234
aS'        trialctr+=1\n'
p235
aS"        print 'return time:',clock.getTime()\n"
p236
ag14
aS'#display_finished_text()\n'
p237
aS'while clock.getTime()<finish_time:\n'
p238
aS'\tpass\n'
p239
aS'\t\n'
p240
aS"subdata['events']=events\n"
p241
aS'if save_data==1:\n'
p242
aS"    docId,docRev=save_data_to_db(subdata,'selftracking-taskdata')\n"
p243
ag14
aS'shut_down_cleanly(subdata,win)\n'
p244
asS'onsets'
p245
S'onsetlists/stimlist_006.txt'
p246
sS'hostname'
p247
S'IRC-arizona'
p248
sS'score'
p249
(dp250
sS'rest_time'
p251
F10.0
sS'cwd'
p252
S'/Users/rap2623/Dropbox/Documents/Projects/self-tracking/task'
p253
sS'trigger_times'
p254
(lp255
F2.2811810970306396
aF4.6012139320373535
aF6.921319961547852
aF8.081476926803589
aF10.401418924331665
aF12.72147798538208
aF16.20053005218506
aF18.520576000213623
aF20.84069299697876
aF24.320807933807373
aF26.640899896621704
aF28.960904121398926
aF30.1211040019989
aF32.441020011901855
aF34.76109600067139
aF38.24127697944641
aF40.5613739490509
aF42.88130807876587
aF46.36142110824585
aF48.68159294128418
aF51.00155591964722
aF52.16175198554993
aF54.481709003448486
aF56.80175995826721
aF60.2818341255188
aF62.60184407234192
aF64.92195892333984
aF68.40096592903137
aF70.72111511230469
aF74.20131492614746
aF76.52131390571594
aF78.84132599830627
aF82.3214590549469
aF84.64152693748474
aF86.96168899536133
aF90.441654920578
aF92.76175498962402
aF96.24189805984497
aF98.56194806098938
aF100.8819010257721
aF102.042151927948
aF104.36211609840393
aF106.68211007118225
aF109.00227999687195
aF112.48222708702087
aF114.80237698554993
aF118.28151512145996
aF120.60157608985901
aF122.92161512374878
aF124.08174991607666
aF126.40176796913147
aF128.72176504135132
aF154.24253296852112
aF156.56265306472778
aF158.8827199935913
aF160.04269695281982
aF162.3627529144287
aF164.68289399147034
aF167.0017650127411
aF168.1621859073639
aF170.48204493522644
aF172.80202102661133
aF176.28203296661377
aF178.6023371219635
aF180.92227697372437
aF182.08243989944458
aF184.4023540019989
aF186.7224268913269
aF190.20255494117737
aF192.52262592315674
aF194.84264707565308
aF198.32281112670898
aF200.64282608032227
aF202.9630799293518
aF204.12294602394104
aF206.4429759979248
aF208.76306009292603
aF212.24320006370544
aF214.5632359981537
aF216.8833110332489
aF220.36240410804749
aF222.68245792388916
aF225.0024859905243
aF226.16266107559204
aF228.48264408111572
aF230.80270910263062
aF234.28280091285706
aF236.6028299331665
aF238.92288398742676
aF242.40301489830017
aF244.72297310829163
aF248.20323395729065
aF250.52324604988098
aF252.84335207939148
aF256.3234050273895
aF258.64347791671753
aF260.9635679721832
aF264.44365310668945
aF266.76370906829834
aF270.2428181171417
aF272.5628910064697
aF274.8829069137573
aF276.04311895370483
aF278.3630619049072
aF280.6830611228943
aF283.00317001342773
aF306.20385098457336
aF308.52389001846313
aF310.84413290023804
aF314.32407212257385
aF316.6441140174866
aF318.9642081260681
aF320.12331891059875
aF322.4432439804077
aF324.7633249759674
aF328.24348497390747
aF330.56356406211853
aF332.8835849761963
aF334.0437479019165
aF336.3635981082916
aF338.6837480068207
aF341.0037319660187
aF342.163978099823
aF344.48382091522217
aF346.80395698547363
aF350.2838890552521
aF352.6041440963745
aF354.9241840839386
aF356.0842659473419
aF358.4043459892273
aF360.72428703308105
aF364.20453691482544
aF366.52457904815674
aF368.84456610679626
aF372.3236289024353
aF374.6437819004059
aF376.96377301216125
aF378.12396001815796
aF380.4440529346466
aF382.764004945755
aF386.24410700798035
aF388.56408500671387
aF390.8842349052429
aF394.3643329143524
aF396.6843159198761
aF399.00429797172546
aF400.16455912590027
aF402.4844560623169
aF404.8046259880066
aF408.2847249507904
aF410.6049509048462
aF412.92486000061035
aF416.40494108200073
aF418.7249970436096
aF422.2051799297333
aF424.52409291267395
aF426.8442199230194
aF430.32438492774963
aF432.6444320678711
aF434.96448397636414
asS'ExpVersion'
p256
F0.1
sS'completed'
p257
I0
sS'stim_dur'
p258
F1.0
sS'quit_key'
p259
S'q'
p260
sS'onsetfile'
p261
g246
sS'discard_time_to_wait'
p262
F0.0
sS'response'
p263
(dp264
sS'trialdata'
p265
(dp266
I0
(dp267
g8
F0.8087320327758789
sS'stim'
p268
S'./stimfiles/scenes/555.jpg'
p269
sS'onset'
p270
F2.0
sS'stim_type'
p271
S'scenes'
p272
sS'block'
p273
I0
sS'nback'
p274
I2
sS'duration'
p275
F1.0
sg263
S'1'
p276
sS'match'
p277
I0
sS'actual_onset_time'
p278
F2.0164639949798584
ssI1
(dp279
g8
F0.7200250625610352
sg268
S'./stimfiles/scenes/555.jpg'
p280
sg270
F4.0
sg271
g272
sg273
I0
sg274
I2
sg275
F1.0
sg263
g276
sg277
I1
sg278
F4.017225027084351
ssI2
(dp281
g8
F0.5523250102996826
sg268
S'./stimfiles/scenes/1622.jpg'
p282
sg270
F6.0
sg271
g272
sg273
I0
sg274
I2
sg275
F1.0
sg263
g276
sg277
I0
sg278
F6.018013000488281
ssI3
(dp283
g8
F0.5535421371459961
sg268
S'./stimfiles/scenes/555.jpg'
p284
sg270
F8.0
sg271
g272
sg273
I0
sg274
I2
sg275
F1.0
sg263
S'4'
p285
sg277
I3
sg278
F8.018852949142456
ssI4
(dp286
g8
F0.8245730400085449
sg268
S'./stimfiles/scenes/1172.jpg'
p287
sg270
F10.0
sg271
g272
sg273
I0
sg274
I2
sg275
F1.0
sg263
g276
sg277
I0
sg278
F10.019710063934326
ssI5
(dp288
g8
F0.6621119976043701
sg268
S'./stimfiles/scenes/220.jpg'
p289
sg270
F12.0
sg271
g272
sg273
I0
sg274
I2
sg275
F1.0
sg263
g276
sg277
I0
sg278
F12.020461082458496
ssI6
(dp290
g8
F0.8959469795227051
sg268
S'./stimfiles/scenes/1172.jpg'
p291
sg270
F14.0
sg271
g272
sg273
I0
sg274
I2
sg275
F1.0
sg263
g285
sg277
I2
sg278
F14.004637956619263
ssI7
(dp292
g8
F0.6511738300323486
sg268
S'./stimfiles/scenes/760.jpg'
p293
sg270
F16.0
sg271
g272
sg273
I0
sg274
I2
sg275
F1.0
sg263
g276
sg277
I0
sg278
F16.005417108535767
ssI8
(dp294
g8
F0.6284201145172119
sg268
S'./stimfiles/scenes/220.jpg'
p295
sg270
F18.0
sg271
g272
sg273
I0
sg274
I2
sg275
F1.0
sg263
g276
sg277
I3
sg278
F18.006273984909058
ssI9
(dp296
g8
F0.6287322044372559
sg268
S'./stimfiles/scenes/760.jpg'
p297
sg270
F20.0
sg271
g272
sg273
I0
sg274
I2
sg275
F1.0
sg263
g285
sg277
I2
sg278
F20.00711989402771
ssI10
(dp298
g8
F0.4853839874267578
sg268
S'./stimfiles/chinese_characters/30309.jpg'
p299
sg270
F24.0
sg271
S'chinese_characters'
p300
sg273
I1
sg274
I1
sg275
F1.0
sg263
g276
sg277
I0
sg278
F24.025495052337646
ssI11
(dp301
g8
F0.7421150207519531
sg268
S'./stimfiles/chinese_characters/25163.jpg'
p302
sg270
F26.0
sg271
g300
sg273
I1
sg274
I1
sg275
F1.0
sg263
g276
sg277
I0
sg278
F26.00961709022522
ssI12
(dp303
g8
F0.6025309562683105
sg268
S'./stimfiles/chinese_characters/30309.jpg'
p304
sg270
F28.0
sg271
g300
sg273
I1
sg274
I1
sg275
F1.0
sg263
g276
sg277
I2
sg278
F28.010468006134033
ssI13
(dp305
g8
F0.6587128639221191
sg268
S'./stimfiles/chinese_characters/30309.jpg'
p306
sg270
F30.0
sg271
g300
sg273
I1
sg274
I1
sg275
F1.0
sg263
g285
sg277
I1
sg278
F30.011285066604614
ssI14
(dp307
g8
F0.5649712085723877
sg268
S'./stimfiles/chinese_characters/20497.jpg'
p308
sg270
F32.0
sg271
g300
sg273
I1
sg274
I1
sg275
F1.0
sg263
g276
sg277
I0
sg278
F32.012075901031494
ssI15
(dp309
g8
F0.615246057510376
sg268
S'./stimfiles/chinese_characters/29407.jpg'
p310
sg270
F34.0
sg271
g300
sg273
I1
sg274
I1
sg275
F1.0
sg263
g276
sg277
I0
sg278
F34.01288104057312
ssI16
(dp311
g8
F0.6184220314025879
sg268
S'./stimfiles/chinese_characters/29281.jpg'
p312
sg270
F36.0
sg271
g300
sg273
I1
sg274
I1
sg275
F1.0
sg263
g276
sg277
I0
sg278
F36.01372003555298
ssI17
(dp313
g8
F0.5997390747070312
sg268
S'./stimfiles/chinese_characters/26566.jpg'
p314
sg270
F38.0
sg271
g300
sg273
I1
sg274
I1
sg275
F1.0
sg263
g276
sg277
I0
sg278
F38.014528036117554
ssI18
(dp315
g8
F0.45493006706237793
sg268
S'./stimfiles/chinese_characters/26566.jpg'
p316
sg270
F40.0
sg271
g300
sg273
I1
sg274
I1
sg275
F1.0
sg263
g285
sg277
I1
sg278
F40.015389919281006
ssI19
(dp317
g8
F0.5131759643554688
sg268
S'./stimfiles/chinese_characters/29281.jpg'
p318
sg270
F42.0
sg271
g300
sg273
I1
sg274
I1
sg275
F1.0
sg263
g276
sg277
I3
sg278
F42.01616406440735
ssI20
(dp319
g8
F0.4996368885040283
sg268
S'./stimfiles/faces/cropped_00631015.png'
p320
sg270
F46.0
sg271
S'faces'
p321
sg273
I2
sg274
I2
sg275
F1.0
sg263
g276
sg277
I0
sg278
F46.01781702041626
ssI21
(dp322
g8
F0.4958829879760742
sg268
S'./stimfiles/faces/cropped_935.png'
p323
sg270
F48.0
sg271
g321
sg273
I2
sg274
I2
sg275
F1.0
sg263
g276
sg277
I0
sg278
F48.018630027770996
ssI22
(dp324
g8
F0.5702271461486816
sg268
S'./stimfiles/faces/cropped_59.png'
p325
sg270
F50.0
sg271
g321
sg273
I2
sg274
I2
sg275
F1.0
sg263
g276
sg277
I0
sg278
F50.019465923309326
ssI23
(dp326
g8
F0.6443381309509277
sg268
S'./stimfiles/faces/cropped_209.png'
p327
sg270
F52.0
sg271
g321
sg273
I2
sg274
I2
sg275
F1.0
sg263
g276
sg277
I0
sg278
F52.020293951034546
ssI24
(dp328
g8
F0.5975050926208496
sg268
S'./stimfiles/faces/cropped_19a.png'
p329
sg270
F54.0
sg271
g321
sg273
I2
sg274
I2
sg275
F1.0
sg263
g276
sg277
I0
sg278
F54.021076917648315
ssI25
(dp330
g8
F0.6498098373413086
sg268
S'./stimfiles/faces/cropped_389.png'
p331
sg270
F56.0
sg271
g321
sg273
I2
sg274
I2
sg275
F1.0
sg263
g276
sg277
I0
sg278
F56.02192711830139
ssI26
(dp332
g8
F0.6250388622283936
sg268
S'./stimfiles/faces/cropped_19a.png'
p333
sg270
F58.0
sg271
g321
sg273
I2
sg274
I2
sg275
F1.0
sg263
g285
sg277
I2
sg278
F58.022783041000366
ssI27
(dp334
g8
F0.7573399543762207
sg268
S'./stimfiles/faces/cropped_f-034-01.png'
p335
sg270
F60.0
sg271
g321
sg273
I2
sg274
I2
sg275
F1.0
sg263
g276
sg277
I0
sg278
F60.023518085479736
ssI28
(dp336
g8
F0.5466110706329346
sg268
S'./stimfiles/faces/cropped_19a.png'
p337
sg270
F62.0
sg271
g321
sg273
I2
sg274
I2
sg275
F1.0
sg263
g285
sg277
I2
sg278
F62.02433490753174
ssI29
(dp338
g8
F0.6088001728057861
sg268
S'./stimfiles/faces/cropped_f4018.png'
p339
sg270
F64.0
sg271
g321
sg273
I2
sg274
I2
sg275
F1.0
sg263
g276
sg277
I0
sg278
F64.02522492408752
ssI30
(dp340
g8
F0.5918259620666504
sg268
S'./stimfiles/scenes/31.jpg'
p341
sg270
F68.0
sg271
g272
sg273
I3
sg274
I1
sg275
F1.0
sg263
g276
sg277
I0
sg278
F68.01016592979431
ssI31
(dp342
g8
F0.48618197441101074
sg268
S'./stimfiles/scenes/1728.jpg'
p343
sg270
F70.0
sg271
g272
sg273
I3
sg274
I1
sg275
F1.0
sg263
g276
sg277
I0
sg278
F70.01100897789001
ssI32
(dp344
g8
F0.7824931144714355
sg268
S'./stimfiles/scenes/31.jpg'
p345
sg270
F72.0
sg271
g272
sg273
I3
sg274
I1
sg275
F1.0
sg263
g285
sg277
I2
sg278
F72.01176595687866
ssI33
(dp346
g8
F0.6645450592041016
sg268
S'./stimfiles/scenes/31.jpg'
p347
sg270
F74.0
sg271
g272
sg273
I3
sg274
I1
sg275
F1.0
sg263
g285
sg277
I1
sg278
F74.0126850605011
ssI34
(dp348
g8
F0.6288168430328369
sg268
S'./stimfiles/scenes/31.jpg'
p349
sg270
F76.0
sg271
g272
sg273
I3
sg274
I1
sg275
F1.0
sg263
g285
sg277
I1
sg278
F76.0134871006012
ssI35
(dp350
g8
F0.4640800952911377
sg268
S'./stimfiles/scenes/385.jpg'
p351
sg270
F78.0
sg271
g272
sg273
I3
sg274
I1
sg275
F1.0
sg263
g276
sg277
I0
sg278
F78.01429796218872
ssI36
(dp352
g8
F0.749330997467041
sg268
S'./stimfiles/scenes/31.jpg'
p353
sg270
F80.0
sg271
g272
sg273
I3
sg274
I1
sg275
F1.0
sg263
g276
sg277
I3
sg278
F80.01514410972595
ssI37
(dp354
g8
F0.5725851058959961
sg268
S'./stimfiles/scenes/509.jpg'
p355
sg270
F82.0
sg271
g272
sg273
I3
sg274
I1
sg275
F1.0
sg263
g276
sg277
I0
sg278
F82.01586890220642
ssI38
(dp356
g8
F0.4928278923034668
sg268
S'./stimfiles/scenes/1687.jpg'
p357
sg270
F84.0
sg271
g272
sg273
I3
sg274
I1
sg275
F1.0
sg263
g276
sg277
I0
sg278
F84.01673412322998
ssI39
(dp358
g8
F0.6151289939880371
sg268
S'./stimfiles/scenes/31.jpg'
p359
sg270
F86.0
sg271
g272
sg273
I3
sg274
I1
sg275
F1.0
sg263
g276
sg277
I3
sg278
F86.01750802993774
ssI40
(dp360
g8
F0.608605146408081
sg268
S'./stimfiles/chinese_characters/24587.jpg'
p361
sg270
F90.0
sg271
g300
sg273
I4
sg274
I2
sg275
F1.0
sg263
g276
sg277
I0
sg278
F90.01915097236633
ssI41
(dp362
g8
F0.6147730350494385
sg268
S'./stimfiles/chinese_characters/26246.jpg'
p363
sg270
F92.0
sg271
g300
sg273
I4
sg274
I2
sg275
F1.0
sg263
g276
sg277
I0
sg278
F92.0200309753418
ssI42
(dp364
g8
F0.6599230766296387
sg268
S'./stimfiles/chinese_characters/24910.jpg'
p365
sg270
F94.0
sg271
g300
sg273
I4
sg274
I2
sg275
F1.0
sg263
g276
sg277
I0
sg278
F94.02089095115662
ssI43
(dp366
g8
F0.7132511138916016
sg268
S'./stimfiles/chinese_characters/24587.jpg'
p367
sg270
F96.0
sg271
g300
sg273
I4
sg274
I2
sg275
F1.0
sg263
g276
sg277
I3
sg278
F96.02161693572998
ssI44
(dp368
g8
F0.7624468803405762
sg268
S'./stimfiles/chinese_characters/26246.jpg'
p369
sg270
F98.0
sg271
g300
sg273
I4
sg274
I2
sg275
F1.0
sg263
g276
sg277
I3
sg278
F98.02248811721802
ssI45
(dp370
g8
F0.7608439922332764
sg268
S'./stimfiles/chinese_characters/24587.jpg'
p371
sg270
F100.0
sg271
g300
sg273
I4
sg274
I2
sg275
F1.0
sg263
g285
sg277
I2
sg278
F100.02327299118042
ssI46
(dp372
g8
F0.674767017364502
sg268
S'./stimfiles/chinese_characters/25130.jpg'
p373
sg270
F102.0
sg271
g300
sg273
I4
sg274
I2
sg275
F1.0
sg263
g276
sg277
I0
sg278
F102.02418303489685
ssI47
(dp374
g8
F0.8420658111572266
sg268
S'./stimfiles/chinese_characters/25130.jpg'
p375
sg270
F104.0
sg271
g300
sg273
I4
sg274
I2
sg275
F1.0
sg263
g276
sg277
I1
sg278
F104.02494812011719
ssI48
(dp376
g8
F0.6990411281585693
sg268
S'./stimfiles/chinese_characters/25648.jpg'
p377
sg270
F106.0
sg271
g300
sg273
I4
sg274
I2
sg275
F1.0
sg263
g276
sg277
I0
sg278
F106.00904989242554
ssI49
(dp378
g8
F0.6783530712127686
sg268
S'./stimfiles/chinese_characters/24730.jpg'
p379
sg270
F108.0
sg271
g300
sg273
I4
sg274
I2
sg275
F1.0
sg263
g276
sg277
I0
sg278
F108.00990104675293
ssI50
(dp380
g8
F0.6328210830688477
sg268
S'./stimfiles/faces/cropped_anon_one1.png'
p381
sg270
F112.0
sg271
g321
sg273
I5
sg274
I1
sg275
F1.0
sg263
g276
sg277
I0
sg278
F112.0115180015564
ssI51
(dp382
g8
F0.6400151252746582
sg268
S'./stimfiles/faces/cropped_anon_one1.png'
p383
sg270
F114.0
sg271
g321
sg273
I5
sg274
I1
sg275
F1.0
sg263
g285
sg277
I1
sg278
F114.01239895820618
ssI52
(dp384
g8
F0.478132963180542
sg268
S'./stimfiles/faces/cropped_472.png'
p385
sg270
F116.0
sg271
g321
sg273
I5
sg274
I1
sg275
F1.0
sg263
g276
sg277
I0
sg278
F116.01321911811829
ssI53
(dp386
g8
F0.6354711055755615
sg268
S'./stimfiles/faces/cropped_anon_one1.png'
p387
sg270
F118.0
sg271
g321
sg273
I5
sg274
I1
sg275
F1.0
sg263
g276
sg277
I2
sg278
F118.014004945755
ssI54
(dp388
g8
F0.6637430191040039
sg268
S'./stimfiles/faces/cropped_9.png'
p389
sg270
F120.0
sg271
g321
sg273
I5
sg274
I1
sg275
F1.0
sg263
g276
sg277
I0
sg278
F120.01478290557861
ssI55
(dp390
g8
F0.5929579734802246
sg268
S'./stimfiles/faces/cropped_262.png'
p391
sg270
F122.0
sg271
g321
sg273
I5
sg274
I1
sg275
F1.0
sg263
g276
sg277
I0
sg278
F122.01568102836609
ssI56
(dp392
g8
F0.5401649475097656
sg268
S'./stimfiles/faces/cropped_67.png'
p393
sg270
F124.0
sg271
g321
sg273
I5
sg274
I1
sg275
F1.0
sg263
g276
sg277
I0
sg278
F124.01651096343994
ssI57
(dp394
g8
F0.5482831001281738
sg268
S'./stimfiles/faces/cropped_67.png'
p395
sg270
F126.0
sg271
g321
sg273
I5
sg274
I1
sg275
F1.0
sg263
g285
sg277
I1
sg278
F126.01732397079468
ssI58
(dp396
g8
F0.5126440525054932
sg268
S'./stimfiles/faces/cropped_596.png'
p397
sg270
F128.0
sg271
g321
sg273
I5
sg274
I1
sg275
F1.0
sg263
g276
sg277
I0
sg278
F128.0181369781494
ssI59
(dp398
g8
F0.753687858581543
sg268
S'./stimfiles/faces/cropped_565.png'
p399
sg270
F130.0
sg271
g321
sg273
I5
sg274
I1
sg275
F1.0
sg263
g276
sg277
I0
sg278
F130.0189070701599
ssI60
(dp400
g8
F0.5504729747772217
sg268
S'./stimfiles/scenes/1512.jpg'
p401
sg270
F154.0
sg271
g272
sg273
I6
sg274
I2
sg275
F1.0
sg263
g276
sg277
I0
sg278
F154.01209902763367
ssI61
(dp402
g8
F0.6695311069488525
sg268
S'./stimfiles/scenes/580.jpg'
p403
sg270
F156.0
sg271
g272
sg273
I6
sg274
I2
sg275
F1.0
sg263
g276
sg277
I0
sg278
F156.01296997070312
ssI62
(dp404
g8
F0.7318217754364014
sg268
S'./stimfiles/scenes/1299.jpg'
p405
sg270
F158.0
sg271
g272
sg273
I6
sg274
I2
sg275
F1.0
sg263
g276
sg277
I0
sg278
F158.01382112503052
ssI63
(dp406
g8
F0.6111600399017334
sg268
S'./stimfiles/scenes/1835.jpg'
p407
sg270
F160.0
sg271
g272
sg273
I6
sg274
I2
sg275
F1.0
sg263
g276
sg277
I0
sg278
F160.01454305648804
ssI64
(dp408
g8
F0.6572659015655518
sg268
S'./stimfiles/scenes/678.jpg'
p409
sg270
F162.0
sg271
g272
sg273
I6
sg274
I2
sg275
F1.0
sg263
g276
sg277
I0
sg278
F162.0153729915619
ssI65
(dp410
g8
F0.7435460090637207
sg268
S'./stimfiles/scenes/652.jpg'
p411
sg270
F164.0
sg271
g272
sg273
I6
sg274
I2
sg275
F1.0
sg263
g276
sg277
I0
sg278
F164.01624011993408
ssI66
(dp412
g8
F0.6391019821166992
sg268
S'./stimfiles/scenes/990.jpg'
p413
sg270
F166.0
sg271
g272
sg273
I6
sg274
I2
sg275
F1.0
sg263
g276
sg277
I0
sg278
F166.01701593399048
ssI67
(dp414
g8
F0.6110508441925049
sg268
S'./stimfiles/scenes/553.jpg'
p415
sg270
F168.0
sg271
g272
sg273
I6
sg274
I2
sg275
F1.0
sg263
g276
sg277
I0
sg278
F168.0179090499878
ssI68
(dp416
g8
F0.76226806640625
sg268
S'./stimfiles/scenes/990.jpg'
p417
sg270
F170.0
sg271
g272
sg273
I6
sg274
I2
sg275
F1.0
sg263
g285
sg277
I2
sg278
F170.01868891716003
ssI69
(dp418
g8
F0.6525449752807617
sg268
S'./stimfiles/scenes/553.jpg'
p419
sg270
F172.0
sg271
g272
sg273
I6
sg274
I2
sg275
F1.0
sg263
g285
sg277
I2
sg278
F172.01947593688965
ssI70
(dp420
g8
F0.49491000175476074
sg268
S'./stimfiles/chinese_characters/24776.jpg'
p421
sg270
F176.0
sg271
g300
sg273
I7
sg274
I1
sg275
F1.0
sg263
g276
sg277
I0
sg278
F176.02114391326904
ssI71
(dp422
g8
F0.5072619915008545
sg268
S'./stimfiles/chinese_characters/35447.jpg'
p423
sg270
F178.0
sg271
g300
sg273
I7
sg274
I1
sg275
F1.0
sg263
g276
sg277
I0
sg278
F178.02193212509155
ssI72
(dp424
g8
F0.5616281032562256
sg268
S'./stimfiles/chinese_characters/25177.jpg'
p425
sg270
F180.0
sg271
g300
sg273
I7
sg274
I1
sg275
F1.0
sg263
g276
sg277
I0
sg278
F180.02277994155884
ssI73
(dp426
g8
F0.5475420951843262
sg268
S'./stimfiles/chinese_characters/28697.jpg'
p427
sg270
F182.0
sg271
g300
sg273
I7
sg274
I1
sg275
F1.0
sg263
g276
sg277
I0
sg278
F182.02367091178894
ssI74
(dp428
g8
F0.6249251365661621
sg268
S'./stimfiles/chinese_characters/26580.jpg'
p429
sg270
F184.0
sg271
g300
sg273
I7
sg274
I1
sg275
F1.0
sg263
g276
sg277
I0
sg278
F184.0244379043579
ssI75
(dp430
g8
F0.5691831111907959
sg268
S'./stimfiles/chinese_characters/26580.jpg'
p431
sg270
F186.0
sg271
g300
sg273
I7
sg274
I1
sg275
F1.0
sg263
g285
sg277
I1
sg278
F186.02528500556946
ssI76
(dp432
g8
F0.695389986038208
sg268
S'./stimfiles/chinese_characters/28697.jpg'
p433
sg270
F188.0
sg271
g300
sg273
I7
sg274
I1
sg275
F1.0
sg263
g276
sg277
I3
sg278
F188.02610611915588
ssI77
(dp434
g8
F0.687190055847168
sg268
S'./stimfiles/chinese_characters/28697.jpg'
p435
sg270
F190.0
sg271
g300
sg273
I7
sg274
I1
sg275
F1.0
sg263
g285
sg277
I1
sg278
F190.01024794578552
ssI78
(dp436
g8
F0.6584718227386475
sg268
S'./stimfiles/chinese_characters/20679.jpg'
p437
sg270
F192.0
sg271
g300
sg273
I7
sg274
I1
sg275
F1.0
sg263
g276
sg277
I0
sg278
F192.0111141204834
ssI79
(dp438
g8
F0.6518158912658691
sg268
S'./stimfiles/chinese_characters/28697.jpg'
p439
sg270
F194.0
sg271
g300
sg273
I7
sg274
I1
sg275
F1.0
sg263
g276
sg277
I3
sg278
F194.0118670463562
ssI80
(dp440
g8
F0.8611958026885986
sg268
S'./stimfiles/faces/cropped_f1-013-01.png'
p441
sg270
F198.0
sg271
g321
sg273
I8
sg274
I2
sg275
F1.0
sg263
g276
sg277
I0
sg278
F198.01349210739136
ssI81
(dp442
g8
F0.6126449108123779
sg268
S'./stimfiles/faces/cropped_m-031-01.png'
p443
sg270
F200.0
sg271
g321
sg273
I8
sg274
I2
sg275
F1.0
sg263
g276
sg277
I0
sg278
F200.01440501213074
ssI82
(dp444
g8
F0.6317510604858398
sg268
S'./stimfiles/faces/cropped_800.png'
p445
sg270
F202.0
sg271
g321
sg273
I8
sg274
I2
sg275
F1.0
sg263
g276
sg277
I0
sg278
F202.01519203186035
ssI83
(dp446
g8
F0.8890049457550049
sg268
S'./stimfiles/faces/cropped_f1-013-01.png'
p447
sg270
F204.0
sg271
g321
sg273
I8
sg274
I2
sg275
F1.0
sg263
g276
sg277
I3
sg278
F204.01597499847412
ssI84
(dp448
g8
F0.8101851940155029
sg268
S'./stimfiles/faces/cropped_301.png'
p449
sg270
F206.0
sg271
g321
sg273
I8
sg274
I2
sg275
F1.0
sg263
g276
sg277
I0
sg278
F206.01683592796326
ssI85
(dp450
g8
F0.9853971004486084
sg268
S'./stimfiles/faces/cropped_f1-013-01.png'
p451
sg270
F208.0
sg271
g321
sg273
I8
sg274
I2
sg275
F1.0
sg263
g285
sg277
I2
sg278
F208.01762890815735
ssI86
(dp452
g8
F0.6556699275970459
sg268
S'./stimfiles/faces/cropped_301.png'
p453
sg270
F210.0
sg271
g321
sg273
I8
sg274
I2
sg275
F1.0
sg263
g276
sg277
I2
sg278
F210.0184690952301
ssI87
(dp454
g8
F0.5998539924621582
sg268
S'./stimfiles/faces/cropped_f1-013-01.png'
p455
sg270
F212.0
sg271
g321
sg273
I8
sg274
I2
sg275
F1.0
sg263
g285
sg277
I2
sg278
F212.01929306983948
ssI88
(dp456
g8
F0.698077917098999
sg268
S'./stimfiles/faces/cropped_301.png'
p457
sg270
F214.0
sg271
g321
sg273
I8
sg274
I2
sg275
F1.0
sg263
g285
sg277
I2
sg278
F214.0201210975647
ssI89
(dp458
g8
F0.84440016746521
sg268
S'./stimfiles/faces/cropped_301.png'
p459
sg270
F216.0
sg271
g321
sg273
I8
sg274
I2
sg275
F1.0
sg263
g276
sg277
I1
sg278
F216.02092790603638
ssI90
(dp460
g8
F0.6748361587524414
sg268
S'./stimfiles/scenes/863.jpg'
p461
sg270
F220.0
sg271
g272
sg273
I9
sg274
I1
sg275
F1.0
sg263
g276
sg277
I0
sg278
F220.02255392074585
ssI91
(dp462
g8
F0.4878380298614502
sg268
S'./stimfiles/scenes/83.jpg'
p463
sg270
F222.0
sg271
g272
sg273
I9
sg274
I1
sg275
F1.0
sg263
g276
sg277
I0
sg278
F222.00663208961487
ssI92
(dp464
g8
F0.6720230579376221
sg268
S'./stimfiles/scenes/863.jpg'
p465
sg270
F224.0
sg271
g272
sg273
I9
sg274
I1
sg275
F1.0
sg263
g276
sg277
I2
sg278
F224.00754404067993
ssI93
(dp466
g8
F0.6121540069580078
sg268
S'./stimfiles/scenes/83.jpg'
p467
sg270
F226.0
sg271
g272
sg273
I9
sg274
I1
sg275
F1.0
sg263
g276
sg277
I2
sg278
F226.00839805603027
ssI94
(dp468
g8
F0.6055018901824951
sg268
S'./stimfiles/scenes/83.jpg'
p469
sg270
F228.0
sg271
g272
sg273
I9
sg274
I1
sg275
F1.0
sg263
g285
sg277
I1
sg278
F228.00911712646484
ssI95
(dp470
g8
F0.5938160419464111
sg268
S'./stimfiles/scenes/863.jpg'
p471
sg270
F230.0
sg271
g272
sg273
I9
sg274
I1
sg275
F1.0
sg263
g276
sg277
I3
sg278
F230.00995302200317
ssI96
(dp472
g8
F0.8079071044921875
sg268
S'./stimfiles/scenes/261.jpg'
p473
sg270
F232.0
sg271
g272
sg273
I9
sg274
I1
sg275
F1.0
sg263
g276
sg277
I0
sg278
F232.01081490516663
ssI97
(dp474
g8
F0.6701149940490723
sg268
S'./stimfiles/scenes/809.jpg'
p475
sg270
F234.0
sg271
g272
sg273
I9
sg274
I1
sg275
F1.0
sg263
g276
sg277
I0
sg278
F234.0116789340973
ssI98
(dp476
g8
F0.4494149684906006
sg268
S'./stimfiles/scenes/809.jpg'
p477
sg270
F236.0
sg271
g272
sg273
I9
sg274
I1
sg275
F1.0
sg263
g285
sg277
I1
sg278
F236.01243996620178
ssI99
(dp478
g8
F0.7057201862335205
sg268
S'./stimfiles/scenes/809.jpg'
p479
sg270
F238.0
sg271
g272
sg273
I9
sg274
I1
sg275
F1.0
sg263
g285
sg277
I1
sg278
F238.0132279396057
ssI100
(dp480
g8
F0.7230110168457031
sg268
S'./stimfiles/chinese_characters/25278.jpg'
p481
sg270
F242.0
sg271
g300
sg273
I10
sg274
I2
sg275
F1.0
sg263
g276
sg277
I0
sg278
F242.01493406295776
ssI101
(dp482
g8
F0.7053520679473877
sg268
S'./stimfiles/chinese_characters/20759.jpg'
p483
sg270
F244.0
sg271
g300
sg273
I10
sg274
I2
sg275
F1.0
sg263
g276
sg277
I0
sg278
F244.01575803756714
ssI102
(dp484
g8
F0.8405959606170654
sg268
S'./stimfiles/chinese_characters/25325.jpg'
p485
sg270
F246.0
sg271
g300
sg273
I10
sg274
I2
sg275
F1.0
sg263
g276
sg277
I0
sg278
F246.0165810585022
ssI103
(dp486
g8
F0.8397819995880127
sg268
S'./stimfiles/chinese_characters/20759.jpg'
p487
sg270
F248.0
sg271
g300
sg273
I10
sg274
I2
sg275
F1.0
sg263
g285
sg277
I2
sg278
F248.01739501953125
ssI104
(dp488
g8
F0.8420689105987549
sg268
S'./stimfiles/chinese_characters/26863.jpg'
p489
sg270
F250.0
sg271
g300
sg273
I10
sg274
I2
sg275
F1.0
sg263
g276
sg277
I0
sg278
F250.01817512512207
ssI105
(dp490
g8
F0.9312241077423096
sg268
S'./stimfiles/chinese_characters/20759.jpg'
p491
sg270
F252.0
sg271
g300
sg273
I10
sg274
I2
sg275
F1.0
sg263
g285
sg277
I2
sg278
F252.01906991004944
ssI106
(dp492
g8
F0.8434348106384277
sg268
S'./stimfiles/chinese_characters/25259.jpg'
p493
sg270
F254.0
sg271
g300
sg273
I10
sg274
I2
sg275
F1.0
sg263
g276
sg277
I0
sg278
F254.01985812187195
ssI107
(dp494
g8
F0.8437240123748779
sg268
S'./stimfiles/chinese_characters/29887.jpg'
p495
sg270
F256.0
sg271
g300
sg273
I10
sg274
I2
sg275
F1.0
sg263
g276
sg277
I0
sg278
F256.0206561088562
ssI108
(dp496
g8
F0.832988977432251
sg268
S'./stimfiles/chinese_characters/25259.jpg'
p497
sg270
F258.0
sg271
g300
sg273
I10
sg274
I2
sg275
F1.0
sg263
g285
sg277
I2
sg278
F258.0214669704437
ssI109
(dp498
g8
F0.8501999378204346
sg268
S'./stimfiles/chinese_characters/25259.jpg'
p499
sg270
F260.0
sg271
g300
sg273
I10
sg274
I2
sg275
F1.0
sg263
g276
sg277
I1
sg278
F260.0223159790039
ssI110
(dp500
g8
F0.6276860237121582
sg268
S'./stimfiles/faces/cropped_363.png'
p501
sg270
F264.0
sg271
g321
sg273
I11
sg274
I1
sg275
F1.0
sg263
g276
sg277
I0
sg278
F264.0239589214325
ssI111
(dp502
g8
F0.7179350852966309
sg268
S'./stimfiles/faces/cropped_388.png'
p503
sg270
F266.0
sg271
g321
sg273
I11
sg274
I1
sg275
F1.0
sg263
g276
sg277
I0
sg278
F266.0247359275818
ssI112
(dp504
g8
F0.5691590309143066
sg268
S'./stimfiles/faces/cropped_m-026-01.png'
p505
sg270
F268.0
sg271
g321
sg273
I11
sg274
I1
sg275
F1.0
sg263
g276
sg277
I0
sg278
F268.0256359577179
ssI113
(dp506
g8
F0.5723881721496582
sg268
S'./stimfiles/faces/cropped_f2v1e1.png'
p507
sg270
F270.0
sg271
g321
sg273
I11
sg274
I1
sg275
F1.0
sg263
g276
sg277
I0
sg278
F270.0264239311218
ssI114
(dp508
g8
F0.7031991481781006
sg268
S'./stimfiles/faces/cropped_m-073-01.png'
p509
sg270
F272.0
sg271
g321
sg273
I11
sg274
I1
sg275
F1.0
sg263
g276
sg277
I0
sg278
F272.01052594184875
ssI115
(dp510
g8
F0.6455938816070557
sg268
S'./stimfiles/faces/cropped_m-026-01.png'
p511
sg270
F274.0
sg271
g321
sg273
I11
sg274
I1
sg275
F1.0
sg263
g276
sg277
I3
sg278
F274.0113320350647
ssI116
(dp512
g8
F0.6518290042877197
sg268
S'./stimfiles/faces/cropped_m-073-01.png'
p513
sg270
F276.0
sg271
g321
sg273
I11
sg274
I1
sg275
F1.0
sg263
g276
sg277
I2
sg278
F276.0121920108795
ssI117
(dp514
g8
F0.5070569515228271
sg268
S'./stimfiles/faces/cropped_m-073-01.png'
p515
sg270
F278.0
sg271
g321
sg273
I11
sg274
I1
sg275
F1.0
sg263
g285
sg277
I1
sg278
F278.0129771232605
ssI118
(dp516
g8
F0.6363019943237305
sg268
S'./stimfiles/faces/cropped_691.png'
p517
sg270
F280.0
sg271
g321
sg273
I11
sg274
I1
sg275
F1.0
sg263
g276
sg277
I0
sg278
F280.01380705833435
ssI119
(dp518
g8
F0.9355020523071289
sg268
S'./stimfiles/faces/cropped_m-073-01.png'
p519
sg270
F282.0
sg271
g321
sg273
I11
sg274
I1
sg275
F1.0
sg263
g276
sg277
I3
sg278
F282.0146610736847
ssI120
(dp520
g8
F0.5769999027252197
sg268
S'./stimfiles/scenes/1228.jpg'
p521
sg270
F306.0
sg271
g272
sg273
I12
sg274
I2
sg275
F1.0
sg263
g276
sg277
I0
sg278
F306.0078330039978
ssI121
(dp522
g8
F0.7462759017944336
sg268
S'./stimfiles/scenes/1228.jpg'
p523
sg270
F308.0
sg271
g272
sg273
I12
sg274
I2
sg275
F1.0
sg263
g276
sg277
I1
sg278
F308.00864911079407
ssI122
(dp524
g8
F0.9704058170318604
sg268
S'./stimfiles/scenes/1359.jpg'
p525
sg270
F310.0
sg271
g272
sg273
I12
sg274
I2
sg275
F1.0
sg263
g285
sg277
I0
sg278
F310.0095090866089
ssI123
(dp526
g8
F0.7606971263885498
sg268
S'./stimfiles/scenes/1228.jpg'
p527
sg270
F312.0
sg271
g272
sg273
I12
sg274
I2
sg275
F1.0
sg263
g285
sg277
I2
sg278
F312.01033091545105
ssI124
(dp528
g8
F0.6089239120483398
sg268
S'./stimfiles/scenes/1424.jpg'
p529
sg270
F314.0
sg271
g272
sg273
I12
sg274
I2
sg275
F1.0
sg263
g276
sg277
I0
sg278
F314.0111150741577
ssI125
(dp530
g8
F0.9000959396362305
sg268
S'./stimfiles/scenes/1359.jpg'
p531
sg270
F316.0
sg271
g272
sg273
I12
sg274
I2
sg275
F1.0
sg263
g276
sg277
I3
sg278
F316.0119071006775
ssI126
(dp532
g8
F0.7494089603424072
sg268
S'./stimfiles/scenes/1727.jpg'
p533
sg270
F318.0
sg271
g272
sg273
I12
sg274
I2
sg275
F1.0
sg263
g276
sg277
I0
sg278
F318.01279401779175
ssI127
(dp534
g8
F0.7377650737762451
sg268
S'./stimfiles/scenes/1528.jpg'
p535
sg270
F320.0
sg271
g272
sg273
I12
sg274
I2
sg275
F1.0
sg263
g276
sg277
I0
sg278
F320.01365303993225
ssI128
(dp536
g8
F0.7498738765716553
sg268
S'./stimfiles/scenes/1727.jpg'
p537
sg270
F322.0
sg271
g272
sg273
I12
sg274
I2
sg275
F1.0
sg263
g285
sg277
I2
sg278
F322.01441407203674
ssI129
(dp538
g8
F0.6711070537567139
sg268
S'./stimfiles/scenes/1727.jpg'
p539
sg270
F324.0
sg271
g272
sg273
I12
sg274
I2
sg275
F1.0
sg263
g276
sg277
I1
sg278
F324.01526403427124
ssI130
(dp540
g8
F0.7415781021118164
sg268
S'./stimfiles/chinese_characters/32095.jpg'
p541
sg270
F328.0
sg271
g300
sg273
I13
sg274
I1
sg275
F1.0
sg263
g276
sg277
I0
sg278
F328.0169060230255
ssI131
(dp542
g8
F0.5738430023193359
sg268
S'./stimfiles/chinese_characters/25949.jpg'
p543
sg270
F330.0
sg271
g300
sg273
I13
sg274
I1
sg275
F1.0
sg263
g276
sg277
I0
sg278
F330.01766204833984
ssI132
(dp544
g8
F0.48496413230895996
sg268
S'./stimfiles/chinese_characters/24769.jpg'
p545
sg270
F332.0
sg271
g300
sg273
I13
sg274
I1
sg275
F1.0
sg263
g276
sg277
I0
sg278
F332.0185179710388
ssI133
(dp546
g8
F0.525231122970581
sg268
S'./stimfiles/chinese_characters/25949.jpg'
p547
sg270
F334.0
sg271
g300
sg273
I13
sg274
I1
sg275
F1.0
sg263
g276
sg277
I2
sg278
F334.0193829536438
ssI134
(dp548
g8
F0.5455710887908936
sg268
S'./stimfiles/chinese_characters/29807.jpg'
p549
sg270
F336.0
sg271
g300
sg273
I13
sg274
I1
sg275
F1.0
sg263
g276
sg277
I0
sg278
F336.0201189517975
ssI135
(dp550
g8
F0.8566889762878418
sg268
S'./stimfiles/chinese_characters/29807.jpg'
p551
sg270
F338.0
sg271
g300
sg273
I13
sg274
I1
sg275
F1.0
sg263
g285
sg277
I1
sg278
F338.0210349559784
ssI136
(dp552
g8
F0.7810690402984619
sg268
S'./stimfiles/chinese_characters/29807.jpg'
p553
sg270
F340.0
sg271
g300
sg273
I13
sg274
I1
sg275
F1.0
sg263
g285
sg277
I1
sg278
F340.0218229293823
ssI137
(dp554
g8
F0.48906803131103516
sg268
S'./stimfiles/chinese_characters/26041.jpg'
p555
sg270
F342.0
sg271
g300
sg273
I13
sg274
I1
sg275
F1.0
sg263
g276
sg277
I0
sg278
F342.0226650238037
ssI138
(dp556
g8
F0.6394059658050537
sg268
S'./stimfiles/chinese_characters/25007.jpg'
p557
sg270
F344.0
sg271
g300
sg273
I13
sg274
I1
sg275
F1.0
sg263
g276
sg277
I0
sg278
F344.02346301078796
ssI139
(dp558
g8
F0.4977428913116455
sg268
S'./stimfiles/chinese_characters/26041.jpg'
p559
sg270
F346.0
sg271
g300
sg273
I13
sg274
I1
sg275
F1.0
sg263
g276
sg277
I2
sg278
F346.02421402931213
ssI140
(dp560
g8
F0.632145881652832
sg268
S'./stimfiles/faces/cropped_m1-011-01.png'
p561
sg270
F350.0
sg271
g321
sg273
I14
sg274
I2
sg275
F1.0
sg263
g276
sg277
I0
sg278
F350.02596402168274
ssI141
(dp562
g8
F0.6654379367828369
sg268
S'./stimfiles/faces/cropped_78a.png'
p563
sg270
F352.0
sg271
g321
sg273
I14
sg274
I2
sg275
F1.0
sg263
g276
sg277
I0
sg278
F352.0266909599304
ssI142
(dp564
g8
F0.7582840919494629
sg268
S'./stimfiles/faces/cropped_f4016.png'
p565
sg270
F354.0
sg271
g321
sg273
I14
sg274
I2
sg275
F1.0
sg263
g276
sg277
I0
sg278
F354.0109169483185
ssI143
(dp566
g8
F0.8045759201049805
sg268
S'./stimfiles/faces/cropped_f4016.png'
p567
sg270
F356.0
sg271
g321
sg273
I14
sg274
I2
sg275
F1.0
sg263
g276
sg277
I1
sg278
F356.011677980423
ssI144
(dp568
g8
F0.7007288932800293
sg268
S'./stimfiles/faces/cropped_31MVC-003F.png'
p569
sg270
F358.0
sg271
g321
sg273
I14
sg274
I2
sg275
F1.0
sg263
g276
sg277
I0
sg278
F358.0125730037689
ssI145
(dp570
g8
F0.4770848751068115
sg268
S'./stimfiles/faces/cropped_f4016.png'
p571
sg270
F360.0
sg271
g321
sg273
I14
sg274
I2
sg275
F1.0
sg263
g285
sg277
I3
sg278
F360.01327204704285
ssI146
(dp572
g8
F0.658390998840332
sg268
S'./stimfiles/faces/cropped_image_0245.png'
p573
sg270
F362.0
sg271
g321
sg273
I14
sg274
I2
sg275
F1.0
sg263
g276
sg277
I0
sg278
F362.01413011550903
ssI147
(dp574
g8
F0.704481840133667
sg268
S'./stimfiles/faces/cropped_31MVC-003F.png'
p575
sg270
F364.0
sg271
g321
sg273
I14
sg274
I2
sg275
F1.0
sg263
g276
sg277
I3
sg278
F364.01499009132385
ssI148
(dp576
g8
F0.7677137851715088
sg268
S'./stimfiles/faces/cropped_31MVC-003F.png'
p577
sg270
F366.0
sg271
g321
sg273
I14
sg274
I2
sg275
F1.0
sg263
g276
sg277
I1
sg278
F366.01582312583923
ssI149
(dp578
g8
F0.6929011344909668
sg268
S'./stimfiles/faces/cropped_905.png'
p579
sg270
F368.0
sg271
g321
sg273
I14
sg274
I2
sg275
F1.0
sg263
g276
sg277
I0
sg278
F368.01664996147156
ssI150
(dp580
g8
F0.5783240795135498
sg268
S'./stimfiles/scenes/1800.jpg'
p581
sg270
F372.0
sg271
g272
sg273
I15
sg274
I1
sg275
F1.0
sg263
g276
sg277
I0
sg278
F372.01829195022583
ssI151
(dp582
g8
F0.65460205078125
sg268
S'./stimfiles/scenes/3014.jpg'
p583
sg270
F374.0
sg271
g272
sg273
I15
sg274
I1
sg275
F1.0
sg263
g276
sg277
I0
sg278
F374.0191390514374
ssI152
(dp584
g8
F0.8859899044036865
sg268
S'./stimfiles/scenes/3014.jpg'
p585
sg270
F376.0
sg271
g272
sg273
I15
sg274
I1
sg275
F1.0
sg263
g285
sg277
I1
sg278
F376.0198600292206
ssI153
(dp586
g8
F0.4029960632324219
sg268
S'./stimfiles/scenes/284.jpg'
p587
sg270
F378.0
sg271
g272
sg273
I15
sg274
I1
sg275
F1.0
sg263
g276
sg277
I0
sg278
F378.0208399295807
ssI154
(dp588
g8
F0.5093610286712646
sg268
S'./stimfiles/scenes/1593.jpg'
p589
sg270
F380.0
sg271
g272
sg273
I15
sg274
I1
sg275
F1.0
sg263
g276
sg277
I0
sg278
F380.02155804634094
ssI155
(dp590
g8
F0.5036239624023438
sg268
S'./stimfiles/scenes/494.jpg'
p591
sg270
F382.0
sg271
g272
sg273
I15
sg274
I1
sg275
F1.0
sg263
g276
sg277
I0
sg278
F382.0223939418793
ssI156
(dp592
g8
F0.6799130439758301
sg268
S'./stimfiles/scenes/771.jpg'
p593
sg270
F384.0
sg271
g272
sg273
I15
sg274
I1
sg275
F1.0
sg263
g276
sg277
I0
sg278
F384.02315497398376
ssI157
(dp594
g8
F0.571707010269165
sg268
S'./stimfiles/scenes/3056.jpg'
p595
sg270
F386.0
sg271
g272
sg273
I15
sg274
I1
sg275
F1.0
sg263
g276
sg277
I0
sg278
F386.00738191604614
ssI158
(dp596
g8
F0.714918851852417
sg268
S'./stimfiles/scenes/1247.jpg'
p597
sg270
F388.0
sg271
g272
sg273
I15
sg274
I1
sg275
F1.0
sg263
g276
sg277
I0
sg278
F388.0081651210785
ssI159
(dp598
g8
F0.589271068572998
sg268
S'./stimfiles/scenes/1431.jpg'
p599
sg270
F390.0
sg271
g272
sg273
I15
sg274
I1
sg275
F1.0
sg263
g276
sg277
I0
sg278
F390.00896096229553
ssI160
(dp600
g8
F0.4800260066986084
sg268
S'./stimfiles/chinese_characters/29296.jpg'
p601
sg270
F394.0
sg271
g300
sg273
I16
sg274
I2
sg275
F1.0
sg263
g276
sg277
I0
sg278
F394.02731800079346
ssI161
(dp602
g8
F0.4668269157409668
sg268
S'./stimfiles/chinese_characters/27443.jpg'
p603
sg270
F396.0
sg271
g300
sg273
I16
sg274
I2
sg275
F1.0
sg263
g276
sg277
I0
sg278
F396.01148104667664
ssI162
(dp604
g8
F0.49409008026123047
sg268
S'./stimfiles/chinese_characters/29296.jpg'
p605
sg270
F398.0
sg271
g300
sg273
I16
sg274
I2
sg275
F1.0
sg263
g285
sg277
I2
sg278
F398.0122859477997
ssI163
(dp606
g8
F0.5353960990905762
sg268
S'./stimfiles/chinese_characters/35583.jpg'
p607
sg270
F400.0
sg271
g300
sg273
I16
sg274
I2
sg275
F1.0
sg263
g276
sg277
I0
sg278
F400.01310992240906
ssI164
(dp608
g8
F0.7295880317687988
sg268
S'./stimfiles/chinese_characters/20744.jpg'
p609
sg270
F402.0
sg271
g300
sg273
I16
sg274
I2
sg275
F1.0
sg263
g276
sg277
I0
sg278
F402.0139670372009
ssI165
(dp610
g8
F0.7739310264587402
sg268
S'./stimfiles/chinese_characters/29296.jpg'
p611
sg270
F404.0
sg271
g300
sg273
I16
sg274
I2
sg275
F1.0
sg263
g276
sg277
I3
sg278
F404.0147180557251
ssI166
(dp612
g8
F0.9321949481964111
sg268
S'./stimfiles/chinese_characters/20744.jpg'
p613
sg270
F406.0
sg271
g300
sg273
I16
sg274
I2
sg275
F1.0
sg263
g285
sg277
I2
sg278
F406.0155529975891
ssI167
(dp614
g8
F0.5684630870819092
sg268
S'./stimfiles/chinese_characters/25959.jpg'
p615
sg270
F408.0
sg271
g300
sg273
I16
sg274
I2
sg275
F1.0
sg263
g276
sg277
I0
sg278
F408.0163550376892
ssI168
(dp616
g8
F0.734591007232666
sg268
S'./stimfiles/chinese_characters/25959.jpg'
p617
sg270
F410.0
sg271
g300
sg273
I16
sg274
I2
sg275
F1.0
sg263
g276
sg277
I1
sg278
F410.0172109603882
ssI169
(dp618
g8
F0.6747801303863525
sg268
S'./stimfiles/chinese_characters/26568.jpg'
p619
sg270
F412.0
sg271
g300
sg273
I16
sg274
I2
sg275
F1.0
sg263
g276
sg277
I0
sg278
F412.018079996109
ssI170
(dp620
g8
F0.5543179512023926
sg268
S'./stimfiles/faces/cropped_m-057-01.png'
p621
sg270
F416.0
sg271
g321
sg273
I17
sg274
I1
sg275
F1.0
sg263
g276
sg277
I0
sg278
F416.01961612701416
ssI171
(dp622
g8
F0.5186629295349121
sg268
S'./stimfiles/faces/cropped_m17v1e1.png'
p623
sg270
F418.0
sg271
g321
sg273
I17
sg274
I1
sg275
F1.0
sg263
g276
sg277
I0
sg278
F418.02044200897217
ssI172
(dp624
g8
F0.5607569217681885
sg268
S'./stimfiles/faces/cropped_m17v1e1.png'
p625
sg270
F420.0
sg271
g321
sg273
I17
sg274
I1
sg275
F1.0
sg263
g285
sg277
I1
sg278
F420.0212969779968
ssI173
(dp626
g8
F0.700092077255249
sg268
S'./stimfiles/faces/cropped_m-057-01.png'
p627
sg270
F422.0
sg271
g321
sg273
I17
sg274
I1
sg275
F1.0
sg263
g276
sg277
I3
sg278
F422.0220799446106
ssI174
(dp628
g8
F0.7071700096130371
sg268
S'./stimfiles/faces/cropped_448.png'
p629
sg270
F424.0
sg271
g321
sg273
I17
sg274
I1
sg275
F1.0
sg263
g276
sg277
I0
sg278
F424.0229480266571
ssI175
(dp630
g8
F0.5965089797973633
sg268
S'./stimfiles/faces/cropped_448.png'
p631
sg270
F426.0
sg271
g321
sg273
I17
sg274
I1
sg275
F1.0
sg263
g285
sg277
I1
sg278
F426.0237760543823
ssI176
(dp632
g8
F0.7515869140625
sg268
S'./stimfiles/faces/cropped_448.png'
p633
sg270
F428.0
sg271
g321
sg273
I17
sg274
I1
sg275
F1.0
sg263
g285
sg277
I1
sg278
F428.0246250629425
ssI177
(dp634
g8
F0.6288959980010986
sg268
S'./stimfiles/faces/cropped_98.png'
p635
sg270
F430.0
sg271
g321
sg273
I17
sg274
I1
sg275
F1.0
sg263
g276
sg277
I0
sg278
F430.02538990974426
ssI178
(dp636
g8
F0.9081041812896729
sg268
S'./stimfiles/faces/cropped_448.png'
p637
sg270
F432.0
sg271
g321
sg273
I17
sg274
I1
sg275
F1.0
sg263
g276
sg277
I2
sg278
F432.0262849330902
ssI179
(dp638
g8
F0.6114060878753662
sg268
S'./stimfiles/faces/cropped_932.png'
p639
sg270
F434.0
sg271
g321
sg273
I17
sg274
I1
sg275
F1.0
sg263
g276
sg277
I0
sg278
F434.02705693244934
sssS'stim_log'
p640
(dp641
sS'nstims'
p642
I5
sS'inter_stim_int'
p643
F1.0
sS'SS'
p644
(dp645
sS'inst_time'
p646
F1.0
sS'broke_on_trial'
p647
(dp648
sS'events'
p649
(lp650
(lp651
F0.0
aI0
aI2
aI0
aS'inst'
p652
aa(lp653
F2.0
aI0
aI2
aI0
ag269
aa(lp654
F4.0
aI0
aI2
aI1
ag280
aa(lp655
F6.0
aI0
aI2
aI0
ag282
aa(lp656
F8.0
aI0
aI2
aI3
ag284
aa(lp657
F10.0
aI0
aI2
aI0
ag287
aa(lp658
F12.0
aI0
aI2
aI0
ag289
aa(lp659
F14.0
aI0
aI2
aI2
ag291
aa(lp660
F16.0
aI0
aI2
aI0
ag293
aa(lp661
F18.0
aI0
aI2
aI3
ag295
aa(lp662
F20.0
aI0
aI2
aI2
ag297
aa(lp663
F22.0
aI1
aI1
aI0
aS'inst'
p664
aa(lp665
F24.0
aI1
aI1
aI0
ag299
aa(lp666
F26.0
aI1
aI1
aI0
ag302
aa(lp667
F28.0
aI1
aI1
aI2
ag304
aa(lp668
F30.0
aI1
aI1
aI1
ag306
aa(lp669
F32.0
aI1
aI1
aI0
ag308
aa(lp670
F34.0
aI1
aI1
aI0
ag310
aa(lp671
F36.0
aI1
aI1
aI0
ag312
aa(lp672
F38.0
aI1
aI1
aI0
ag314
aa(lp673
F40.0
aI1
aI1
aI1
ag316
aa(lp674
F42.0
aI1
aI1
aI3
ag318
aa(lp675
F44.0
aI2
aI2
aI0
aS'inst'
p676
aa(lp677
F46.0
aI2
aI2
aI0
ag320
aa(lp678
F48.0
aI2
aI2
aI0
ag323
aa(lp679
F50.0
aI2
aI2
aI0
ag325
aa(lp680
F52.0
aI2
aI2
aI0
ag327
aa(lp681
F54.0
aI2
aI2
aI0
ag329
aa(lp682
F56.0
aI2
aI2
aI0
ag331
aa(lp683
F58.0
aI2
aI2
aI2
ag333
aa(lp684
F60.0
aI2
aI2
aI0
ag335
aa(lp685
F62.0
aI2
aI2
aI2
ag337
aa(lp686
F64.0
aI2
aI2
aI0
ag339
aa(lp687
F66.0
aI3
aI1
aI0
aS'inst'
p688
aa(lp689
F68.0
aI3
aI1
aI0
ag341
aa(lp690
F70.0
aI3
aI1
aI0
ag343
aa(lp691
F72.0
aI3
aI1
aI2
ag345
aa(lp692
F74.0
aI3
aI1
aI1
ag347
aa(lp693
F76.0
aI3
aI1
aI1
ag349
aa(lp694
F78.0
aI3
aI1
aI0
ag351
aa(lp695
F80.0
aI3
aI1
aI3
ag353
aa(lp696
F82.0
aI3
aI1
aI0
ag355
aa(lp697
F84.0
aI3
aI1
aI0
ag357
aa(lp698
F86.0
aI3
aI1
aI3
ag359
aa(lp699
F88.0
aI4
aI2
aI0
aS'inst'
p700
aa(lp701
F90.0
aI4
aI2
aI0
ag361
aa(lp702
F92.0
aI4
aI2
aI0
ag363
aa(lp703
F94.0
aI4
aI2
aI0
ag365
aa(lp704
F96.0
aI4
aI2
aI3
ag367
aa(lp705
F98.0
aI4
aI2
aI3
ag369
aa(lp706
F100.0
aI4
aI2
aI2
ag371
aa(lp707
F102.0
aI4
aI2
aI0
ag373
aa(lp708
F104.0
aI4
aI2
aI1
ag375
aa(lp709
F106.0
aI4
aI2
aI0
ag377
aa(lp710
F108.0
aI4
aI2
aI0
ag379
aa(lp711
F110.0
aI5
aI1
aI0
aS'inst'
p712
aa(lp713
F112.0
aI5
aI1
aI0
ag381
aa(lp714
F114.0
aI5
aI1
aI1
ag383
aa(lp715
F116.0
aI5
aI1
aI0
ag385
aa(lp716
F118.0
aI5
aI1
aI2
ag387
aa(lp717
F120.0
aI5
aI1
aI0
ag389
aa(lp718
F122.0
aI5
aI1
aI0
ag391
aa(lp719
F124.0
aI5
aI1
aI0
ag393
aa(lp720
F126.0
aI5
aI1
aI1
ag395
aa(lp721
F128.0
aI5
aI1
aI0
ag397
aa(lp722
F130.0
aI5
aI1
aI0
ag399
aa(lp723
F152.0
aI0
aI2
aI0
aS'inst'
p724
aa(lp725
F154.0
aI6
aI2
aI0
ag401
aa(lp726
F156.0
aI6
aI2
aI0
ag403
aa(lp727
F158.0
aI6
aI2
aI0
ag405
aa(lp728
F160.0
aI6
aI2
aI0
ag407
aa(lp729
F162.0
aI6
aI2
aI0
ag409
aa(lp730
F164.0
aI6
aI2
aI0
ag411
aa(lp731
F166.0
aI6
aI2
aI0
ag413
aa(lp732
F168.0
aI6
aI2
aI0
ag415
aa(lp733
F170.0
aI6
aI2
aI2
ag417
aa(lp734
F172.0
aI6
aI2
aI2
ag419
aa(lp735
F174.0
aI1
aI1
aI0
aS'inst'
p736
aa(lp737
F176.0
aI7
aI1
aI0
ag421
aa(lp738
F178.0
aI7
aI1
aI0
ag423
aa(lp739
F180.0
aI7
aI1
aI0
ag425
aa(lp740
F182.0
aI7
aI1
aI0
ag427
aa(lp741
F184.0
aI7
aI1
aI0
ag429
aa(lp742
F186.0
aI7
aI1
aI1
ag431
aa(lp743
F188.0
aI7
aI1
aI3
ag433
aa(lp744
F190.0
aI7
aI1
aI1
ag435
aa(lp745
F192.0
aI7
aI1
aI0
ag437
aa(lp746
F194.0
aI7
aI1
aI3
ag439
aa(lp747
F196.0
aI2
aI2
aI0
aS'inst'
p748
aa(lp749
F198.0
aI8
aI2
aI0
ag441
aa(lp750
F200.0
aI8
aI2
aI0
ag443
aa(lp751
F202.0
aI8
aI2
aI0
ag445
aa(lp752
F204.0
aI8
aI2
aI3
ag447
aa(lp753
F206.0
aI8
aI2
aI0
ag449
aa(lp754
F208.0
aI8
aI2
aI2
ag451
aa(lp755
F210.0
aI8
aI2
aI2
ag453
aa(lp756
F212.0
aI8
aI2
aI2
ag455
aa(lp757
F214.0
aI8
aI2
aI2
ag457
aa(lp758
F216.0
aI8
aI2
aI1
ag459
aa(lp759
F218.0
aI3
aI1
aI0
aS'inst'
p760
aa(lp761
F220.0
aI9
aI1
aI0
ag461
aa(lp762
F222.0
aI9
aI1
aI0
ag463
aa(lp763
F224.0
aI9
aI1
aI2
ag465
aa(lp764
F226.0
aI9
aI1
aI2
ag467
aa(lp765
F228.0
aI9
aI1
aI1
ag469
aa(lp766
F230.0
aI9
aI1
aI3
ag471
aa(lp767
F232.0
aI9
aI1
aI0
ag473
aa(lp768
F234.0
aI9
aI1
aI0
ag475
aa(lp769
F236.0
aI9
aI1
aI1
ag477
aa(lp770
F238.0
aI9
aI1
aI1
ag479
aa(lp771
F240.0
aI4
aI2
aI0
aS'inst'
p772
aa(lp773
F242.0
aI10
aI2
aI0
ag481
aa(lp774
F244.0
aI10
aI2
aI0
ag483
aa(lp775
F246.0
aI10
aI2
aI0
ag485
aa(lp776
F248.0
aI10
aI2
aI2
ag487
aa(lp777
F250.0
aI10
aI2
aI0
ag489
aa(lp778
F252.0
aI10
aI2
aI2
ag491
aa(lp779
F254.0
aI10
aI2
aI0
ag493
aa(lp780
F256.0
aI10
aI2
aI0
ag495
aa(lp781
F258.0
aI10
aI2
aI2
ag497
aa(lp782
F260.0
aI10
aI2
aI1
ag499
aa(lp783
F262.0
aI5
aI1
aI0
aS'inst'
p784
aa(lp785
F264.0
aI11
aI1
aI0
ag501
aa(lp786
F266.0
aI11
aI1
aI0
ag503
aa(lp787
F268.0
aI11
aI1
aI0
ag505
aa(lp788
F270.0
aI11
aI1
aI0
ag507
aa(lp789
F272.0
aI11
aI1
aI0
ag509
aa(lp790
F274.0
aI11
aI1
aI3
ag511
aa(lp791
F276.0
aI11
aI1
aI2
ag513
aa(lp792
F278.0
aI11
aI1
aI1
ag515
aa(lp793
F280.0
aI11
aI1
aI0
ag517
aa(lp794
F282.0
aI11
aI1
aI3
ag519
aa(lp795
F304.0
aI0
aI2
aI0
aS'inst'
p796
aa(lp797
F306.0
aI12
aI2
aI0
ag521
aa(lp798
F308.0
aI12
aI2
aI1
ag523
aa(lp799
F310.0
aI12
aI2
aI0
ag525
aa(lp800
F312.0
aI12
aI2
aI2
ag527
aa(lp801
F314.0
aI12
aI2
aI0
ag529
aa(lp802
F316.0
aI12
aI2
aI3
ag531
aa(lp803
F318.0
aI12
aI2
aI0
ag533
aa(lp804
F320.0
aI12
aI2
aI0
ag535
aa(lp805
F322.0
aI12
aI2
aI2
ag537
aa(lp806
F324.0
aI12
aI2
aI1
ag539
aa(lp807
F326.0
aI1
aI1
aI0
aS'inst'
p808
aa(lp809
F328.0
aI13
aI1
aI0
ag541
aa(lp810
F330.0
aI13
aI1
aI0
ag543
aa(lp811
F332.0
aI13
aI1
aI0
ag545
aa(lp812
F334.0
aI13
aI1
aI2
ag547
aa(lp813
F336.0
aI13
aI1
aI0
ag549
aa(lp814
F338.0
aI13
aI1
aI1
ag551
aa(lp815
F340.0
aI13
aI1
aI1
ag553
aa(lp816
F342.0
aI13
aI1
aI0
ag555
aa(lp817
F344.0
aI13
aI1
aI0
ag557
aa(lp818
F346.0
aI13
aI1
aI2
ag559
aa(lp819
F348.0
aI2
aI2
aI0
aS'inst'
p820
aa(lp821
F350.0
aI14
aI2
aI0
ag561
aa(lp822
F352.0
aI14
aI2
aI0
ag563
aa(lp823
F354.0
aI14
aI2
aI0
ag565
aa(lp824
F356.0
aI14
aI2
aI1
ag567
aa(lp825
F358.0
aI14
aI2
aI0
ag569
aa(lp826
F360.0
aI14
aI2
aI3
ag571
aa(lp827
F362.0
aI14
aI2
aI0
ag573
aa(lp828
F364.0
aI14
aI2
aI3
ag575
aa(lp829
F366.0
aI14
aI2
aI1
ag577
aa(lp830
F368.0
aI14
aI2
aI0
ag579
aa(lp831
F370.0
aI3
aI1
aI0
aS'inst'
p832
aa(lp833
F372.0
aI15
aI1
aI0
ag581
aa(lp834
F374.0
aI15
aI1
aI0
ag583
aa(lp835
F376.0
aI15
aI1
aI1
ag585
aa(lp836
F378.0
aI15
aI1
aI0
ag587
aa(lp837
F380.0
aI15
aI1
aI0
ag589
aa(lp838
F382.0
aI15
aI1
aI0
ag591
aa(lp839
F384.0
aI15
aI1
aI0
ag593
aa(lp840
F386.0
aI15
aI1
aI0
ag595
aa(lp841
F388.0
aI15
aI1
aI0
ag597
aa(lp842
F390.0
aI15
aI1
aI0
ag599
aa(lp843
F392.0
aI4
aI2
aI0
aS'inst'
p844
aa(lp845
F394.0
aI16
aI2
aI0
ag601
aa(lp846
F396.0
aI16
aI2
aI0
ag603
aa(lp847
F398.0
aI16
aI2
aI2
ag605
aa(lp848
F400.0
aI16
aI2
aI0
ag607
aa(lp849
F402.0
aI16
aI2
aI0
ag609
aa(lp850
F404.0
aI16
aI2
aI3
ag611
aa(lp851
F406.0
aI16
aI2
aI2
ag613
aa(lp852
F408.0
aI16
aI2
aI0
ag615
aa(lp853
F410.0
aI16
aI2
aI1
ag617
aa(lp854
F412.0
aI16
aI2
aI0
ag619
aa(lp855
F414.0
aI5
aI1
aI0
aS'inst'
p856
aa(lp857
F416.0
aI17
aI1
aI0
ag621
aa(lp858
F418.0
aI17
aI1
aI0
ag623
aa(lp859
F420.0
aI17
aI1
aI1
ag625
aa(lp860
F422.0
aI17
aI1
aI3
ag627
aa(lp861
F424.0
aI17
aI1
aI0
ag629
aa(lp862
F426.0
aI17
aI1
aI1
ag631
aa(lp863
F428.0
aI17
aI1
aI1
ag633
aa(lp864
F430.0
aI17
aI1
aI0
ag635
aa(lp865
F432.0
aI17
aI1
aI2
ag637
aa(lp866
F434.0
aI17
aI1
aI0
ag639
aasS'is_this_SS_trial'
p867
(dp868
sS'subcode'
p869
S'self_tracking_0040'
p870
sS'start_key'
p871
S'5'
p872
s.