(dp0
S'stim_onset_time'
p1
(dp2
sS'datestamp'
p3
S'2013-01-31-07_38_48'
p4
sS'ntrials_per_block'
p5
I6
sS'expt_title'
p6
S'Self_Tracking'
p7
sS'rt'
p8
(dp9
sS'simulated_response'
p10
I00
sS'script'
p11
(lp12
S'#!/usr/bin/env python\n'
p13
aS'\n'
p14
aS'import psychopy\n'
p15
aS'from psychopy import visual, core, event, logging, data, misc, sound\n'
p16
aS'import numpy as N\n'
p17
aS'import pickle,csv\n'
p18
aS'import datetime\n'
p19
aS'import sys\n'
p20
aS'import os, socket, random\n'
p21
aS'import inspect\n'
p22
aS'import hashlib\n'
p23
aS'from socket import gethostname\n'
p24
aS'import exptutils\n'
p25
aS'from exptutils import *\n'
p26
aS'from pylab import imread\n'
p27
ag14
aS'try:\n'
p28
aS'    from save_data_to_db import *\n'
p29
aS'    save_data=1\n'
p30
aS'except:\n'
p31
aS"    print 'cannnot import save_data_to_db'\n"
p32
aS'    save_data=0\n'
p33
ag14
aS'def store_scriptfile():\n'
p34
aS'    scriptfile= inspect.getfile(inspect.currentframe())# save a copy of the script in the data file\n'
p35
aS'    f=open(scriptfile)\n'
p36
aS'    script=f.readlines()\n'
p37
aS'    f.close()\n'
p38
aS'    return script\n'
p39
ag14
aS'#\n'
p40
aS'#- - - - - - - - - - - - - - - - - - - - - - - - - - - - - - - - - - - - - - - - - - - - - - - - - - - - - - - - - - - - - - - - - - - - - - - - - - - - - -\n'
p41
aS'#define functions for awaiting keyboard input & displaying initial instructions\n'
p42
aS'#these functions will be called prior to the stim_block() function (at bottom)\n'
p43
ag14
aS'def wait_for_trigger():\n'
p44
aS'    event.clearEvents()\n'
p45
aS"    if subdata['simulated_response']:\n"
p46
aS'        msg="SIMULATION MODE"\n'
p47
aS'    else:\n'
p48
aS"        msg=''\n"
p49
aS"    message=visual.TextStim(win, text='%s Waiting for start key (or press %s)'%(msg,subdata['start_key']),\n"
p50
aS"    font='BiauKai', height=1,color=u'white', colorSpace=u'rgb', opacity=1,depth=0.0,\n"
p51
aS"    alignHoriz='center',wrapWidth=50)\n"
p52
aS'    message.setAutoDraw(True) #automatically draw every frame\n'
p53
aS'    win.flip()\n'
p54
aS'    start=False\n'
p55
aS'    while start==False:\n'
p56
aS'        k=event.waitKeys()\n'
p57
aS"        if k.count(subdata['start_key'])>0:#as soon as subdata['start_key'] is pressed...\n"
p58
aS'            start=True\n'
p59
aS"            message.setText('')#this clears the screen\n"
p60
aS'            win.flip()\n'
p61
aS"        if k.count(subdata['quit_key']) >0:# if subdata['quit_key'] is pressed...\n"
p62
aS'            exptutils.shut_down_cleanly(subdata,win)\n'
p63
aS'            return subdata\n'
p64
aS'            \n'
p65
aS"def instructions(n,duration):#n here changes depending on the n-back level; yes/no will also switch between 'u' & 'i' keys depending on the Order number selected\n"
p66
aS'    event.clearEvents()\n'
p67
aS"    instructions=visual.TextStim(win=win, ori=0, name='instructions',font='BiauKai',\n"
p68
aS"        text='%d back'%n,\n"
p69
aS"        height=2,color=u'white', colorSpace=u'rgb', alignHoriz='center',wrapWidth=50)\n"
p70
aS'    instructions.setAutoDraw(True)\n'
p71
aS'    win.flip()\n'
p72
aS'    core.wait(duration)#currently it is set up to keep instructions on screen the designated amt of time; a button press will not end these instructions sooner\n'
p73
aS"    instructions.setText('')\n"
p74
aS'    win.flip()\n'
p75
ag14
aS'#- - - - - - - - - - - - - - - - - - - - - - - - - - - - - - - - - - - - - - - - - - - - - - - - - - - - - - - - - - - - - - - - - - - - - - - - \n'
p76
ag14
ag14
aS'#define function for displaying visual stims for each trial on n-back task\n'
p77
ag14
aS'def draw_stim(win,event_info,subdata,visual_stim):\n'
p78
aS'    trialdata={}\n'
p79
aS"    trialdata['duration']=subdata['stim_dur']\n"
p80
aS"    trialdata['onset'],trialdata['block'],trialdata['nback'],trialdata['match'],trialdata['stim']=event_info\n"
p81
aS'    # NB: I removed a lot of data handling stuff from within this function\n'
p82
aS'    # instead, the data get returned and handled at the calling level\n'
p83
aS"    print trialdata['stim']\n"
p84
aS"    if trialdata['stim'].find('faces')>-1:#if it is a face image, display vertically\n"
p85
aS"        stim_type='faces'\n"
p86
aS"    elif trialdata['stim'].find('scenes')>-1:#\n"
p87
aS"        stim_type='scenes'\n"
p88
aS'    else:#if it is a character, display as text\n'
p89
aS"        stim_type='chinese_characters'\n"
p90
aS'        \n'
p91
aS"    visual_stim.setImage(trialdata['stim'])\n"
p92
aS"    trialdata['stim_type']=stim_type\n"
p93
aS'    \n'
p94
aS'        #visual_stim[stim_type].setAutoDraw(True)#get the image ready to display\n'
p95
aS'    visual_stim.draw()\n'
p96
aS"    while clock.getTime()<trialdata['onset']:#wait until the specified onset time to display image_file\n"
p97
aS'        pass\n'
p98
aS'    win.flip()\n'
p99
aS"    trialdata['actual_onset_time']=clock.getTime()\n"
p100
aS'    event.clearEvents()#clear all button presses\n'
p101
aS'    thisResp=None\n'
p102
aS'    simulated_rt=0.5 + N.random.rand()*0.1\n'
p103
aS"    while clock.getTime() < (trialdata['actual_onset_time'] + trialdata['duration']):#before the subdata['stim_dur'] time is exceeded, do this stuff...\n"
p104
aS'            key_response=event.getKeys()#look for yes,no, and quit commands\n'
p105
aS"            if subdata['simulated_response']:\n"
p106
aS"                if clock.getTime()> trialdata['actual_onset_time'] + simulated_rt:\n"
p107
aS'                    thisResp=1\n'
p108
aS"                    trialdata['rt']=clock.getTime() - trialdata['actual_onset_time'] #collect rt\n"
p109
aS"                    if trialdata['match']==trialdata['nback']:\n"
p110
aS"                        trialdata['response']='4'\n"
p111
aS'                    else:\n'
p112
aS"                        trialdata['response']='1'\n"
p113
ag14
aS'            elif key_response:#if they press any button\n'
p114
aS"                if key_response.count(subdata['quit_key'])>0:#if subj hits subdata['quit_key']...\n"
p115
aS'                    keep_going=0\n'
p116
aS"                    #subdata['broke_on_trial'][which_block]=trial_num\n"
p117
aS'                    #shut_down_cleanly(subdata,win)\n'
p118
aS'                    return None\n'
p119
aS"                elif key_response.count('5')>0:\n"
p120
aS"                    subdata['trigger_times'].append(clock.getTime())\n"
p121
aS'                else:\n'
p122
aS'                    thisResp=1\n'
p123
aS"                    trialdata['rt']=clock.getTime() - trialdata['actual_onset_time'] #collect rt\n"
p124
aS"                    trialdata['response']=key_response[0]#collect response\n"
p125
ag14
aS'    visual_stim.clearTextures()\n'
p126
ag14
aS'    win.flip()\n'
p127
ag14
aS'    #del visual_stim\n'
p128
aS'    return trialdata\n'
p129
aS'    \n'
p130
ag14
ag14
aS'#Text saying the task has finished. Disappears with key press\n'
p131
ag14
aS'def display_finished_text():#finished with experiment\n'
p132
aS'    event.clearEvents()\n'
p133
aS'    message=visual.TextStim(win=win, ori=0,\n'
p134
aS"    text='All finished! Thanks  :) \\n Press any key to clear the screen.',\n"
p135
aS"    font=u'BiauKai',pos=[0, 0], height=2,color=u'white', colorSpace=u'rgb', opacity=1,depth=0.0,alignHoriz='center',wrapWidth=50)\n"
p136
aS'    message.setAutoDraw(True) \n'
p137
aS'    win.flip()\n'
p138
aS'    start=False\n'
p139
aS'    while start==False:\n'
p140
aS'        key_response=event.getKeys()\n'
p141
aS'        if len(key_response)>0:\n'
p142
aS'            start=True\n'
p143
aS"            message.setText('')#this clears the screen\n"
p144
aS'            win.flip()\n'
p145
aS'    return start\n'
p146
aS'#- - - - - - - - - - - - - - - - - - - - - - - - - - - - - - - - - - - - - - - - - - - - - - - - - - - - - - - - - - - - - - - - - - - - - - \n'
p147
ag14
aS'    \n'
p148
aS'#set-up some variables\n'
p149
ag14
aS'verbose=True\n'
p150
aS'fullscr=False  # change to True for full screen display\n'
p151
ag14
aS"stim_types=['faces','scenes','chinese_characters']\n"
p152
aS'subdata={}\n'
p153
aS'finish_time=440\n'
p154
ag14
aS"subdata['start_key']='5'\n"
p155
aS"subdata['quit_key']='q'\n"
p156
aS"subdata['discard_time_to_wait']=0.0\n"
p157
aS"subdata['expt_title']='Self_Tracking'\n"
p158
aS"subdata['stim_dur']=1.0\n"
p159
aS"subdata['inter_stim_int']=1.0\n"
p160
aS"subdata['inst_time']=1.0\n"
p161
aS"subdata['rest_time']=10.0\n"
p162
aS"subdata['ExpVersion']=0.1\n"
p163
aS"subdata['nstims']=5\n"
p164
aS"subdata['ntrials_per_block']=6\n"
p165
aS"subdata['simulated_response']=False\n"
p166
aS"subdata['trigger_times']=[]\n"
p167
ag14
aS'if len(sys.argv)<2:\n'
p168
aS"    print 'USAGE: self_tracking.py <stimlist> <session code>'\n"
p169
aS'    sys.exit()\n'
p170
aS"    #subdata['onsetfile']='/Users/poldrack/Dropbox/Documents/Projects/self-tracking/task/onsetlists/stimlist_000.txt'\n"
p171
aS'else:\n'
p172
aS"    subdata['onsetfile']=sys.argv[1]\n"
p173
aS"    subdata['subcode']=sys.argv[2]\n"
p174
ag14
ag14
aS'# initialize subdata dictionary to store info about the study\n'
p175
aS"subdata['completed']=0\n"
p176
aS"subdata['cwd']=os.getcwd()\n"
p177
aS"subdata['hostname']=socket.gethostname()\n"
p178
aS'clock=core.Clock()\n'
p179
aS'datestamp=datetime.datetime.now().strftime("%Y-%m-%d-%H_%M_%S")\n'
p180
aS"subdata['datestamp']=datestamp\n"
p181
aS"subdata['expt_title']=subdata['expt_title']\n"
p182
aS"subdata['script']=store_scriptfile()\n"
p183
aS"subdata['onsets']=subdata['onsetfile']\n"
p184
ag14
aS'#these are all sub-dictionaries which will be appended w/separate info for each block & each trial\n'
p185
aS"#i.e., the 'response' dictionary will contain the following dictionaries: face_1, face_2, scenes_1, scenes_2, whose keys are trial_num and values are the responses on that trial\n"
p186
aS"subdata['response']={}\n"
p187
aS"subdata['score']={}\n"
p188
aS"subdata['rt']={}\n"
p189
aS"subdata['stim_onset_time']={}\n"
p190
aS"subdata['stim_log']={}\n"
p191
aS"subdata['is_this_SS_trial']={}\n"
p192
aS"subdata['SS']={}\n"
p193
aS"subdata['broke_on_trial']={}\n"
p194
ag14
aS'# set up logging information & create Output directories\n'
p195
aS"if not os.path.isdir('Output'):#make an Output directory if necessary\n"
p196
aS"    os.makedirs('Output') \n"
p197
ag14
aS"dataFileName='Output/%s_%s_subdata.log'%(subdata['subcode'],subdata['datestamp'])\n"
p198
aS'logging.console.setLevel(logging.INFO)\n'
p199
aS'logfile=logging.LogFile(dataFileName,level=logging.INFO)\n'
p200
ag14
aS'# load stimulus file\n'
p201
ag14
aS'def load_stimulus_file(onsfile):\n'
p202
aS'    events=[]\n'
p203
aS'    f=open(onsfile)\n'
p204
aS'    l=f.readlines()\n'
p205
aS'    for line in l:\n'
p206
aS"        l_s=line.strip('\\n').split('\\t')\n"
p207
aS'        events.append([float(l_s[0]),int(l_s[1]),int(l_s[2]),int(l_s[3]),l_s[4]])\n'
p208
aS'    f.close()\n'
p209
aS'    return events\n'
p210
ag14
aS"events=load_stimulus_file(subdata['onsetfile'])\n"
p211
ag14
aS'# set up the window \n'
p212
aS"win = visual.Window([800,600],allowGUI=True, fullscr=True, monitor='testMonitor', units='deg')\n"
p213
aS"win.setColor('black')\n"
p214
aS'win.flip()\n'
p215
aS'win.flip()\n'
p216
ag14
aS'#integrating everything together\n'
p217
ag14
aS"subdata['trialdata']={}\n"
p218
aS'#chardict=create_characters_dict()\n'
p219
ag14
aS"wait_for_trigger()#wait for subdata['start_key'] to be pressed\n"
p220
ag14
aS'visual_stim={}\n'
p221
aS"visual_stim=visual.ImageStim(win, image=N.zeros((10,10)), size=(0.75,0.75),units='height')\n"
p222
ag14
aS'# set clock to zero\n'
p223
aS'clock.reset()\n'
p224
aS'trialctr=0\n'
p225
aS'for i in range(len(events)):\n'
p226
aS"    if events[i][4]=='inst':\n"
p227
aS'        while clock.getTime() < events[i][0]:\n'
p228
aS'            pass\n'
p229
aS"        instructions(events[i][2],subdata['inst_time'])\n"
p230
aS'    else:\n'
p231
aS"        subdata['trialdata'][trialctr]=draw_stim(win,events[i],subdata,visual_stim)\n"
p232
aS"        if subdata['trialdata'][trialctr]==None:\n"
p233
aS'            break\n'
p234
aS'        trialctr+=1\n'
p235
aS"        print 'return time:',clock.getTime()\n"
p236
ag14
aS'#display_finished_text()\n'
p237
aS'while clock.getTime()<finish_time:\n'
p238
aS'\tpass\n'
p239
aS'\t\n'
p240
aS"subdata['events']=events\n"
p241
aS'if save_data==1:\n'
p242
aS"    docId,docRev=save_data_to_db(subdata,'selftracking-taskdata')\n"
p243
ag14
aS'shut_down_cleanly(subdata,win)\n'
p244
asS'onsets'
p245
S'onsetlists/stimlist_007.txt'
p246
sS'hostname'
p247
S'IRC-arizona'
p248
sS'score'
p249
(dp250
sS'rest_time'
p251
F10.0
sS'cwd'
p252
S'/Users/rap2623/Dropbox/Documents/Projects/self-tracking/task'
p253
sS'trigger_times'
p254
(lp255
F2.287870168685913
aF4.607802152633667
aF6.927898168563843
aF8.088063955307007
aF10.408043146133423
aF12.727005958557129
aF16.207093000411987
aF18.52724599838257
aF20.847250938415527
aF24.327471017837524
aF26.64759612083435
aF28.967488050460815
aF30.12770414352417
aF32.44760298728943
aF34.76770305633545
aF38.247939109802246
aF40.567883014678955
aF42.8878960609436
aF46.36798095703125
aF48.68804311752319
aF51.008172035217285
aF52.16827702522278
aF54.48829102516174
aF56.80825901031494
aF60.288427114486694
aF62.608458042144775
aF64.92851305007935
aF68.40757703781128
aF70.72765302658081
aF74.20783400535583
aF76.52776408195496
aF78.84789609909058
aF82.3280279636383
aF84.64806914329529
aF86.96800494194031
aF90.44834113121033
aF92.76828813552856
aF96.24847197532654
aF98.5684540271759
aF100.8885440826416
aF102.0487310886383
aF104.36868810653687
aF106.68873500823975
aF109.00872015953064
aF112.48883008956909
aF114.80791902542114
aF118.28797912597656
aF120.60803699493408
aF122.92820596694946
aF124.08828711509705
aF126.40830206871033
aF128.72828602790833
aF154.2490999698639
aF156.56913995742798
aF158.88911414146423
aF160.04936814308167
aF162.36933493614197
aF164.68932795524597
aF167.00842809677124
aF168.1686191558838
aF170.48854398727417
aF172.80856609344482
aF176.28876113891602
aF178.60872507095337
aF180.92883610725403
aF182.08900213241577
aF184.4089469909668
aF186.72899508476257
aF190.2094099521637
aF192.52918815612793
aF194.8490171432495
aF198.3292829990387
aF200.64939713478088
aF202.9694480895996
aF204.1296501159668
aF206.4495620727539
aF208.76971197128296
aF212.24971294403076
aF214.5698230266571
aF216.88985204696655
aF220.36897206306458
aF222.6889729499817
aF226.16919493675232
aF228.48915910720825
aF230.8092701435089
aF234.2892050743103
aF236.60942816734314
aF238.9294731616974
aF242.40948104858398
aF244.72970008850098
aF248.20985507965088
aF250.5298409461975
aF252.8499240875244
aF256.3300311565399
aF258.6500470638275
aF260.9700951576233
aF264.45022416114807
aF266.770231962204
aF270.2491509914398
aF272.5694389343262
aF274.88944697380066
aF276.0496780872345
aF278.3696141242981
aF280.68966913223267
aF283.00974893569946
aF306.2104649543762
aF308.5304870605469
aF310.8504230976105
aF314.3306450843811
aF316.650710105896
aF318.9697811603546
aF320.1298680305481
aF322.44984793663025
aF324.76991605758667
aF328.2500240802765
aF330.5700969696045
aF332.8901879787445
aF334.0503520965576
aF336.3703291416168
aF338.6903121471405
aF341.0104269981384
aF342.1704490184784
aF344.490296125412
aF346.81048798561096
aF350.2906529903412
aF352.61070704460144
aF354.93080615997314
aF356.09095311164856
aF358.41087102890015
aF360.7310161590576
aF364.21110796928406
aF366.5311450958252
aF368.8511641025543
aF372.33029103279114
aF374.6502161026001
aF376.97038412094116
aF378.1306540966034
aF380.4505479335785
aF382.770565032959
aF386.25061202049255
aF388.57180094718933
aF390.8908700942993
aF394.37104511260986
aF396.69101905822754
aF399.0109951496124
aF400.17118406295776
aF402.4911880493164
aF404.8112349510193
aF408.291218996048
aF410.61139702796936
aF412.93148612976074
aF416.41156005859375
aF418.73158502578735
aF422.210736989975
aF424.5307619571686
aF426.85073614120483
aF428.0107271671295
aF430.33096194267273
aF432.6510851383209
aF434.9710941314697
asS'ExpVersion'
p256
F0.1
sS'completed'
p257
I0
sS'stim_dur'
p258
F1.0
sS'quit_key'
p259
S'q'
p260
sS'onsetfile'
p261
g246
sS'discard_time_to_wait'
p262
F0.0
sS'response'
p263
(dp264
sS'trialdata'
p265
(dp266
I0
(dp267
g8
F0.41330599784851074
sS'stim'
p268
S'./stimfiles/chinese_characters/26515.jpg'
p269
sS'onset'
p270
F2.0
sS'stim_type'
p271
S'chinese_characters'
p272
sS'block'
p273
I0
sS'nback'
p274
I1
sS'duration'
p275
F1.0
sg263
S'1'
p276
sS'match'
p277
I0
sS'actual_onset_time'
p278
F2.016447067260742
ssI1
(dp279
g8
F0.5566210746765137
sg268
S'./stimfiles/chinese_characters/26515.jpg'
p280
sg270
F4.0
sg271
g272
sg273
I0
sg274
I1
sg275
F1.0
sg263
S'4'
p281
sg277
I1
sg278
F4.017276048660278
ssI2
(dp282
g8
F0.5387158393859863
sg268
S'./stimfiles/chinese_characters/20626.jpg'
p283
sg270
F6.0
sg271
g272
sg273
I0
sg274
I1
sg275
F1.0
sg263
g276
sg277
I0
sg278
F6.018118143081665
ssI3
(dp284
g8
F0.6648850440979004
sg268
S'./stimfiles/chinese_characters/20626.jpg'
p285
sg270
F8.0
sg271
g272
sg273
I0
sg274
I1
sg275
F1.0
sg263
g281
sg277
I1
sg278
F8.018938064575195
ssI4
(dp286
g8
F0.9482810497283936
sg268
S'./stimfiles/chinese_characters/25790.jpg'
p287
sg270
F10.0
sg271
g272
sg273
I0
sg274
I1
sg275
F1.0
sg263
g276
sg277
I0
sg278
F10.019699096679688
ssI5
(dp288
g8
F0.6814939975738525
sg268
S'./stimfiles/chinese_characters/25066.jpg'
p289
sg270
F12.0
sg271
g272
sg273
I0
sg274
I1
sg275
F1.0
sg263
g276
sg277
I0
sg278
F12.020534038543701
ssI6
(dp290
g8
F0.6107778549194336
sg268
S'./stimfiles/chinese_characters/26205.jpg'
p291
sg270
F14.0
sg271
g272
sg273
I0
sg274
I1
sg275
F1.0
sg263
g276
sg277
I0
sg278
F14.021396160125732
ssI7
(dp292
g8
F0.4418060779571533
sg268
S'./stimfiles/chinese_characters/31643.jpg'
p293
sg270
F16.0
sg271
g272
sg273
I0
sg274
I1
sg275
F1.0
sg263
g276
sg277
I0
sg278
F16.022243976593018
ssI8
(dp294
g8
F0.5881900787353516
sg268
S'./stimfiles/chinese_characters/25066.jpg'
p295
sg270
F18.0
sg271
g272
sg273
I0
sg274
I1
sg275
F1.0
sg263
g276
sg277
I3
sg278
F18.02302098274231
ssI9
(dp296
g8
F0.7053308486938477
sg268
S'./stimfiles/chinese_characters/25121.jpg'
p297
sg270
F20.0
sg271
g272
sg273
I0
sg274
I1
sg275
F1.0
sg263
g276
sg277
I0
sg278
F20.023800134658813
ssI10
(dp298
g8
F0.3655672073364258
sg268
S'./stimfiles/faces/cropped_510.png'
p299
sg270
F24.0
sg271
S'faces'
p300
sg273
I1
sg274
I1
sg275
F1.0
sg263
g276
sg277
I0
sg278
F24.008868932724
ssI11
(dp301
g8
F0.7057719230651855
sg268
S'./stimfiles/faces/cropped_s18_14.png'
p302
sg270
F26.0
sg271
g300
sg273
I1
sg274
I1
sg275
F1.0
sg263
g276
sg277
I0
sg278
F26.009685039520264
ssI12
(dp303
g8
F0.8480150699615479
sg268
S'./stimfiles/faces/cropped_f4v1e1.png'
p304
sg270
F28.0
sg271
g300
sg273
I1
sg274
I1
sg275
F1.0
sg263
g276
sg277
I0
sg278
F28.01044201850891
ssI13
(dp305
g8
F0.8042318820953369
sg268
S'./stimfiles/faces/cropped_407.png'
p306
sg270
F30.0
sg271
g300
sg273
I1
sg274
I1
sg275
F1.0
sg263
g276
sg277
I0
sg278
F30.01133108139038
ssI14
(dp307
g8
F0.8264272212982178
sg268
S'./stimfiles/faces/cropped_322.png'
p308
sg270
F32.0
sg271
g300
sg273
I1
sg274
I1
sg275
F1.0
sg263
g276
sg277
I0
sg278
F32.01211094856262
ssI15
(dp309
g8
F0.6348590850830078
sg268
S'./stimfiles/faces/cropped_51MVC-003F.png'
p310
sg270
F34.0
sg271
g300
sg273
I1
sg274
I1
sg275
F1.0
sg263
g276
sg277
I0
sg278
F34.01291298866272
ssI16
(dp311
g8
F0.5989420413970947
sg268
S'./stimfiles/faces/cropped_f8v1e1.png'
p312
sg270
F36.0
sg271
g300
sg273
I1
sg274
I1
sg275
F1.0
sg263
g276
sg277
I0
sg278
F36.013777017593384
ssI17
(dp313
g8
F0.6752238273620605
sg268
S'./stimfiles/faces/cropped_148.png'
p314
sg270
F38.0
sg271
g300
sg273
I1
sg274
I1
sg275
F1.0
sg263
g276
sg277
I0
sg278
F38.014567136764526
ssI18
(dp315
g268
S'./stimfiles/faces/cropped_f8v1e1.png'
p316
sg270
F40.0
sg271
g300
sg273
I1
sg274
I1
sg275
F1.0
sg277
I2
sg278
F40.015345096588135
ssI19
(dp317
g8
F0.5355660915374756
sg268
S'./stimfiles/faces/cropped_105.png'
p318
sg270
F42.0
sg271
g300
sg273
I1
sg274
I1
sg275
F1.0
sg263
g276
sg277
I0
sg278
F42.01629996299744
ssI20
(dp319
g8
F0.5051131248474121
sg268
S'./stimfiles/chinese_characters/25950.jpg'
p320
sg270
F46.0
sg271
g272
sg273
I2
sg274
I2
sg275
F1.0
sg263
g276
sg277
I0
sg278
F46.01785898208618
ssI21
(dp321
g8
F0.5974950790405273
sg268
S'./stimfiles/chinese_characters/25202.jpg'
p322
sg270
F48.0
sg271
g272
sg273
I2
sg274
I2
sg275
F1.0
sg263
g276
sg277
I0
sg278
F48.01867699623108
ssI22
(dp323
g8
F0.5786490440368652
sg268
S'./stimfiles/chinese_characters/25852.jpg'
p324
sg270
F50.0
sg271
g272
sg273
I2
sg274
I2
sg275
F1.0
sg263
g276
sg277
I0
sg278
F50.01946496963501
ssI23
(dp325
g8
F0.6667349338531494
sg268
S'./stimfiles/chinese_characters/25852.jpg'
p326
sg270
F52.0
sg271
g272
sg273
I2
sg274
I2
sg275
F1.0
sg263
g276
sg277
I1
sg278
F52.02032709121704
ssI24
(dp327
g8
F0.6520578861236572
sg268
S'./stimfiles/chinese_characters/25202.jpg'
p328
sg270
F54.0
sg271
g272
sg273
I2
sg274
I2
sg275
F1.0
sg263
g276
sg277
I3
sg278
F54.02110505104065
ssI25
(dp329
g8
F0.5254268646240234
sg268
S'./stimfiles/chinese_characters/25852.jpg'
p330
sg270
F56.0
sg271
g272
sg273
I2
sg274
I2
sg275
F1.0
sg263
g281
sg277
I2
sg278
F56.02194309234619
ssI26
(dp331
g8
F0.6295280456542969
sg268
S'./stimfiles/chinese_characters/26888.jpg'
p332
sg270
F58.0
sg271
g272
sg273
I2
sg274
I2
sg275
F1.0
sg263
g276
sg277
I0
sg278
F58.022814989089966
ssI27
(dp333
g8
F0.6618640422821045
sg268
S'./stimfiles/chinese_characters/28692.jpg'
p334
sg270
F60.0
sg271
g272
sg273
I2
sg274
I2
sg275
F1.0
sg263
g276
sg277
I0
sg278
F60.02354598045349
ssI28
(dp335
g8
F0.6771018505096436
sg268
S'./stimfiles/chinese_characters/25852.jpg'
p336
sg270
F62.0
sg271
g272
sg273
I2
sg274
I2
sg275
F1.0
sg263
g276
sg277
I3
sg278
F62.02437210083008
ssI29
(dp337
g8
F0.5752930641174316
sg268
S'./stimfiles/chinese_characters/26554.jpg'
p338
sg270
F64.0
sg271
g272
sg273
I2
sg274
I2
sg275
F1.0
sg263
g276
sg277
I0
sg278
F64.02525210380554
ssI30
(dp339
g8
F0.5482809543609619
sg268
S'./stimfiles/scenes/316.jpg'
p340
sg270
F68.0
sg271
S'scenes'
p341
sg273
I3
sg274
I1
sg275
F1.0
sg263
g276
sg277
I0
sg278
F68.01027798652649
ssI31
(dp342
g8
F0.5914530754089355
sg268
S'./stimfiles/scenes/581.jpg'
p343
sg270
F70.0
sg271
g341
sg273
I3
sg274
I1
sg275
F1.0
sg263
g276
sg277
I0
sg278
F70.01104497909546
ssI32
(dp344
g8
F0.5008280277252197
sg268
S'./stimfiles/scenes/581.jpg'
p345
sg270
F72.0
sg271
g341
sg273
I3
sg274
I1
sg275
F1.0
sg263
g281
sg277
I1
sg278
F72.01185202598572
ssI33
(dp346
g8
F0.4340038299560547
sg268
S'./stimfiles/scenes/316.jpg'
p347
sg270
F74.0
sg271
g341
sg273
I3
sg274
I1
sg275
F1.0
sg263
g276
sg277
I3
sg278
F74.01268815994263
ssI34
(dp348
g8
F0.6393749713897705
sg268
S'./stimfiles/scenes/316.jpg'
p349
sg270
F76.0
sg271
g341
sg273
I3
sg274
I1
sg275
F1.0
sg263
g281
sg277
I1
sg278
F76.01350212097168
ssI35
(dp350
g8
F0.5645818710327148
sg268
S'./stimfiles/scenes/316.jpg'
p351
sg270
F78.0
sg271
g341
sg273
I3
sg274
I1
sg275
F1.0
sg263
g281
sg277
I1
sg278
F78.01432514190674
ssI36
(dp352
g8
F0.5647389888763428
sg268
S'./stimfiles/scenes/331.jpg'
p353
sg270
F80.0
sg271
g341
sg273
I3
sg274
I1
sg275
F1.0
sg263
g276
sg277
I0
sg278
F80.01515007019043
ssI37
(dp354
g8
F0.5850830078125
sg268
S'./stimfiles/scenes/316.jpg'
p355
sg270
F82.0
sg271
g341
sg273
I3
sg274
I1
sg275
F1.0
sg263
g276
sg277
I3
sg278
F82.015939950943
ssI38
(dp356
g8
F0.5293831825256348
sg268
S'./stimfiles/scenes/1264.jpg'
p357
sg270
F84.0
sg271
g341
sg273
I3
sg274
I1
sg275
F1.0
sg263
g276
sg277
I0
sg278
F84.01672196388245
ssI39
(dp358
g8
F0.7496519088745117
sg268
S'./stimfiles/scenes/316.jpg'
p359
sg270
F86.0
sg271
g341
sg273
I3
sg274
I1
sg275
F1.0
sg263
g276
sg277
I2
sg278
F86.01763105392456
ssI40
(dp360
g8
F0.46898603439331055
sg268
S'./stimfiles/faces/cropped_138.png'
p361
sg270
F90.0
sg271
g300
sg273
I4
sg274
I2
sg275
F1.0
sg263
g276
sg277
I0
sg278
F90.01924705505371
ssI41
(dp362
g8
F0.5421760082244873
sg268
S'./stimfiles/faces/cropped_m-016-01.png'
p363
sg270
F92.0
sg271
g300
sg273
I4
sg274
I2
sg275
F1.0
sg263
g276
sg277
I0
sg278
F92.01999497413635
ssI42
(dp364
g8
F0.5994899272918701
sg268
S'./stimfiles/faces/cropped_i248ua-fn.png'
p365
sg270
F94.0
sg271
g300
sg273
I4
sg274
I2
sg275
F1.0
sg263
g276
sg277
I0
sg278
F94.02087211608887
ssI43
(dp366
g8
F0.823646068572998
sg268
S'./stimfiles/faces/cropped_m-072-01.png'
p367
sg270
F96.0
sg271
g300
sg273
I4
sg274
I2
sg275
F1.0
sg263
g276
sg277
I0
sg278
F96.02171301841736
ssI44
(dp368
g8
F0.7538771629333496
sg268
S'./stimfiles/faces/cropped_m-072-01.png'
p369
sg270
F98.0
sg271
g300
sg273
I4
sg274
I2
sg275
F1.0
sg263
g276
sg277
I1
sg278
F98.02254796028137
ssI45
(dp370
g8
F0.615149974822998
sg268
S'./stimfiles/faces/cropped_336.png'
p371
sg270
F100.0
sg271
g300
sg273
I4
sg274
I2
sg275
F1.0
sg263
g276
sg277
I0
sg278
F100.02339100837708
ssI46
(dp372
g8
F0.6444101333618164
sg268
S'./stimfiles/faces/cropped_81a.png'
p373
sg270
F102.0
sg271
g300
sg273
I4
sg274
I2
sg275
F1.0
sg263
g276
sg277
I0
sg278
F102.02409601211548
ssI47
(dp374
g8
F0.6426308155059814
sg268
S'./stimfiles/faces/cropped_336.png'
p375
sg270
F104.0
sg271
g300
sg273
I4
sg274
I2
sg275
F1.0
sg263
g281
sg277
I2
sg278
F104.02502512931824
ssI48
(dp376
g8
F0.9867961406707764
sg268
S'./stimfiles/faces/cropped_81a.png'
p377
sg270
F106.0
sg271
g300
sg273
I4
sg274
I2
sg275
F1.0
sg263
g276
sg277
I2
sg278
F106.0258469581604
ssI49
(dp378
g8
F0.6928489208221436
sg268
S'./stimfiles/faces/cropped_m1-032-01.png'
p379
sg270
F108.0
sg271
g300
sg273
I4
sg274
I2
sg275
F1.0
sg263
g276
sg277
I0
sg278
F108.00995516777039
ssI50
(dp380
g8
F0.5762782096862793
sg268
S'./stimfiles/scenes/1340.jpg'
p381
sg270
F112.0
sg271
g341
sg273
I5
sg274
I2
sg275
F1.0
sg263
g276
sg277
I0
sg278
F112.01158094406128
ssI51
(dp382
g8
F0.5805590152740479
sg268
S'./stimfiles/scenes/190.jpg'
p383
sg270
F114.0
sg271
g341
sg273
I5
sg274
I2
sg275
F1.0
sg263
g276
sg277
I0
sg278
F114.0124180316925
ssI52
(dp384
g8
F0.6019730567932129
sg268
S'./stimfiles/scenes/190.jpg'
p385
sg270
F116.0
sg271
g341
sg273
I5
sg274
I2
sg275
F1.0
sg263
g281
sg277
I1
sg278
F116.01322102546692
ssI53
(dp386
g8
F0.6779367923736572
sg268
S'./stimfiles/scenes/1340.jpg'
p387
sg270
F118.0
sg271
g341
sg273
I5
sg274
I2
sg275
F1.0
sg263
g276
sg277
I3
sg278
F118.01408815383911
ssI54
(dp388
g8
F0.633213996887207
sg268
S'./stimfiles/scenes/290.jpg'
p389
sg270
F120.0
sg271
g341
sg273
I5
sg274
I2
sg275
F1.0
sg263
g276
sg277
I0
sg278
F120.0148651599884
ssI55
(dp390
g8
F0.554516077041626
sg268
S'./stimfiles/scenes/1340.jpg'
p391
sg270
F122.0
sg271
g341
sg273
I5
sg274
I2
sg275
F1.0
sg263
g281
sg277
I2
sg278
F122.01566195487976
ssI56
(dp392
g8
F0.6556439399719238
sg268
S'./stimfiles/scenes/290.jpg'
p393
sg270
F124.0
sg271
g341
sg273
I5
sg274
I2
sg275
F1.0
sg263
g281
sg277
I2
sg278
F124.01650500297546
ssI57
(dp394
g8
F0.5179898738861084
sg268
S'./stimfiles/scenes/582.jpg'
p395
sg270
F126.0
sg271
g341
sg273
I5
sg274
I2
sg275
F1.0
sg263
g276
sg277
I0
sg278
F126.01729416847229
ssI58
(dp396
g8
F0.5262320041656494
sg268
S'./stimfiles/scenes/776.jpg'
p397
sg270
F128.0
sg271
g341
sg273
I5
sg274
I2
sg275
F1.0
sg263
g276
sg277
I0
sg278
F128.01813411712646
ssI59
(dp398
g8
F0.6574289798736572
sg268
S'./stimfiles/scenes/582.jpg'
p399
sg270
F130.0
sg271
g341
sg273
I5
sg274
I2
sg275
F1.0
sg263
g281
sg277
I2
sg278
F130.01899313926697
ssI60
(dp400
g8
F0.5532059669494629
sg268
S'./stimfiles/chinese_characters/25323.jpg'
p401
sg270
F154.0
sg271
g272
sg273
I6
sg274
I1
sg275
F1.0
sg263
g276
sg277
I0
sg278
F154.02889704704285
ssI61
(dp402
g8
F0.5311160087585449
sg268
S'./stimfiles/chinese_characters/30206.jpg'
p403
sg270
F156.0
sg271
g272
sg273
I6
sg274
I1
sg275
F1.0
sg263
g276
sg277
I0
sg278
F156.01301908493042
ssI62
(dp404
g8
F0.5313699245452881
sg268
S'./stimfiles/chinese_characters/30206.jpg'
p405
sg270
F158.0
sg271
g272
sg273
I6
sg274
I1
sg275
F1.0
sg263
g281
sg277
I1
sg278
F158.01377606391907
ssI63
(dp406
g8
F0.49866485595703125
sg268
S'./stimfiles/chinese_characters/30206.jpg'
p407
sg270
F160.0
sg271
g272
sg273
I6
sg274
I1
sg275
F1.0
sg263
g281
sg277
I1
sg278
F160.01461911201477
ssI64
(dp408
g8
F0.4837760925292969
sg268
S'./stimfiles/chinese_characters/25026.jpg'
p409
sg270
F162.0
sg271
g272
sg273
I6
sg274
I1
sg275
F1.0
sg263
g276
sg277
I0
sg278
F162.0154709815979
ssI65
(dp410
g8
F0.655128002166748
sg268
S'./stimfiles/chinese_characters/25888.jpg'
p411
sg270
F164.0
sg271
g272
sg273
I6
sg274
I1
sg275
F1.0
sg263
g276
sg277
I0
sg278
F164.01624298095703
ssI66
(dp412
g8
F0.7403640747070312
sg268
S'./stimfiles/chinese_characters/25026.jpg'
p413
sg270
F166.0
sg271
g272
sg273
I6
sg274
I1
sg275
F1.0
sg263
g276
sg277
I2
sg278
F166.01707100868225
ssI67
(dp414
g8
F0.5254080295562744
sg268
S'./stimfiles/chinese_characters/35417.jpg'
p415
sg270
F168.0
sg271
g272
sg273
I6
sg274
I1
sg275
F1.0
sg263
g276
sg277
I0
sg278
F168.01804494857788
ssI68
(dp416
g8
F0.5528390407562256
sg268
S'./stimfiles/chinese_characters/30242.jpg'
p417
sg270
F170.0
sg271
g272
sg273
I6
sg274
I1
sg275
F1.0
sg263
g276
sg277
I0
sg278
F170.01869297027588
ssI69
(dp418
g8
F0.7100579738616943
sg268
S'./stimfiles/chinese_characters/30242.jpg'
p419
sg270
F172.0
sg271
g272
sg273
I6
sg274
I1
sg275
F1.0
sg263
g281
sg277
I1
sg278
F172.01954007148743
ssI70
(dp420
g8
F0.6154260635375977
sg268
S'./stimfiles/faces/cropped_00651015.png'
p421
sg270
F176.0
sg271
g300
sg273
I7
sg274
I1
sg275
F1.0
sg263
g276
sg277
I0
sg278
F176.02126002311707
ssI71
(dp422
g8
F0.5348198413848877
sg268
S'./stimfiles/faces/cropped_474.png'
p423
sg270
F178.0
sg271
g300
sg273
I7
sg274
I1
sg275
F1.0
sg263
g276
sg277
I0
sg278
F178.021968126297
ssI72
(dp424
g8
F0.6610190868377686
sg268
S'./stimfiles/faces/cropped_895.png'
p425
sg270
F180.0
sg271
g300
sg273
I7
sg274
I1
sg275
F1.0
sg263
g276
sg277
I0
sg278
F180.02286100387573
ssI73
(dp426
g8
F0.6000568866729736
sg268
S'./stimfiles/faces/cropped_895.png'
p427
sg270
F182.0
sg271
g300
sg273
I7
sg274
I1
sg275
F1.0
sg263
g276
sg277
I1
sg278
F182.02372312545776
ssI74
(dp428
g8
F0.5994901657104492
sg268
S'./stimfiles/faces/cropped_474.png'
p429
sg270
F184.0
sg271
g300
sg273
I7
sg274
I1
sg275
F1.0
sg263
g276
sg277
I3
sg278
F184.0244369506836
ssI75
(dp430
g8
F0.8737320899963379
sg268
S'./stimfiles/faces/cropped_895.png'
p431
sg270
F186.0
sg271
g300
sg273
I7
sg274
I1
sg275
F1.0
sg263
g276
sg277
I3
sg278
F186.02527403831482
ssI76
(dp432
g8
F0.6119091510772705
sg268
S'./stimfiles/faces/cropped_895.png'
p433
sg270
F188.0
sg271
g300
sg273
I7
sg274
I1
sg275
F1.0
sg263
g281
sg277
I3
sg278
F188.02613401412964
ssI77
(dp434
g8
F0.5877630710601807
sg268
S'./stimfiles/faces/cropped_895.png'
p435
sg270
F190.0
sg271
g300
sg273
I7
sg274
I1
sg275
F1.0
sg263
g281
sg277
I2
sg278
F190.010272026062
ssI78
(dp436
g8
F0.5600900650024414
sg268
S'./stimfiles/faces/cropped_895.png'
p437
sg270
F192.0
sg271
g300
sg273
I7
sg274
I1
sg275
F1.0
sg263
g281
sg277
I1
sg278
F192.0110960006714
ssI79
(dp438
g8
F0.5682651996612549
sg268
S'./stimfiles/faces/cropped_895.png'
p439
sg270
F194.0
sg271
g300
sg273
I7
sg274
I1
sg275
F1.0
sg263
g281
sg277
I1
sg278
F194.0118589401245
ssI80
(dp440
g8
F0.6896710395812988
sg268
S'./stimfiles/chinese_characters/20666.jpg'
p441
sg270
F198.0
sg271
g272
sg273
I8
sg274
I2
sg275
F1.0
sg263
g276
sg277
I0
sg278
F198.01358604431152
ssI81
(dp442
g8
F0.8838920593261719
sg268
S'./stimfiles/chinese_characters/25863.jpg'
p443
sg270
F200.0
sg271
g272
sg273
I8
sg274
I2
sg275
F1.0
sg263
g276
sg277
I0
sg278
F200.01440596580505
ssI82
(dp444
g8
F0.8030939102172852
sg268
S'./stimfiles/chinese_characters/24669.jpg'
p445
sg270
F202.0
sg271
g272
sg273
I8
sg274
I2
sg275
F1.0
sg263
g276
sg277
I0
sg278
F202.01524806022644
ssI83
(dp446
g8
F0.9924840927124023
sg268
S'./stimfiles/chinese_characters/24669.jpg'
p447
sg270
F204.0
sg271
g272
sg273
I8
sg274
I2
sg275
F1.0
sg263
g276
sg277
I1
sg278
F204.01603293418884
ssI84
(dp448
g8
F0.822882890701294
sg268
S'./stimfiles/chinese_characters/27450.jpg'
p449
sg270
F206.0
sg271
g272
sg273
I8
sg274
I2
sg275
F1.0
sg263
g276
sg277
I0
sg278
F206.01685309410095
ssI85
(dp450
g8
F0.5058112144470215
sg268
S'./stimfiles/chinese_characters/24669.jpg'
p451
sg270
F208.0
sg271
g272
sg273
I8
sg274
I2
sg275
F1.0
sg263
g281
sg277
I2
sg278
F208.01772093772888
ssI86
(dp452
g8
F0.6161861419677734
sg268
S'./stimfiles/chinese_characters/25520.jpg'
p453
sg270
F210.0
sg271
g272
sg273
I8
sg274
I2
sg275
F1.0
sg263
g276
sg277
I0
sg278
F210.01850199699402
ssI87
(dp454
g8
F0.9974849224090576
sg268
S'./stimfiles/chinese_characters/27493.jpg'
p455
sg270
F212.0
sg271
g272
sg273
I8
sg274
I2
sg275
F1.0
sg263
g276
sg277
I0
sg278
F212.01926612854004
ssI88
(dp456
g8
F0.7276580333709717
sg268
S'./stimfiles/chinese_characters/24669.jpg'
p457
sg270
F214.0
sg271
g272
sg273
I8
sg274
I2
sg275
F1.0
sg263
g276
sg277
I3
sg278
F214.02012300491333
ssI89
(dp458
g8
F0.7317070960998535
sg268
S'./stimfiles/chinese_characters/24669.jpg'
p459
sg270
F216.0
sg271
g272
sg273
I8
sg274
I2
sg275
F1.0
sg263
g276
sg277
I1
sg278
F216.02103996276855
ssI90
(dp460
g8
F0.5373280048370361
sg268
S'./stimfiles/scenes/212.jpg'
p461
sg270
F220.0
sg271
g341
sg273
I9
sg274
I1
sg275
F1.0
sg263
g276
sg277
I0
sg278
F220.02261304855347
ssI91
(dp462
g8
F0.5832810401916504
sg268
S'./stimfiles/scenes/212.jpg'
p463
sg270
F222.0
sg271
g341
sg273
I9
sg274
I1
sg275
F1.0
sg263
g281
sg277
I1
sg278
F222.00674104690552
ssI92
(dp464
g8
F0.6035199165344238
sg268
S'./stimfiles/scenes/1242.jpg'
p465
sg270
F224.0
sg271
g341
sg273
I9
sg274
I1
sg275
F1.0
sg263
g276
sg277
I0
sg278
F224.00756311416626
ssI93
(dp466
g8
F0.6357359886169434
sg268
S'./stimfiles/scenes/1414.jpg'
p467
sg270
F226.0
sg271
g341
sg273
I9
sg274
I1
sg275
F1.0
sg263
g276
sg277
I0
sg278
F226.00839805603027
ssI94
(dp468
g8
F0.6679589748382568
sg268
S'./stimfiles/scenes/1414.jpg'
p469
sg270
F228.0
sg271
g341
sg273
I9
sg274
I1
sg275
F1.0
sg263
g281
sg277
I1
sg278
F228.00923109054565
ssI95
(dp470
g8
F0.5542769432067871
sg268
S'./stimfiles/scenes/1071.jpg'
p471
sg270
F230.0
sg271
g341
sg273
I9
sg274
I1
sg275
F1.0
sg263
g276
sg277
I0
sg278
F230.00998401641846
ssI96
(dp472
g8
F0.6214470863342285
sg268
S'./stimfiles/scenes/259.jpg'
p473
sg270
F232.0
sg271
g341
sg273
I9
sg274
I1
sg275
F1.0
sg263
g276
sg277
I0
sg278
F232.0108380317688
ssI97
(dp474
g8
F0.81768798828125
sg268
S'./stimfiles/scenes/109.jpg'
p475
sg270
F234.0
sg271
g341
sg273
I9
sg274
I1
sg275
F1.0
sg263
g281
sg277
I0
sg278
F234.01163911819458
ssI98
(dp476
g8
F0.5649340152740479
sg268
S'./stimfiles/scenes/3053.jpg'
p477
sg270
F236.0
sg271
g341
sg273
I9
sg274
I1
sg275
F1.0
sg263
g276
sg277
I0
sg278
F236.01251101493835
ssI99
(dp478
g8
F0.7011590003967285
sg268
S'./stimfiles/scenes/109.jpg'
p479
sg270
F238.0
sg271
g341
sg273
I9
sg274
I1
sg275
F1.0
sg263
g281
sg277
I2
sg278
F238.01334404945374
ssI100
(dp480
g8
F0.5936150550842285
sg268
S'./stimfiles/faces/cropped_40.png'
p481
sg270
F242.0
sg271
g300
sg273
I10
sg274
I2
sg275
F1.0
sg263
g276
sg277
I0
sg278
F242.01493310928345
ssI101
(dp482
g8
F0.7929248809814453
sg268
S'./stimfiles/faces/cropped_877.png'
p483
sg270
F244.0
sg271
g300
sg273
I10
sg274
I2
sg275
F1.0
sg263
g276
sg277
I0
sg278
F244.0157470703125
ssI102
(dp484
g8
F0.9372150897979736
sg268
S'./stimfiles/faces/cropped_00511015.png'
p485
sg270
F246.0
sg271
g300
sg273
I10
sg274
I2
sg275
F1.0
sg263
g276
sg277
I0
sg278
F246.01659107208252
ssI103
(dp486
g8
F0.5303878784179688
sg268
S'./stimfiles/faces/cropped_877.png'
p487
sg270
F248.0
sg271
g300
sg273
I10
sg274
I2
sg275
F1.0
sg263
g281
sg277
I2
sg278
F248.01737713813782
ssI104
(dp488
g8
F0.7425789833068848
sg268
S'./stimfiles/faces/cropped_625.png'
p489
sg270
F250.0
sg271
g300
sg273
I10
sg274
I2
sg275
F1.0
sg263
g276
sg277
I0
sg278
F250.01820516586304
ssI105
(dp490
g8
F0.9168250560760498
sg268
S'./stimfiles/faces/cropped_00511015.png'
p491
sg270
F252.0
sg271
g300
sg273
I10
sg274
I2
sg275
F1.0
sg263
g276
sg277
I3
sg278
F252.0190770626068
ssI106
(dp492
g8
F0.9029839038848877
sg268
S'./stimfiles/faces/cropped_00511015.png'
p493
sg270
F254.0
sg271
g300
sg273
I10
sg274
I2
sg275
F1.0
sg263
g276
sg277
I1
sg278
F254.01994705200195
ssI107
(dp494
g8
F0.7222740650177002
sg268
S'./stimfiles/faces/cropped_103.png'
p495
sg270
F256.0
sg271
g300
sg273
I10
sg274
I2
sg275
F1.0
sg263
g276
sg277
I0
sg278
F256.02072310447693
ssI108
(dp496
g8
F0.5216019153594971
sg268
S'./stimfiles/faces/cropped_00511015.png'
p497
sg270
F258.0
sg271
g300
sg273
I10
sg274
I2
sg275
F1.0
sg263
g281
sg277
I3
sg278
F258.0215311050415
ssI109
(dp498
g8
F0.6757769584655762
sg268
S'./stimfiles/faces/cropped_729.png'
p499
sg270
F260.0
sg271
g300
sg273
I10
sg274
I2
sg275
F1.0
sg263
g276
sg277
I0
sg278
F260.02235412597656
ssI110
(dp500
g8
F0.5628411769866943
sg268
S'./stimfiles/scenes/282.jpg'
p501
sg270
F264.0
sg271
g341
sg273
I11
sg274
I2
sg275
F1.0
sg263
g276
sg277
I0
sg278
F264.00726294517517
ssI111
(dp502
g8
F0.554081916809082
sg268
S'./stimfiles/scenes/722.jpg'
p503
sg270
F266.0
sg271
g341
sg273
I11
sg274
I2
sg275
F1.0
sg263
g276
sg277
I0
sg278
F266.008180141449
ssI112
(dp504
g8
F0.5664300918579102
sg268
S'./stimfiles/scenes/1018.jpg'
p505
sg270
F268.0
sg271
g341
sg273
I11
sg274
I2
sg275
F1.0
sg263
g276
sg277
I0
sg278
F268.00891304016113
ssI113
(dp506
g8
F0.5355930328369141
sg268
S'./stimfiles/scenes/37.jpg'
p507
sg270
F270.0
sg271
g341
sg273
I11
sg274
I2
sg275
F1.0
sg263
g276
sg277
I0
sg278
F270.0097870826721
ssI114
(dp508
g8
F0.7539000511169434
sg268
S'./stimfiles/scenes/685.jpg'
p509
sg270
F272.0
sg271
g341
sg273
I11
sg274
I2
sg275
F1.0
sg263
g276
sg277
I0
sg278
F272.01055002212524
ssI115
(dp510
g8
F0.8669629096984863
sg268
S'./stimfiles/scenes/1018.jpg'
p511
sg270
F274.0
sg271
g341
sg273
I11
sg274
I2
sg275
F1.0
sg263
g276
sg277
I3
sg278
F274.0114130973816
ssI116
(dp512
g8
F0.5662920475006104
sg268
S'./stimfiles/scenes/685.jpg'
p513
sg270
F276.0
sg271
g341
sg273
I11
sg274
I2
sg275
F1.0
sg263
g281
sg277
I2
sg278
F276.01225996017456
ssI117
(dp514
g8
F0.8475720882415771
sg268
S'./stimfiles/scenes/685.jpg'
p515
sg270
F278.0
sg271
g341
sg273
I11
sg274
I2
sg275
F1.0
sg263
g276
sg277
I1
sg278
F278.0130989551544
ssI118
(dp516
g268
S'./stimfiles/scenes/761.jpg'
p517
sg270
F280.0
sg271
g341
sg273
I11
sg274
I2
sg275
F1.0
sg277
I0
sg278
F280.0139970779419
ssI119
(dp518
g8
F0.5997798442840576
sg268
S'./stimfiles/scenes/685.jpg'
p519
sg270
F282.0
sg271
g341
sg273
I11
sg274
I2
sg275
F1.0
sg263
g281
sg277
I3
sg278
F282.01473116874695
ssI120
(dp520
g8
F0.5098521709442139
sg268
S'./stimfiles/chinese_characters/32011.jpg'
p521
sg270
F306.0
sg271
g272
sg273
I12
sg274
I1
sg275
F1.0
sg263
g276
sg277
I0
sg278
F306.0245339870453
ssI121
(dp522
g8
F0.5201799869537354
sg268
S'./stimfiles/chinese_characters/26610.jpg'
p523
sg270
F308.0
sg271
g272
sg273
I12
sg274
I1
sg275
F1.0
sg263
g276
sg277
I0
sg278
F308.0254011154175
ssI122
(dp524
g8
F0.6052978038787842
sg268
S'./stimfiles/chinese_characters/32011.jpg'
p525
sg270
F310.0
sg271
g272
sg273
I12
sg274
I1
sg275
F1.0
sg263
g276
sg277
I2
sg278
F310.02616715431213
ssI123
(dp526
g8
F0.43120908737182617
sg268
S'./stimfiles/chinese_characters/32011.jpg'
p527
sg270
F312.0
sg271
g272
sg273
I12
sg274
I1
sg275
F1.0
sg263
g281
sg277
I1
sg278
F312.01036500930786
ssI124
(dp528
g8
F0.38933801651000977
sg268
S'./stimfiles/chinese_characters/24816.jpg'
p529
sg270
F314.0
sg271
g272
sg273
I12
sg274
I1
sg275
F1.0
sg263
g276
sg277
I0
sg278
F314.0112199783325
ssI125
(dp530
g8
F0.4917490482330322
sg268
S'./stimfiles/chinese_characters/28701.jpg'
p531
sg270
F316.0
sg271
g272
sg273
I12
sg274
I1
sg275
F1.0
sg263
g276
sg277
I0
sg278
F316.0119459629059
ssI126
(dp532
g8
F0.5888891220092773
sg268
S'./stimfiles/chinese_characters/32011.jpg'
p533
sg270
F318.0
sg271
g272
sg273
I12
sg274
I1
sg275
F1.0
sg263
g276
sg277
I3
sg278
F318.0128710269928
ssI127
(dp534
g8
F0.625046968460083
sg268
S'./stimfiles/chinese_characters/24816.jpg'
p535
sg270
F320.0
sg271
g272
sg273
I12
sg274
I1
sg275
F1.0
sg263
g276
sg277
I3
sg278
F320.0136721134186
ssI128
(dp536
g8
F0.5184459686279297
sg268
S'./stimfiles/chinese_characters/37250.jpg'
p537
sg270
F322.0
sg271
g272
sg273
I12
sg274
I1
sg275
F1.0
sg263
g276
sg277
I0
sg278
F322.01441502571106
ssI129
(dp538
g8
F0.5776588916778564
sg268
S'./stimfiles/chinese_characters/24816.jpg'
p539
sg270
F324.0
sg271
g272
sg273
I12
sg274
I1
sg275
F1.0
sg263
g276
sg277
I2
sg278
F324.0152940750122
ssI130
(dp540
g8
F0.4048631191253662
sg268
S'./stimfiles/faces/cropped_m6n2.png'
p541
sg270
F328.0
sg271
g300
sg273
I13
sg274
I1
sg275
F1.0
sg263
g276
sg277
I0
sg278
F328.0169270038605
ssI131
(dp542
g8
F0.6502170562744141
sg268
S'./stimfiles/faces/cropped_m6n2.png'
p543
sg270
F330.0
sg271
g300
sg273
I13
sg274
I1
sg275
F1.0
sg263
g276
sg277
I1
sg278
F330.01779103279114
ssI132
(dp544
g8
F0.6426210403442383
sg268
S'./stimfiles/faces/cropped_scott1.png'
p545
sg270
F332.0
sg271
g300
sg273
I13
sg274
I1
sg275
F1.0
sg263
g276
sg277
I0
sg278
F332.0185339450836
ssI133
(dp546
g8
F0.6718969345092773
sg268
S'./stimfiles/faces/cropped_401.png'
p547
sg270
F334.0
sg271
g300
sg273
I13
sg274
I1
sg275
F1.0
sg263
g276
sg277
I0
sg278
F334.0193660259247
ssI134
(dp548
g8
F0.5900709629058838
sg268
S'./stimfiles/faces/cropped_401.png'
p549
sg270
F336.0
sg271
g300
sg273
I13
sg274
I1
sg275
F1.0
sg263
g281
sg277
I1
sg278
F336.0201780796051
ssI135
(dp550
g8
F0.5993959903717041
sg268
S'./stimfiles/faces/cropped_206.png'
p551
sg270
F338.0
sg271
g300
sg273
I13
sg274
I1
sg275
F1.0
sg263
g276
sg277
I0
sg278
F338.02100801467896
ssI136
(dp552
g8
F0.7285871505737305
sg268
S'./stimfiles/faces/cropped_401.png'
p553
sg270
F340.0
sg271
g300
sg273
I13
sg274
I1
sg275
F1.0
sg263
g276
sg277
I2
sg278
F340.02183198928833
ssI137
(dp554
g8
F0.7176508903503418
sg268
S'./stimfiles/faces/cropped_m-009-01.png'
p555
sg270
F342.0
sg271
g300
sg273
I13
sg274
I1
sg275
F1.0
sg263
g276
sg277
I0
sg278
F342.02270913124084
ssI138
(dp556
g8
F0.6969740390777588
sg268
S'./stimfiles/faces/cropped_jsheenan1.png'
p557
sg270
F344.0
sg271
g300
sg273
I13
sg274
I1
sg275
F1.0
sg263
g276
sg277
I0
sg278
F344.0234839916229
ssI139
(dp558
g8
F0.5362391471862793
sg268
S'./stimfiles/faces/cropped_jsheenan1.png'
p559
sg270
F346.0
sg271
g300
sg273
I13
sg274
I1
sg275
F1.0
sg263
g281
sg277
I1
sg278
F346.0242760181427
ssI140
(dp560
g8
F0.6335151195526123
sg268
S'./stimfiles/chinese_characters/24677.jpg'
p561
sg270
F350.0
sg271
g272
sg273
I14
sg274
I2
sg275
F1.0
sg263
g276
sg277
I0
sg278
F350.0259790420532
ssI141
(dp562
g8
F0.5059590339660645
sg268
S'./stimfiles/chinese_characters/25738.jpg'
p563
sg270
F352.0
sg271
g272
sg273
I14
sg274
I2
sg275
F1.0
sg263
g276
sg277
I0
sg278
F352.02675199508667
ssI142
(dp564
g8
F0.4491269588470459
sg268
S'./stimfiles/chinese_characters/24677.jpg'
p565
sg270
F354.0
sg271
g272
sg273
I14
sg274
I2
sg275
F1.0
sg263
g281
sg277
I2
sg278
F354.02765703201294
ssI143
(dp566
g8
F0.5761020183563232
sg268
S'./stimfiles/chinese_characters/25988.jpg'
p567
sg270
F356.0
sg271
g272
sg273
I14
sg274
I2
sg275
F1.0
sg263
g276
sg277
I0
sg278
F356.0118041038513
ssI144
(dp568
g8
F0.6932690143585205
sg268
S'./stimfiles/chinese_characters/24677.jpg'
p569
sg270
F358.0
sg271
g272
sg273
I14
sg274
I2
sg275
F1.0
sg263
g281
sg277
I2
sg278
F358.01260900497437
ssI145
(dp570
g8
F0.8865180015563965
sg268
S'./stimfiles/chinese_characters/25988.jpg'
p571
sg270
F360.0
sg271
g272
sg273
I14
sg274
I2
sg275
F1.0
sg263
g276
sg277
I2
sg278
F360.0134129524231
ssI146
(dp572
g8
F0.8427829742431641
sg268
S'./stimfiles/chinese_characters/25584.jpg'
p573
sg270
F362.0
sg271
g272
sg273
I14
sg274
I2
sg275
F1.0
sg263
g276
sg277
I0
sg278
F362.01423597335815
ssI147
(dp574
g8
F0.9550230503082275
sg268
S'./stimfiles/chinese_characters/26484.jpg'
p575
sg270
F364.0
sg271
g272
sg273
I14
sg274
I2
sg275
F1.0
sg263
g276
sg277
I0
sg278
F364.01505303382874
ssI148
(dp576
g8
F0.5872430801391602
sg268
S'./stimfiles/chinese_characters/25584.jpg'
p577
sg270
F366.0
sg271
g272
sg273
I14
sg274
I2
sg275
F1.0
sg263
g281
sg277
I2
sg278
F366.0158500671387
ssI149
(dp578
g8
F0.608422040939331
sg268
S'./stimfiles/chinese_characters/26897.jpg'
p579
sg270
F368.0
sg271
g272
sg273
I14
sg274
I2
sg275
F1.0
sg263
g276
sg277
I0
sg278
F368.0167009830475
ssI150
(dp580
g8
F0.5688989162445068
sg268
S'./stimfiles/scenes/68.jpg'
p581
sg270
F372.0
sg271
g341
sg273
I15
sg274
I1
sg275
F1.0
sg263
g276
sg277
I0
sg278
F372.0183720588684
ssI151
(dp582
g8
F0.584244966506958
sg268
S'./stimfiles/scenes/728.jpg'
p583
sg270
F374.0
sg271
g341
sg273
I15
sg274
I1
sg275
F1.0
sg263
g276
sg277
I0
sg278
F374.0191111564636
ssI152
(dp584
g8
F0.573505163192749
sg268
S'./stimfiles/scenes/886.jpg'
p585
sg270
F376.0
sg271
g341
sg273
I15
sg274
I1
sg275
F1.0
sg263
g276
sg277
I0
sg278
F376.0199279785156
ssI153
(dp586
g8
F0.5796568393707275
sg268
S'./stimfiles/scenes/68.jpg'
p587
sg270
F378.0
sg271
g341
sg273
I15
sg274
I1
sg275
F1.0
sg263
g276
sg277
I3
sg278
F378.02081513404846
ssI154
(dp588
g8
F0.5198390483856201
sg268
S'./stimfiles/scenes/1219.jpg'
p589
sg270
F380.0
sg271
g341
sg273
I15
sg274
I1
sg275
F1.0
sg263
g276
sg277
I0
sg278
F380.02159094810486
ssI155
(dp590
g8
F0.5651900768280029
sg268
S'./stimfiles/scenes/1219.jpg'
p591
sg270
F382.0
sg271
g341
sg273
I15
sg274
I1
sg275
F1.0
sg263
g281
sg277
I1
sg278
F382.0224120616913
ssI156
(dp592
g8
F0.4803040027618408
sg268
S'./stimfiles/scenes/1546.jpg'
p593
sg270
F384.0
sg271
g341
sg273
I15
sg274
I1
sg275
F1.0
sg263
g276
sg277
I0
sg278
F384.02324509620667
ssI157
(dp594
g8
F0.8760280609130859
sg268
S'./stimfiles/scenes/1219.jpg'
p595
sg270
F386.0
sg271
g341
sg273
I15
sg274
I1
sg275
F1.0
sg263
g276
sg277
I2
sg278
F386.0074429512024
ssI158
(dp596
g8
F0.5625638961791992
sg268
S'./stimfiles/scenes/1375.jpg'
p597
sg270
F388.0
sg271
g341
sg273
I15
sg274
I1
sg275
F1.0
sg263
g276
sg277
I0
sg278
F388.00817012786865
ssI159
(dp598
g8
F0.5037050247192383
sg268
S'./stimfiles/scenes/782.jpg'
p599
sg270
F390.0
sg271
g341
sg273
I15
sg274
I1
sg275
F1.0
sg263
g276
sg277
I0
sg278
F390.00909209251404
ssI160
(dp600
g8
F0.6316101551055908
sg268
S'./stimfiles/faces/cropped_1008.png'
p601
sg270
F394.0
sg271
g300
sg273
I16
sg274
I2
sg275
F1.0
sg263
g276
sg277
I0
sg278
F394.0273859500885
ssI161
(dp602
g8
F0.7673900127410889
sg268
S'./stimfiles/faces/cropped_1008.png'
p603
sg270
F396.0
sg271
g300
sg273
I16
sg274
I2
sg275
F1.0
sg263
g276
sg277
I1
sg278
F396.0114710330963
ssI162
(dp604
g8
F0.6226639747619629
sg268
S'./stimfiles/faces/cropped_51.png'
p605
sg270
F398.0
sg271
g300
sg273
I16
sg274
I2
sg275
F1.0
sg263
g276
sg277
I0
sg278
F398.0124161243439
ssI163
(dp606
g8
F0.5459380149841309
sg268
S'./stimfiles/faces/cropped_pkyle1.png'
p607
sg270
F400.0
sg271
g300
sg273
I16
sg274
I2
sg275
F1.0
sg263
g276
sg277
I0
sg278
F400.01313495635986
ssI164
(dp608
g8
F0.7891461849212646
sg268
S'./stimfiles/faces/cropped_51.png'
p609
sg270
F402.0
sg271
g300
sg273
I16
sg274
I2
sg275
F1.0
sg263
g281
sg277
I2
sg278
F402.0139639377594
ssI165
(dp610
g8
F0.61649489402771
sg268
S'./stimfiles/faces/cropped_pkyle1.png'
p611
sg270
F404.0
sg271
g300
sg273
I16
sg274
I2
sg275
F1.0
sg263
g281
sg277
I2
sg278
F404.0147581100464
ssI166
(dp612
g8
F0.6809580326080322
sg268
S'./stimfiles/faces/cropped_mnicholson1.png'
p613
sg270
F406.0
sg271
g300
sg273
I16
sg274
I2
sg275
F1.0
sg263
g276
sg277
I0
sg278
F406.0155670642853
ssI167
(dp614
g8
F0.586859941482544
sg268
S'./stimfiles/faces/cropped_51.png'
p615
sg270
F408.0
sg271
g300
sg273
I16
sg274
I2
sg275
F1.0
sg263
g276
sg277
I3
sg278
F408.01643109321594
ssI168
(dp616
g8
F0.6961569786071777
sg268
S'./stimfiles/faces/cropped_mnicholson1.png'
p617
sg270
F410.0
sg271
g300
sg273
I16
sg274
I2
sg275
F1.0
sg263
g281
sg277
I2
sg278
F410.01724004745483
ssI169
(dp618
g8
F0.7773199081420898
sg268
S'./stimfiles/faces/cropped_278.png'
p619
sg270
F412.0
sg271
g300
sg273
I16
sg274
I2
sg275
F1.0
sg263
g276
sg277
I0
sg278
F412.0180461406708
ssI170
(dp620
g8
F0.6107780933380127
sg268
S'./stimfiles/scenes/298.jpg'
p621
sg270
F416.0
sg271
g341
sg273
I17
sg274
I2
sg275
F1.0
sg263
g276
sg277
I0
sg278
F416.0197539329529
ssI171
(dp622
g8
F0.6181020736694336
sg268
S'./stimfiles/scenes/1046.jpg'
p623
sg270
F418.0
sg271
g341
sg273
I17
sg274
I2
sg275
F1.0
sg263
g276
sg277
I0
sg278
F418.0205099582672
ssI172
(dp624
g8
F0.4412879943847656
sg268
S'./stimfiles/scenes/298.jpg'
p625
sg270
F420.0
sg271
g341
sg273
I17
sg274
I2
sg275
F1.0
sg263
g281
sg277
I2
sg278
F420.02137899398804
ssI173
(dp626
g8
F0.5735840797424316
sg268
S'./stimfiles/scenes/3109.jpg'
p627
sg270
F422.0
sg271
g341
sg273
I17
sg274
I2
sg275
F1.0
sg263
g276
sg277
I0
sg278
F422.02212500572205
ssI174
(dp628
g8
F0.690809965133667
sg268
S'./stimfiles/scenes/116.jpg'
p629
sg270
F424.0
sg271
g341
sg273
I17
sg274
I2
sg275
F1.0
sg263
g276
sg277
I0
sg278
F424.0229661464691
ssI175
(dp630
g8
F0.4606130123138428
sg268
S'./stimfiles/scenes/1466.jpg'
p631
sg270
F426.0
sg271
g341
sg273
I17
sg274
I2
sg275
F1.0
sg263
g276
sg277
I0
sg278
F426.00724506378174
ssI176
(dp632
g8
F0.6088910102844238
sg268
S'./stimfiles/scenes/3096.jpg'
p633
sg270
F428.0
sg271
g341
sg273
I17
sg274
I2
sg275
F1.0
sg263
g276
sg277
I0
sg278
F428.00803399086
ssI177
(dp634
g8
F0.6331908702850342
sg268
S'./stimfiles/scenes/1466.jpg'
p635
sg270
F430.0
sg271
g341
sg273
I17
sg274
I2
sg275
F1.0
sg263
g281
sg277
I2
sg278
F430.00876116752625
ssI178
(dp636
g8
F0.7691621780395508
sg268
S'./stimfiles/scenes/1466.jpg'
p637
sg270
F432.0
sg271
g341
sg273
I17
sg274
I2
sg275
F1.0
sg263
g276
sg277
I1
sg278
F432.00960397720337
ssI179
(dp638
g8
F0.5546150207519531
sg268
S'./stimfiles/scenes/1465.jpg'
p639
sg270
F434.0
sg271
g341
sg273
I17
sg274
I2
sg275
F1.0
sg263
g276
sg277
I0
sg278
F434.0104789733887
sssS'stim_log'
p640
(dp641
sS'nstims'
p642
I5
sS'inter_stim_int'
p643
F1.0
sS'SS'
p644
(dp645
sS'inst_time'
p646
F1.0
sS'broke_on_trial'
p647
(dp648
sS'events'
p649
(lp650
(lp651
F0.0
aI0
aI1
aI0
aS'inst'
p652
aa(lp653
F2.0
aI0
aI1
aI0
ag269
aa(lp654
F4.0
aI0
aI1
aI1
ag280
aa(lp655
F6.0
aI0
aI1
aI0
ag283
aa(lp656
F8.0
aI0
aI1
aI1
ag285
aa(lp657
F10.0
aI0
aI1
aI0
ag287
aa(lp658
F12.0
aI0
aI1
aI0
ag289
aa(lp659
F14.0
aI0
aI1
aI0
ag291
aa(lp660
F16.0
aI0
aI1
aI0
ag293
aa(lp661
F18.0
aI0
aI1
aI3
ag295
aa(lp662
F20.0
aI0
aI1
aI0
ag297
aa(lp663
F22.0
aI1
aI1
aI0
aS'inst'
p664
aa(lp665
F24.0
aI1
aI1
aI0
ag299
aa(lp666
F26.0
aI1
aI1
aI0
ag302
aa(lp667
F28.0
aI1
aI1
aI0
ag304
aa(lp668
F30.0
aI1
aI1
aI0
ag306
aa(lp669
F32.0
aI1
aI1
aI0
ag308
aa(lp670
F34.0
aI1
aI1
aI0
ag310
aa(lp671
F36.0
aI1
aI1
aI0
ag312
aa(lp672
F38.0
aI1
aI1
aI0
ag314
aa(lp673
F40.0
aI1
aI1
aI2
ag316
aa(lp674
F42.0
aI1
aI1
aI0
ag318
aa(lp675
F44.0
aI2
aI2
aI0
aS'inst'
p676
aa(lp677
F46.0
aI2
aI2
aI0
ag320
aa(lp678
F48.0
aI2
aI2
aI0
ag322
aa(lp679
F50.0
aI2
aI2
aI0
ag324
aa(lp680
F52.0
aI2
aI2
aI1
ag326
aa(lp681
F54.0
aI2
aI2
aI3
ag328
aa(lp682
F56.0
aI2
aI2
aI2
ag330
aa(lp683
F58.0
aI2
aI2
aI0
ag332
aa(lp684
F60.0
aI2
aI2
aI0
ag334
aa(lp685
F62.0
aI2
aI2
aI3
ag336
aa(lp686
F64.0
aI2
aI2
aI0
ag338
aa(lp687
F66.0
aI3
aI1
aI0
aS'inst'
p688
aa(lp689
F68.0
aI3
aI1
aI0
ag340
aa(lp690
F70.0
aI3
aI1
aI0
ag343
aa(lp691
F72.0
aI3
aI1
aI1
ag345
aa(lp692
F74.0
aI3
aI1
aI3
ag347
aa(lp693
F76.0
aI3
aI1
aI1
ag349
aa(lp694
F78.0
aI3
aI1
aI1
ag351
aa(lp695
F80.0
aI3
aI1
aI0
ag353
aa(lp696
F82.0
aI3
aI1
aI3
ag355
aa(lp697
F84.0
aI3
aI1
aI0
ag357
aa(lp698
F86.0
aI3
aI1
aI2
ag359
aa(lp699
F88.0
aI4
aI2
aI0
aS'inst'
p700
aa(lp701
F90.0
aI4
aI2
aI0
ag361
aa(lp702
F92.0
aI4
aI2
aI0
ag363
aa(lp703
F94.0
aI4
aI2
aI0
ag365
aa(lp704
F96.0
aI4
aI2
aI0
ag367
aa(lp705
F98.0
aI4
aI2
aI1
ag369
aa(lp706
F100.0
aI4
aI2
aI0
ag371
aa(lp707
F102.0
aI4
aI2
aI0
ag373
aa(lp708
F104.0
aI4
aI2
aI2
ag375
aa(lp709
F106.0
aI4
aI2
aI2
ag377
aa(lp710
F108.0
aI4
aI2
aI0
ag379
aa(lp711
F110.0
aI5
aI2
aI0
aS'inst'
p712
aa(lp713
F112.0
aI5
aI2
aI0
ag381
aa(lp714
F114.0
aI5
aI2
aI0
ag383
aa(lp715
F116.0
aI5
aI2
aI1
ag385
aa(lp716
F118.0
aI5
aI2
aI3
ag387
aa(lp717
F120.0
aI5
aI2
aI0
ag389
aa(lp718
F122.0
aI5
aI2
aI2
ag391
aa(lp719
F124.0
aI5
aI2
aI2
ag393
aa(lp720
F126.0
aI5
aI2
aI0
ag395
aa(lp721
F128.0
aI5
aI2
aI0
ag397
aa(lp722
F130.0
aI5
aI2
aI2
ag399
aa(lp723
F152.0
aI0
aI1
aI0
aS'inst'
p724
aa(lp725
F154.0
aI6
aI1
aI0
ag401
aa(lp726
F156.0
aI6
aI1
aI0
ag403
aa(lp727
F158.0
aI6
aI1
aI1
ag405
aa(lp728
F160.0
aI6
aI1
aI1
ag407
aa(lp729
F162.0
aI6
aI1
aI0
ag409
aa(lp730
F164.0
aI6
aI1
aI0
ag411
aa(lp731
F166.0
aI6
aI1
aI2
ag413
aa(lp732
F168.0
aI6
aI1
aI0
ag415
aa(lp733
F170.0
aI6
aI1
aI0
ag417
aa(lp734
F172.0
aI6
aI1
aI1
ag419
aa(lp735
F174.0
aI1
aI1
aI0
aS'inst'
p736
aa(lp737
F176.0
aI7
aI1
aI0
ag421
aa(lp738
F178.0
aI7
aI1
aI0
ag423
aa(lp739
F180.0
aI7
aI1
aI0
ag425
aa(lp740
F182.0
aI7
aI1
aI1
ag427
aa(lp741
F184.0
aI7
aI1
aI3
ag429
aa(lp742
F186.0
aI7
aI1
aI3
ag431
aa(lp743
F188.0
aI7
aI1
aI3
ag433
aa(lp744
F190.0
aI7
aI1
aI2
ag435
aa(lp745
F192.0
aI7
aI1
aI1
ag437
aa(lp746
F194.0
aI7
aI1
aI1
ag439
aa(lp747
F196.0
aI2
aI2
aI0
aS'inst'
p748
aa(lp749
F198.0
aI8
aI2
aI0
ag441
aa(lp750
F200.0
aI8
aI2
aI0
ag443
aa(lp751
F202.0
aI8
aI2
aI0
ag445
aa(lp752
F204.0
aI8
aI2
aI1
ag447
aa(lp753
F206.0
aI8
aI2
aI0
ag449
aa(lp754
F208.0
aI8
aI2
aI2
ag451
aa(lp755
F210.0
aI8
aI2
aI0
ag453
aa(lp756
F212.0
aI8
aI2
aI0
ag455
aa(lp757
F214.0
aI8
aI2
aI3
ag457
aa(lp758
F216.0
aI8
aI2
aI1
ag459
aa(lp759
F218.0
aI3
aI1
aI0
aS'inst'
p760
aa(lp761
F220.0
aI9
aI1
aI0
ag461
aa(lp762
F222.0
aI9
aI1
aI1
ag463
aa(lp763
F224.0
aI9
aI1
aI0
ag465
aa(lp764
F226.0
aI9
aI1
aI0
ag467
aa(lp765
F228.0
aI9
aI1
aI1
ag469
aa(lp766
F230.0
aI9
aI1
aI0
ag471
aa(lp767
F232.0
aI9
aI1
aI0
ag473
aa(lp768
F234.0
aI9
aI1
aI0
ag475
aa(lp769
F236.0
aI9
aI1
aI0
ag477
aa(lp770
F238.0
aI9
aI1
aI2
ag479
aa(lp771
F240.0
aI4
aI2
aI0
aS'inst'
p772
aa(lp773
F242.0
aI10
aI2
aI0
ag481
aa(lp774
F244.0
aI10
aI2
aI0
ag483
aa(lp775
F246.0
aI10
aI2
aI0
ag485
aa(lp776
F248.0
aI10
aI2
aI2
ag487
aa(lp777
F250.0
aI10
aI2
aI0
ag489
aa(lp778
F252.0
aI10
aI2
aI3
ag491
aa(lp779
F254.0
aI10
aI2
aI1
ag493
aa(lp780
F256.0
aI10
aI2
aI0
ag495
aa(lp781
F258.0
aI10
aI2
aI3
ag497
aa(lp782
F260.0
aI10
aI2
aI0
ag499
aa(lp783
F262.0
aI5
aI2
aI0
aS'inst'
p784
aa(lp785
F264.0
aI11
aI2
aI0
ag501
aa(lp786
F266.0
aI11
aI2
aI0
ag503
aa(lp787
F268.0
aI11
aI2
aI0
ag505
aa(lp788
F270.0
aI11
aI2
aI0
ag507
aa(lp789
F272.0
aI11
aI2
aI0
ag509
aa(lp790
F274.0
aI11
aI2
aI3
ag511
aa(lp791
F276.0
aI11
aI2
aI2
ag513
aa(lp792
F278.0
aI11
aI2
aI1
ag515
aa(lp793
F280.0
aI11
aI2
aI0
ag517
aa(lp794
F282.0
aI11
aI2
aI3
ag519
aa(lp795
F304.0
aI0
aI1
aI0
aS'inst'
p796
aa(lp797
F306.0
aI12
aI1
aI0
ag521
aa(lp798
F308.0
aI12
aI1
aI0
ag523
aa(lp799
F310.0
aI12
aI1
aI2
ag525
aa(lp800
F312.0
aI12
aI1
aI1
ag527
aa(lp801
F314.0
aI12
aI1
aI0
ag529
aa(lp802
F316.0
aI12
aI1
aI0
ag531
aa(lp803
F318.0
aI12
aI1
aI3
ag533
aa(lp804
F320.0
aI12
aI1
aI3
ag535
aa(lp805
F322.0
aI12
aI1
aI0
ag537
aa(lp806
F324.0
aI12
aI1
aI2
ag539
aa(lp807
F326.0
aI1
aI1
aI0
aS'inst'
p808
aa(lp809
F328.0
aI13
aI1
aI0
ag541
aa(lp810
F330.0
aI13
aI1
aI1
ag543
aa(lp811
F332.0
aI13
aI1
aI0
ag545
aa(lp812
F334.0
aI13
aI1
aI0
ag547
aa(lp813
F336.0
aI13
aI1
aI1
ag549
aa(lp814
F338.0
aI13
aI1
aI0
ag551
aa(lp815
F340.0
aI13
aI1
aI2
ag553
aa(lp816
F342.0
aI13
aI1
aI0
ag555
aa(lp817
F344.0
aI13
aI1
aI0
ag557
aa(lp818
F346.0
aI13
aI1
aI1
ag559
aa(lp819
F348.0
aI2
aI2
aI0
aS'inst'
p820
aa(lp821
F350.0
aI14
aI2
aI0
ag561
aa(lp822
F352.0
aI14
aI2
aI0
ag563
aa(lp823
F354.0
aI14
aI2
aI2
ag565
aa(lp824
F356.0
aI14
aI2
aI0
ag567
aa(lp825
F358.0
aI14
aI2
aI2
ag569
aa(lp826
F360.0
aI14
aI2
aI2
ag571
aa(lp827
F362.0
aI14
aI2
aI0
ag573
aa(lp828
F364.0
aI14
aI2
aI0
ag575
aa(lp829
F366.0
aI14
aI2
aI2
ag577
aa(lp830
F368.0
aI14
aI2
aI0
ag579
aa(lp831
F370.0
aI3
aI1
aI0
aS'inst'
p832
aa(lp833
F372.0
aI15
aI1
aI0
ag581
aa(lp834
F374.0
aI15
aI1
aI0
ag583
aa(lp835
F376.0
aI15
aI1
aI0
ag585
aa(lp836
F378.0
aI15
aI1
aI3
ag587
aa(lp837
F380.0
aI15
aI1
aI0
ag589
aa(lp838
F382.0
aI15
aI1
aI1
ag591
aa(lp839
F384.0
aI15
aI1
aI0
ag593
aa(lp840
F386.0
aI15
aI1
aI2
ag595
aa(lp841
F388.0
aI15
aI1
aI0
ag597
aa(lp842
F390.0
aI15
aI1
aI0
ag599
aa(lp843
F392.0
aI4
aI2
aI0
aS'inst'
p844
aa(lp845
F394.0
aI16
aI2
aI0
ag601
aa(lp846
F396.0
aI16
aI2
aI1
ag603
aa(lp847
F398.0
aI16
aI2
aI0
ag605
aa(lp848
F400.0
aI16
aI2
aI0
ag607
aa(lp849
F402.0
aI16
aI2
aI2
ag609
aa(lp850
F404.0
aI16
aI2
aI2
ag611
aa(lp851
F406.0
aI16
aI2
aI0
ag613
aa(lp852
F408.0
aI16
aI2
aI3
ag615
aa(lp853
F410.0
aI16
aI2
aI2
ag617
aa(lp854
F412.0
aI16
aI2
aI0
ag619
aa(lp855
F414.0
aI5
aI2
aI0
aS'inst'
p856
aa(lp857
F416.0
aI17
aI2
aI0
ag621
aa(lp858
F418.0
aI17
aI2
aI0
ag623
aa(lp859
F420.0
aI17
aI2
aI2
ag625
aa(lp860
F422.0
aI17
aI2
aI0
ag627
aa(lp861
F424.0
aI17
aI2
aI0
ag629
aa(lp862
F426.0
aI17
aI2
aI0
ag631
aa(lp863
F428.0
aI17
aI2
aI0
ag633
aa(lp864
F430.0
aI17
aI2
aI2
ag635
aa(lp865
F432.0
aI17
aI2
aI1
ag637
aa(lp866
F434.0
aI17
aI2
aI0
ag639
aasS'is_this_SS_trial'
p867
(dp868
sS'subcode'
p869
S'self_tracking_0043'
p870
sS'start_key'
p871
S'5'
p872
s.