(dp0
S'stim_onset_time'
p1
(dp2
sS'datestamp'
p3
S'2013-05-16-07_50_35'
p4
sS'ntrials_per_block'
p5
I6
sS'expt_title'
p6
S'Self_Tracking'
p7
sS'rt'
p8
(dp9
sS'simulated_response'
p10
I00
sS'script'
p11
(lp12
S'#!/usr/bin/env python\n'
p13
aS'\n'
p14
aS'import psychopy\n'
p15
aS'from psychopy import visual, core, event, logging, data, misc, sound\n'
p16
aS'import numpy as N\n'
p17
aS'import pickle,csv\n'
p18
aS'import datetime\n'
p19
aS'import sys\n'
p20
aS'import os, socket, random\n'
p21
aS'import inspect\n'
p22
aS'import hashlib\n'
p23
aS'from socket import gethostname\n'
p24
aS'import exptutils\n'
p25
aS'from exptutils import *\n'
p26
aS'from pylab import imread\n'
p27
ag14
aS'try:\n'
p28
aS'    from save_data_to_db import *\n'
p29
aS'    save_data=1\n'
p30
aS'except:\n'
p31
aS"    print 'cannnot import save_data_to_db'\n"
p32
aS'    save_data=0\n'
p33
ag14
aS'def store_scriptfile():\n'
p34
aS'    scriptfile= inspect.getfile(inspect.currentframe())# save a copy of the script in the data file\n'
p35
aS'    f=open(scriptfile)\n'
p36
aS'    script=f.readlines()\n'
p37
aS'    f.close()\n'
p38
aS'    return script\n'
p39
ag14
aS'#\n'
p40
aS'#- - - - - - - - - - - - - - - - - - - - - - - - - - - - - - - - - - - - - - - - - - - - - - - - - - - - - - - - - - - - - - - - - - - - - - - - - - - - - -\n'
p41
aS'#define functions for awaiting keyboard input & displaying initial instructions\n'
p42
aS'#these functions will be called prior to the stim_block() function (at bottom)\n'
p43
ag14
aS'def wait_for_trigger():\n'
p44
aS'    event.clearEvents()\n'
p45
aS"    if subdata['simulated_response']:\n"
p46
aS'        msg="SIMULATION MODE"\n'
p47
aS'    else:\n'
p48
aS"        msg=''\n"
p49
aS"    message=visual.TextStim(win, text='%s Waiting for start key (or press %s)'%(msg,subdata['start_key']),\n"
p50
aS"    font='BiauKai', height=1,color=u'white', colorSpace=u'rgb', opacity=1,depth=0.0,\n"
p51
aS"    alignHoriz='center',wrapWidth=50)\n"
p52
aS'    message.setAutoDraw(True) #automatically draw every frame\n'
p53
aS'    win.flip()\n'
p54
aS'    start=False\n'
p55
aS'    while start==False:\n'
p56
aS'        k=event.waitKeys()\n'
p57
aS"        if k.count(subdata['start_key'])>0:#as soon as subdata['start_key'] is pressed...\n"
p58
aS'            start=True\n'
p59
aS"            message.setText('')#this clears the screen\n"
p60
aS'            win.flip()\n'
p61
aS"        if k.count(subdata['quit_key']) >0:# if subdata['quit_key'] is pressed...\n"
p62
aS'            exptutils.shut_down_cleanly(subdata,win)\n'
p63
aS'            return subdata\n'
p64
aS'            \n'
p65
aS"def instructions(n,duration):#n here changes depending on the n-back level; yes/no will also switch between 'u' & 'i' keys depending on the Order number selected\n"
p66
aS'    event.clearEvents()\n'
p67
aS"    instructions=visual.TextStim(win=win, ori=0, name='instructions',font='BiauKai',\n"
p68
aS"        text='%d back'%n,\n"
p69
aS"        height=2,color=u'white', colorSpace=u'rgb', alignHoriz='center',wrapWidth=50)\n"
p70
aS'    instructions.setAutoDraw(True)\n'
p71
aS'    win.flip()\n'
p72
aS'    core.wait(duration)#currently it is set up to keep instructions on screen the designated amt of time; a button press will not end these instructions sooner\n'
p73
aS"    instructions.setText('')\n"
p74
aS'    win.flip()\n'
p75
ag14
aS'#- - - - - - - - - - - - - - - - - - - - - - - - - - - - - - - - - - - - - - - - - - - - - - - - - - - - - - - - - - - - - - - - - - - - - - - - \n'
p76
ag14
ag14
aS'#define function for displaying visual stims for each trial on n-back task\n'
p77
ag14
aS'def draw_stim(win,event_info,subdata,visual_stim):\n'
p78
aS'    trialdata={}\n'
p79
aS"    trialdata['duration']=subdata['stim_dur']\n"
p80
aS"    trialdata['onset'],trialdata['block'],trialdata['nback'],trialdata['match'],trialdata['stim']=event_info\n"
p81
aS'    # NB: I removed a lot of data handling stuff from within this function\n'
p82
aS'    # instead, the data get returned and handled at the calling level\n'
p83
aS"    print trialdata['stim']\n"
p84
aS"    if trialdata['stim'].find('faces')>-1:#if it is a face image, display vertically\n"
p85
aS"        stim_type='faces'\n"
p86
aS"    elif trialdata['stim'].find('scenes')>-1:#\n"
p87
aS"        stim_type='scenes'\n"
p88
aS'    else:#if it is a character, display as text\n'
p89
aS"        stim_type='chinese_characters'\n"
p90
aS'        \n'
p91
aS"    visual_stim.setImage(trialdata['stim'])\n"
p92
aS"    trialdata['stim_type']=stim_type\n"
p93
aS'    \n'
p94
aS'        #visual_stim[stim_type].setAutoDraw(True)#get the image ready to display\n'
p95
aS'    visual_stim.draw()\n'
p96
aS"    while clock.getTime()<trialdata['onset']:#wait until the specified onset time to display image_file\n"
p97
aS'        pass\n'
p98
aS'    win.flip()\n'
p99
aS"    trialdata['actual_onset_time']=clock.getTime()\n"
p100
aS'    event.clearEvents()#clear all button presses\n'
p101
aS'    thisResp=None\n'
p102
aS'    simulated_rt=0.5 + N.random.rand()*0.1\n'
p103
aS"    while clock.getTime() < (trialdata['actual_onset_time'] + trialdata['duration']):#before the subdata['stim_dur'] time is exceeded, do this stuff...\n"
p104
aS'            key_response=event.getKeys()#look for yes,no, and quit commands\n'
p105
aS"            if subdata['simulated_response']:\n"
p106
aS"                if clock.getTime()> trialdata['actual_onset_time'] + simulated_rt:\n"
p107
aS'                    thisResp=1\n'
p108
aS"                    trialdata['rt']=clock.getTime() - trialdata['actual_onset_time'] #collect rt\n"
p109
aS"                    if trialdata['match']==trialdata['nback']:\n"
p110
aS"                        trialdata['response']='4'\n"
p111
aS'                    else:\n'
p112
aS"                        trialdata['response']='1'\n"
p113
ag14
aS'            elif key_response:#if they press any button\n'
p114
aS"                if key_response.count(subdata['quit_key'])>0:#if subj hits subdata['quit_key']...\n"
p115
aS'                    keep_going=0\n'
p116
aS"                    #subdata['broke_on_trial'][which_block]=trial_num\n"
p117
aS'                    #shut_down_cleanly(subdata,win)\n'
p118
aS'                    return None\n'
p119
aS"                elif key_response.count('5')>0:\n"
p120
aS"                    subdata['trigger_times'].append(clock.getTime())\n"
p121
aS'                else:\n'
p122
aS'                    thisResp=1\n'
p123
aS"                    trialdata['rt']=clock.getTime() - trialdata['actual_onset_time'] #collect rt\n"
p124
aS"                    trialdata['response']=key_response[0]#collect response\n"
p125
ag14
aS'    visual_stim.clearTextures()\n'
p126
ag14
aS'    win.flip()\n'
p127
ag14
aS'    #del visual_stim\n'
p128
aS'    return trialdata\n'
p129
aS'    \n'
p130
ag14
ag14
aS'#Text saying the task has finished. Disappears with key press\n'
p131
ag14
aS'def display_finished_text():#finished with experiment\n'
p132
aS'    event.clearEvents()\n'
p133
aS'    message=visual.TextStim(win=win, ori=0,\n'
p134
aS"    text='All finished! Thanks  :) \\n Press any key to clear the screen.',\n"
p135
aS"    font=u'BiauKai',pos=[0, 0], height=2,color=u'white', colorSpace=u'rgb', opacity=1,depth=0.0,alignHoriz='center',wrapWidth=50)\n"
p136
aS'    message.setAutoDraw(True) \n'
p137
aS'    win.flip()\n'
p138
aS'    start=False\n'
p139
aS'    while start==False:\n'
p140
aS'        key_response=event.getKeys()\n'
p141
aS'        if len(key_response)>0:\n'
p142
aS'            start=True\n'
p143
aS"            message.setText('')#this clears the screen\n"
p144
aS'            win.flip()\n'
p145
aS'    return start\n'
p146
aS'#- - - - - - - - - - - - - - - - - - - - - - - - - - - - - - - - - - - - - - - - - - - - - - - - - - - - - - - - - - - - - - - - - - - - - - \n'
p147
ag14
aS'    \n'
p148
aS'#set-up some variables\n'
p149
ag14
aS'verbose=True\n'
p150
aS'fullscr=False  # change to True for full screen display\n'
p151
ag14
aS"stim_types=['faces','scenes','chinese_characters']\n"
p152
aS'subdata={}\n'
p153
aS'finish_time=440\n'
p154
ag14
aS"subdata['start_key']='5'\n"
p155
aS"subdata['quit_key']='q'\n"
p156
aS"subdata['discard_time_to_wait']=0.0\n"
p157
aS"subdata['expt_title']='Self_Tracking'\n"
p158
aS"subdata['stim_dur']=1.0\n"
p159
aS"subdata['inter_stim_int']=1.0\n"
p160
aS"subdata['inst_time']=1.0\n"
p161
aS"subdata['rest_time']=10.0\n"
p162
aS"subdata['ExpVersion']=0.1\n"
p163
aS"subdata['nstims']=5\n"
p164
aS"subdata['ntrials_per_block']=6\n"
p165
aS"subdata['simulated_response']=False\n"
p166
aS"subdata['trigger_times']=[]\n"
p167
ag14
aS'if len(sys.argv)<2:\n'
p168
aS"    print 'USAGE: self_tracking.py <stimlist> <session code>'\n"
p169
aS'    sys.exit()\n'
p170
aS"    #subdata['onsetfile']='/Users/poldrack/Dropbox/Documents/Projects/self-tracking/task/onsetlists/stimlist_000.txt'\n"
p171
aS'else:\n'
p172
aS"    subdata['onsetfile']=sys.argv[1]\n"
p173
aS"    subdata['subcode']=sys.argv[2]\n"
p174
ag14
ag14
aS'# initialize subdata dictionary to store info about the study\n'
p175
aS"subdata['completed']=0\n"
p176
aS"subdata['cwd']=os.getcwd()\n"
p177
aS"subdata['hostname']=socket.gethostname()\n"
p178
aS'clock=core.Clock()\n'
p179
aS'datestamp=datetime.datetime.now().strftime("%Y-%m-%d-%H_%M_%S")\n'
p180
aS"subdata['datestamp']=datestamp\n"
p181
aS"subdata['expt_title']=subdata['expt_title']\n"
p182
aS"subdata['script']=store_scriptfile()\n"
p183
aS"subdata['onsets']=subdata['onsetfile']\n"
p184
ag14
aS'#these are all sub-dictionaries which will be appended w/separate info for each block & each trial\n'
p185
aS"#i.e., the 'response' dictionary will contain the following dictionaries: face_1, face_2, scenes_1, scenes_2, whose keys are trial_num and values are the responses on that trial\n"
p186
aS"subdata['response']={}\n"
p187
aS"subdata['score']={}\n"
p188
aS"subdata['rt']={}\n"
p189
aS"subdata['stim_onset_time']={}\n"
p190
aS"subdata['stim_log']={}\n"
p191
aS"subdata['is_this_SS_trial']={}\n"
p192
aS"subdata['SS']={}\n"
p193
aS"subdata['broke_on_trial']={}\n"
p194
ag14
aS'# set up logging information & create Output directories\n'
p195
aS"if not os.path.isdir('Output'):#make an Output directory if necessary\n"
p196
aS"    os.makedirs('Output') \n"
p197
ag14
aS"dataFileName='Output/%s_%s_subdata.log'%(subdata['subcode'],subdata['datestamp'])\n"
p198
aS'logging.console.setLevel(logging.INFO)\n'
p199
aS'logfile=logging.LogFile(dataFileName,level=logging.INFO)\n'
p200
ag14
aS'# load stimulus file\n'
p201
ag14
aS'def load_stimulus_file(onsfile):\n'
p202
aS'    events=[]\n'
p203
aS'    f=open(onsfile)\n'
p204
aS'    l=f.readlines()\n'
p205
aS'    for line in l:\n'
p206
aS"        l_s=line.strip('\\n').split('\\t')\n"
p207
aS'        events.append([float(l_s[0]),int(l_s[1]),int(l_s[2]),int(l_s[3]),l_s[4]])\n'
p208
aS'    f.close()\n'
p209
aS'    return events\n'
p210
ag14
aS"events=load_stimulus_file(subdata['onsetfile'])\n"
p211
ag14
aS'# set up the window \n'
p212
aS"win = visual.Window([800,600],allowGUI=True, fullscr=True, monitor='testMonitor', units='deg')\n"
p213
aS"win.setColor('black')\n"
p214
aS'win.flip()\n'
p215
aS'win.flip()\n'
p216
ag14
aS'#integrating everything together\n'
p217
ag14
aS"subdata['trialdata']={}\n"
p218
aS'#chardict=create_characters_dict()\n'
p219
ag14
aS"wait_for_trigger()#wait for subdata['start_key'] to be pressed\n"
p220
ag14
aS'visual_stim={}\n'
p221
aS"visual_stim=visual.ImageStim(win, image=N.zeros((10,10)), size=(0.75,0.75),units='height')\n"
p222
ag14
aS'# set clock to zero\n'
p223
aS'clock.reset()\n'
p224
aS'trialctr=0\n'
p225
aS'for i in range(len(events)):\n'
p226
aS"    if events[i][4]=='inst':\n"
p227
aS'        while clock.getTime() < events[i][0]:\n'
p228
aS'            pass\n'
p229
aS"        instructions(events[i][2],subdata['inst_time'])\n"
p230
aS'    else:\n'
p231
aS"        subdata['trialdata'][trialctr]=draw_stim(win,events[i],subdata,visual_stim)\n"
p232
aS"        if subdata['trialdata'][trialctr]==None:\n"
p233
aS'            break\n'
p234
aS'        trialctr+=1\n'
p235
aS"        print 'return time:',clock.getTime()\n"
p236
ag14
aS'#display_finished_text()\n'
p237
aS'while clock.getTime()<finish_time:\n'
p238
aS'\tpass\n'
p239
aS'\t\n'
p240
aS"subdata['events']=events\n"
p241
aS'if save_data==1:\n'
p242
aS"    docId,docRev=save_data_to_db(subdata,'selftracking-taskdata')\n"
p243
ag14
aS'shut_down_cleanly(subdata,win)\n'
p244
asS'onsets'
p245
S'onsetlists/stimlist_012.txt'
p246
sS'hostname'
p247
S'IRC-arizona'
p248
sS'score'
p249
(dp250
sS'rest_time'
p251
F10.0
sS'cwd'
p252
S'/Users/rap2623/Dropbox/Documents/Projects/self-tracking/task'
p253
sS'trigger_times'
p254
(lp255
F2.274285078048706
aF4.594496965408325
aF6.914566993713379
aF8.074774980545044
aF10.394627094268799
aF12.71469497680664
aF16.194833993911743
aF18.514838933944702
aF20.834939002990723
aF24.314071893692017
aF26.634023904800415
aF28.954162120819092
aF30.114314079284668
aF32.43427610397339
aF34.754379987716675
aF38.234508991241455
aF40.55450201034546
aF42.87456512451172
aF46.3547420501709
aF48.67456603050232
aF50.99465990066528
aF52.15498208999634
aF54.475034952163696
aF56.79495191574097
aF60.2750940322876
aF62.595134973526
aF64.91539692878723
aF68.39518094062805
aF70.71536302566528
aF74.1945071220398
aF76.51464295387268
aF78.83461499214172
aF82.31472611427307
aF84.63470196723938
aF86.95469403266907
aF90.43493700027466
aF92.75501990318298
aF96.23518300056458
aF98.55504894256592
aF100.87523794174194
aF102.03539991378784
aF104.35528898239136
aF106.67541694641113
aF108.99544405937195
aF112.4757559299469
aF114.79579997062683
aF118.27574110031128
aF120.59573793411255
aF122.91580009460449
aF124.07502388954163
aF126.39495706558228
aF128.71501398086548
aF154.2358160018921
aF156.5558099746704
aF158.87586212158203
aF160.03606796264648
aF162.35597491264343
aF164.67602705955505
aF166.9961121082306
aF168.15628600120544
aF170.47620606422424
aF172.7962601184845
aF176.27543711662292
aF178.59534096717834
aF180.91548800468445
aF182.07568192481995
aF184.39559602737427
aF186.71565198898315
aF190.19569206237793
aF192.515851020813
aF194.83592104911804
aF198.3159909248352
aF200.63610792160034
aF202.9561469554901
aF204.11622309684753
aF206.43624091148376
aF208.75625610351562
aF212.23644590377808
aF214.55646300315857
aF216.8764500617981
aF220.35652709007263
aF222.676677942276
aF224.995698928833
aF226.15575695037842
aF228.4756350517273
aF230.79593205451965
aF234.27602410316467
aF236.59616994857788
aF238.91613912582397
aF242.39632105827332
aF244.71624493598938
aF248.19647693634033
aF250.51646995544434
aF252.8365399837494
aF256.31670594215393
aF258.6367449760437
aF260.95679211616516
aF264.43688201904297
aF266.75669598579407
aF270.23712396621704
aF272.55712509155273
aF274.87715792655945
aF276.0363380908966
aF278.3562490940094
aF280.67639803886414
aF282.9963879585266
aF306.19707798957825
aF308.51709508895874
aF310.837189912796
aF314.3173050880432
aF316.63730812072754
aF318.9574348926544
aF320.11759901046753
aF322.43753004074097
aF324.75760793685913
aF328.2378361225128
aF330.5567660331726
aF332.8768141269684
aF334.0368900299072
aF336.3569190502167
aF338.6769781112671
aF340.99704694747925
aF342.15721011161804
aF344.47714710235596
aF346.79734897613525
aF350.27740001678467
aF352.597305059433
aF354.9173369407654
aF356.0776209831238
aF358.39758706092834
aF360.71770191192627
aF364.19776701927185
aF366.51775789260864
aF368.83784198760986
aF372.3179531097412
aF374.63781690597534
aF376.95806193351746
aF378.1182119846344
aF380.4371819496155
aF382.75727009773254
aF386.2374141216278
aF388.55740189552307
aF390.8775300979614
aF394.3574800491333
aF396.6776399612427
aF398.99769401550293
aF400.1578691005707
aF402.47786712646484
aF404.79791593551636
aF408.27800989151
aF410.5980429649353
aF412.9180951118469
aF416.39819502830505
aF418.71825098991394
aF422.19839000701904
aF424.51832604408264
aF426.8383700847626
aF430.31758403778076
aF432.63769698143005
aF434.95773100852966
asS'ExpVersion'
p256
F0.1
sS'completed'
p257
I0
sS'stim_dur'
p258
F1.0
sS'quit_key'
p259
S'q'
p260
sS'onsetfile'
p261
g246
sS'discard_time_to_wait'
p262
F0.0
sS'response'
p263
(dp264
sS'trialdata'
p265
(dp266
I0
(dp267
g8
F0.5119309425354004
sS'stim'
p268
S'./stimfiles/scenes/848.jpg'
p269
sS'onset'
p270
F2.0
sS'stim_type'
p271
S'scenes'
p272
sS'block'
p273
I0
sS'nback'
p274
I1
sS'duration'
p275
F1.0
sg263
S'1'
p276
sS'match'
p277
I0
sS'actual_onset_time'
p278
F2.0162830352783203
ssI1
(dp279
g8
F0.7383139133453369
sg268
S'./stimfiles/scenes/848.jpg'
p280
sg270
F4.0
sg271
g272
sg273
I0
sg274
I1
sg275
F1.0
sg263
S'4'
p281
sg277
I1
sg278
F4.01717209815979
ssI2
(dp282
g8
F0.6736249923706055
sg268
S'./stimfiles/scenes/848.jpg'
p283
sg270
F6.0
sg271
g272
sg273
I0
sg274
I1
sg275
F1.0
sg263
g281
sg277
I1
sg278
F6.017920017242432
ssI3
(dp284
g8
F0.6736109256744385
sg268
S'./stimfiles/scenes/1332.jpg'
p285
sg270
F8.0
sg271
g272
sg273
I0
sg274
I1
sg275
F1.0
sg263
g276
sg277
I0
sg278
F8.018829107284546
ssI4
(dp286
g8
F0.9810910224914551
sg268
S'./stimfiles/scenes/848.jpg'
p287
sg270
F10.0
sg271
g272
sg273
I0
sg274
I1
sg275
F1.0
sg263
g276
sg277
I3
sg278
F10.019609928131104
ssI5
(dp288
g8
F0.5722098350524902
sg268
S'./stimfiles/scenes/1752.jpg'
p289
sg270
F12.0
sg271
g272
sg273
I0
sg274
I1
sg275
F1.0
sg263
g276
sg277
I0
sg278
F12.020477056503296
ssI6
(dp290
g8
F0.5641300678253174
sg268
S'./stimfiles/scenes/457.jpg'
p291
sg270
F14.0
sg271
g272
sg273
I0
sg274
I1
sg275
F1.0
sg263
g276
sg277
I0
sg278
F14.004591941833496
ssI7
(dp292
g8
F0.5103120803833008
sg268
S'./stimfiles/scenes/848.jpg'
p293
sg270
F16.0
sg271
g272
sg273
I0
sg274
I1
sg275
F1.0
sg263
g276
sg277
I3
sg278
F16.00541400909424
ssI8
(dp294
g8
F0.575538158416748
sg268
S'./stimfiles/scenes/1487.jpg'
p295
sg270
F18.0
sg271
g272
sg273
I0
sg274
I1
sg275
F1.0
sg263
g276
sg277
I0
sg278
F18.006239891052246
ssI9
(dp296
g8
F0.7370140552520752
sg268
S'./stimfiles/scenes/848.jpg'
p297
sg270
F20.0
sg271
g272
sg273
I0
sg274
I1
sg275
F1.0
sg263
g276
sg277
I2
sg278
F20.007066011428833
ssI10
(dp298
g8
F0.6504919528961182
sg268
S'./stimfiles/faces/cropped_i425xa-mn.png'
p299
sg270
F24.0
sg271
S'faces'
p300
sg273
I1
sg274
I1
sg275
F1.0
sg263
g276
sg277
I0
sg278
F24.025352001190186
ssI11
(dp301
g8
F0.5277011394500732
sg268
S'./stimfiles/faces/cropped_m4061.png'
p302
sg270
F26.0
sg271
g300
sg273
I1
sg274
I1
sg275
F1.0
sg263
g276
sg277
I0
sg278
F26.00955891609192
ssI12
(dp303
g8
F0.6008670330047607
sg268
S'./stimfiles/faces/cropped_i045qa-mn.png'
p304
sg270
F28.0
sg271
g300
sg273
I1
sg274
I1
sg275
F1.0
sg263
g276
sg277
I0
sg278
F28.010317087173462
ssI13
(dp305
g8
F0.6739788055419922
sg268
S'./stimfiles/faces/cropped_m-046-01.png'
p306
sg270
F30.0
sg271
g300
sg273
I1
sg274
I1
sg275
F1.0
sg263
g276
sg277
I0
sg278
F30.01123309135437
ssI14
(dp307
g8
F0.6432561874389648
sg268
S'./stimfiles/faces/cropped_730.png'
p308
sg270
F32.0
sg271
g300
sg273
I1
sg274
I1
sg275
F1.0
sg263
g276
sg277
I0
sg278
F32.01202392578125
ssI15
(dp309
g8
F0.5625228881835938
sg268
S'./stimfiles/faces/cropped_m-046-01.png'
p310
sg270
F34.0
sg271
g300
sg273
I1
sg274
I1
sg275
F1.0
sg263
g276
sg277
I2
sg278
F34.012829065322876
ssI16
(dp311
g8
F0.5927581787109375
sg268
S'./stimfiles/faces/cropped_m-046-01.png'
p312
sg270
F36.0
sg271
g300
sg273
I1
sg274
I1
sg275
F1.0
sg263
g281
sg277
I1
sg278
F36.01361393928528
ssI17
(dp313
g8
F0.5628650188446045
sg268
S'./stimfiles/faces/cropped_f1-006-01.png'
p314
sg270
F38.0
sg271
g300
sg273
I1
sg274
I1
sg275
F1.0
sg263
g276
sg277
I0
sg278
F38.01449489593506
ssI18
(dp315
g8
F0.6351001262664795
sg268
S'./stimfiles/faces/cropped_04014.png'
p316
sg270
F40.0
sg271
g300
sg273
I1
sg274
I1
sg275
F1.0
sg263
g276
sg277
I0
sg278
F40.01533794403076
ssI19
(dp317
g8
F0.5863440036773682
sg268
S'./stimfiles/faces/cropped_m-046-01.png'
p318
sg270
F42.0
sg271
g300
sg273
I1
sg274
I1
sg275
F1.0
sg263
g276
sg277
I3
sg278
F42.01616096496582
ssI20
(dp319
g8
F0.48594188690185547
sg268
S'./stimfiles/chinese_characters/33309.jpg'
p320
sg270
F46.0
sg271
S'chinese_characters'
p321
sg273
I2
sg274
I1
sg275
F1.0
sg263
g276
sg277
I0
sg278
F46.017717123031616
ssI21
(dp322
g8
F0.6220269203186035
sg268
S'./stimfiles/chinese_characters/20713.jpg'
p323
sg270
F48.0
sg271
g321
sg273
I2
sg274
I1
sg275
F1.0
sg263
g276
sg277
I0
sg278
F48.01860308647156
ssI22
(dp324
g8
F0.5372200012207031
sg268
S'./stimfiles/chinese_characters/25501.jpg'
p325
sg270
F50.0
sg271
g321
sg273
I2
sg274
I1
sg275
F1.0
sg263
g276
sg277
I0
sg278
F50.01943802833557
ssI23
(dp326
g8
F0.6596918106079102
sg268
S'./stimfiles/chinese_characters/20713.jpg'
p327
sg270
F52.0
sg271
g321
sg273
I2
sg274
I1
sg275
F1.0
sg263
g276
sg277
I2
sg278
F52.02020812034607
ssI24
(dp328
g8
F0.6838099956512451
sg268
S'./stimfiles/chinese_characters/25501.jpg'
p329
sg270
F54.0
sg271
g321
sg273
I2
sg274
I1
sg275
F1.0
sg263
g276
sg277
I2
sg278
F54.02106189727783
ssI25
(dp330
g8
F0.6892459392547607
sg268
S'./stimfiles/chinese_characters/26074.jpg'
p331
sg270
F56.0
sg271
g321
sg273
I2
sg274
I1
sg275
F1.0
sg263
g276
sg277
I0
sg278
F56.02183508872986
ssI26
(dp332
g8
F0.6963160037994385
sg268
S'./stimfiles/chinese_characters/25139.jpg'
p333
sg270
F58.0
sg271
g321
sg273
I2
sg274
I1
sg275
F1.0
sg263
g276
sg277
I0
sg278
F58.02272701263428
ssI27
(dp334
g8
F0.7825250625610352
sg268
S'./stimfiles/chinese_characters/26074.jpg'
p335
sg270
F60.0
sg271
g321
sg273
I2
sg274
I1
sg275
F1.0
sg263
g276
sg277
I2
sg278
F60.023545026779175
ssI28
(dp336
g8
F0.7167420387268066
sg268
S'./stimfiles/chinese_characters/37276.jpg'
p337
sg270
F62.0
sg271
g321
sg273
I2
sg274
I1
sg275
F1.0
sg263
g276
sg277
I0
sg278
F62.02432203292847
ssI29
(dp338
g8
F0.7680609226226807
sg268
S'./stimfiles/chinese_characters/25139.jpg'
p339
sg270
F64.0
sg271
g321
sg273
I2
sg274
I1
sg275
F1.0
sg263
g276
sg277
I3
sg278
F64.02518606185913
ssI30
(dp340
g8
F0.5891180038452148
sg268
S'./stimfiles/scenes/1001.jpg'
p341
sg270
F68.0
sg271
g272
sg273
I3
sg274
I2
sg275
F1.0
sg263
g276
sg277
I0
sg278
F68.01011204719543
ssI31
(dp342
g8
F0.6763288974761963
sg268
S'./stimfiles/scenes/114.jpg'
p343
sg270
F70.0
sg271
g272
sg273
I3
sg274
I2
sg275
F1.0
sg263
g276
sg277
I0
sg278
F70.0109190940857
ssI32
(dp344
g8
F0.8245999813079834
sg268
S'./stimfiles/scenes/1092.jpg'
p345
sg270
F72.0
sg271
g272
sg273
I3
sg274
I2
sg275
F1.0
sg263
g276
sg277
I0
sg278
F72.01179695129395
ssI33
(dp346
g8
F0.64687180519104
sg268
S'./stimfiles/scenes/540.jpg'
p347
sg270
F74.0
sg271
g272
sg273
I3
sg274
I2
sg275
F1.0
sg263
g276
sg277
I0
sg278
F74.01260209083557
ssI34
(dp348
g8
F0.7691600322723389
sg268
S'./stimfiles/scenes/114.jpg'
p349
sg270
F76.0
sg271
g272
sg273
I3
sg274
I2
sg275
F1.0
sg263
g276
sg277
I3
sg278
F76.01336908340454
ssI35
(dp350
g8
F0.7053899765014648
sg268
S'./stimfiles/scenes/540.jpg'
p351
sg270
F78.0
sg271
g272
sg273
I3
sg274
I2
sg275
F1.0
sg263
g281
sg277
I2
sg278
F78.0142469406128
ssI36
(dp352
g8
F0.516603946685791
sg268
S'./stimfiles/scenes/250.jpg'
p353
sg270
F80.0
sg271
g272
sg273
I3
sg274
I2
sg275
F1.0
sg263
g276
sg277
I0
sg278
F80.01502299308777
ssI37
(dp354
g8
F0.5545070171356201
sg268
S'./stimfiles/scenes/1668.jpg'
p355
sg270
F82.0
sg271
g272
sg273
I3
sg274
I2
sg275
F1.0
sg263
g276
sg277
I0
sg278
F82.01591992378235
ssI38
(dp356
g8
F0.6930110454559326
sg268
S'./stimfiles/scenes/772.jpg'
p357
sg270
F84.0
sg271
g272
sg273
I3
sg274
I2
sg275
F1.0
sg263
g276
sg277
I0
sg278
F84.0167350769043
ssI39
(dp358
g8
F0.8241090774536133
sg268
S'./stimfiles/scenes/1668.jpg'
p359
sg270
F86.0
sg271
g272
sg273
I3
sg274
I2
sg275
F1.0
sg263
g281
sg277
I2
sg278
F86.01757097244263
ssI40
(dp360
g8
F0.44996118545532227
sg268
S'./stimfiles/faces/cropped_847.png'
p361
sg270
F90.0
sg271
g300
sg273
I4
sg274
I2
sg275
F1.0
sg263
g276
sg277
I0
sg278
F90.01912689208984
ssI41
(dp362
g8
F0.43001890182495117
sg268
S'./stimfiles/faces/cropped_40MVC-003F.png'
p363
sg270
F92.0
sg271
g300
sg273
I4
sg274
I2
sg275
F1.0
sg263
g276
sg277
I0
sg278
F92.01996111869812
ssI42
(dp364
g8
F0.8512248992919922
sg268
S'./stimfiles/faces/cropped_40MVC-003F.png'
p365
sg270
F94.0
sg271
g300
sg273
I4
sg274
I2
sg275
F1.0
sg263
g276
sg277
I1
sg278
F94.02087211608887
ssI43
(dp366
g8
F0.6514239311218262
sg268
S'./stimfiles/faces/cropped_847.png'
p367
sg270
F96.0
sg271
g300
sg273
I4
sg274
I2
sg275
F1.0
sg263
g276
sg277
I3
sg278
F96.02168011665344
ssI44
(dp368
g8
F0.5986728668212891
sg268
S'./stimfiles/faces/cropped_40MVC-003F.png'
p369
sg270
F98.0
sg271
g300
sg273
I4
sg274
I2
sg275
F1.0
sg263
g281
sg277
I2
sg278
F98.02244305610657
ssI45
(dp370
g8
F0.6429450511932373
sg268
S'./stimfiles/faces/cropped_533.png'
p371
sg270
F100.0
sg271
g300
sg273
I4
sg274
I2
sg275
F1.0
sg263
g276
sg277
I0
sg278
F100.02332806587219
ssI46
(dp372
g8
F0.6060400009155273
sg268
S'./stimfiles/faces/cropped_255.png'
p373
sg270
F102.0
sg271
g300
sg273
I4
sg274
I2
sg275
F1.0
sg263
g276
sg277
I0
sg278
F102.02412390708923
ssI47
(dp374
g8
F0.8223838806152344
sg268
S'./stimfiles/faces/cropped_533.png'
p375
sg270
F104.0
sg271
g300
sg273
I4
sg274
I2
sg275
F1.0
sg263
g281
sg277
I2
sg278
F104.02497410774231
ssI48
(dp376
g8
F0.5893349647521973
sg268
S'./stimfiles/faces/cropped_288.png'
p377
sg270
F106.0
sg271
g300
sg273
I4
sg274
I2
sg275
F1.0
sg263
g276
sg277
I0
sg278
F106.00907397270203
ssI49
(dp378
g8
F0.6095771789550781
sg268
S'./stimfiles/faces/cropped_533.png'
p379
sg270
F108.0
sg271
g300
sg273
I4
sg274
I2
sg275
F1.0
sg263
g281
sg277
I2
sg278
F108.0098729133606
ssI50
(dp380
g8
F0.5809850692749023
sg268
S'./stimfiles/chinese_characters/29370.jpg'
p381
sg270
F112.0
sg271
g321
sg273
I5
sg274
I2
sg275
F1.0
sg263
g276
sg277
I0
sg278
F112.01155400276184
ssI51
(dp382
g8
F0.5092430114746094
sg268
S'./stimfiles/chinese_characters/25037.jpg'
p383
sg270
F114.0
sg271
g321
sg273
I5
sg274
I2
sg275
F1.0
sg263
g276
sg277
I0
sg278
F114.0123929977417
ssI52
(dp384
g8
F0.47348594665527344
sg268
S'./stimfiles/chinese_characters/29370.jpg'
p385
sg270
F116.0
sg271
g321
sg273
I5
sg274
I2
sg275
F1.0
sg263
g281
sg277
I2
sg278
F116.01317000389099
ssI53
(dp386
g8
F0.6126430034637451
sg268
S'./stimfiles/chinese_characters/20738.jpg'
p387
sg270
F118.0
sg271
g321
sg273
I5
sg274
I2
sg275
F1.0
sg263
g276
sg277
I0
sg278
F118.01404905319214
ssI54
(dp388
g8
F0.45194315910339355
sg268
S'./stimfiles/chinese_characters/29370.jpg'
p389
sg270
F120.0
sg271
g321
sg273
I5
sg274
I2
sg275
F1.0
sg263
g281
sg277
I2
sg278
F120.01485991477966
ssI55
(dp390
g8
F0.6332299709320068
sg268
S'./stimfiles/chinese_characters/25900.jpg'
p391
sg270
F122.0
sg271
g321
sg273
I5
sg274
I2
sg275
F1.0
sg263
g276
sg277
I0
sg278
F122.01563906669617
ssI56
(dp392
g8
F0.6924309730529785
sg268
S'./stimfiles/chinese_characters/25900.jpg'
p393
sg270
F124.0
sg271
g321
sg273
I5
sg274
I2
sg275
F1.0
sg263
g276
sg277
I1
sg278
F124.01648306846619
ssI57
(dp394
g8
F0.5475571155548096
sg268
S'./stimfiles/chinese_characters/24838.jpg'
p395
sg270
F126.0
sg271
g321
sg273
I5
sg274
I2
sg275
F1.0
sg263
g276
sg277
I0
sg278
F126.01731395721436
ssI58
(dp396
g8
F0.5528421401977539
sg268
S'./stimfiles/chinese_characters/31998.jpg'
p397
sg270
F128.0
sg271
g321
sg273
I5
sg274
I2
sg275
F1.0
sg263
g276
sg277
I0
sg278
F128.01809191703796
ssI59
(dp398
g8
F0.565187931060791
sg268
S'./stimfiles/chinese_characters/30249.jpg'
p399
sg270
F130.0
sg271
g321
sg273
I5
sg274
I2
sg275
F1.0
sg263
g276
sg277
I0
sg278
F130.0189220905304
ssI60
(dp400
g8
F0.46859192848205566
sg268
S'./stimfiles/scenes/3067.jpg'
p401
sg270
F154.0
sg271
g272
sg273
I6
sg274
I1
sg275
F1.0
sg263
g276
sg277
I0
sg278
F154.01213312149048
ssI61
(dp402
g8
F0.4278688430786133
sg268
S'./stimfiles/scenes/600.jpg'
p403
sg270
F156.0
sg271
g272
sg273
I6
sg274
I1
sg275
F1.0
sg263
g276
sg277
I0
sg278
F156.0129270553589
ssI62
(dp404
g8
F0.5300860404968262
sg268
S'./stimfiles/scenes/615.jpg'
p405
sg270
F158.0
sg271
g272
sg273
I6
sg274
I1
sg275
F1.0
sg263
g276
sg277
I0
sg278
F158.01381397247314
ssI63
(dp406
g8
F0.5683369636535645
sg268
S'./stimfiles/scenes/120.jpg'
p407
sg270
F160.0
sg271
g272
sg273
I6
sg274
I1
sg275
F1.0
sg263
g276
sg277
I0
sg278
F160.01458096504211
ssI64
(dp408
g8
F0.5214741230010986
sg268
S'./stimfiles/scenes/705.jpg'
p409
sg270
F162.0
sg271
g272
sg273
I6
sg274
I1
sg275
F1.0
sg263
g276
sg277
I0
sg278
F162.01549291610718
ssI65
(dp410
g8
F0.5037550926208496
sg268
S'./stimfiles/scenes/615.jpg'
p411
sg270
F164.0
sg271
g272
sg273
I6
sg274
I1
sg275
F1.0
sg263
g276
sg277
I3
sg278
F164.016263961792
ssI66
(dp412
g8
F0.6550791263580322
sg268
S'./stimfiles/scenes/705.jpg'
p413
sg270
F166.0
sg271
g272
sg273
I6
sg274
I1
sg275
F1.0
sg263
g276
sg277
I2
sg278
F166.017098903656
ssI67
(dp414
g8
F0.493243932723999
sg268
S'./stimfiles/scenes/705.jpg'
p415
sg270
F168.0
sg271
g272
sg273
I6
sg274
I1
sg275
F1.0
sg263
g281
sg277
I1
sg278
F168.0179340839386
ssI68
(dp416
g8
F0.5133910179138184
sg268
S'./stimfiles/scenes/759.jpg'
p417
sg270
F170.0
sg271
g272
sg273
I6
sg274
I1
sg275
F1.0
sg263
g276
sg277
I0
sg278
F170.01878309249878
ssI69
(dp418
g8
F0.6015951633453369
sg268
S'./stimfiles/scenes/978.jpg'
p419
sg270
F172.0
sg271
g272
sg273
I6
sg274
I1
sg275
F1.0
sg263
g276
sg277
I0
sg278
F172.01955795288086
ssI70
(dp420
g8
F0.5601749420166016
sg268
S'./stimfiles/faces/cropped_693.png'
p421
sg270
F176.0
sg271
g300
sg273
I7
sg274
I1
sg275
F1.0
sg263
g276
sg277
I0
sg278
F176.0211730003357
ssI71
(dp422
g8
F0.7302501201629639
sg268
S'./stimfiles/faces/cropped_693.png'
p423
sg270
F178.0
sg271
g300
sg273
I7
sg274
I1
sg275
F1.0
sg263
g281
sg277
I1
sg278
F178.02201294898987
ssI72
(dp424
g8
F0.6617059707641602
sg268
S'./stimfiles/faces/cropped_f7n1.png'
p425
sg270
F180.0
sg271
g300
sg273
I7
sg274
I1
sg275
F1.0
sg263
g276
sg277
I0
sg278
F180.02283310890198
ssI73
(dp426
g8
F0.6938991546630859
sg268
S'./stimfiles/faces/cropped_693.png'
p427
sg270
F182.0
sg271
g300
sg273
I7
sg274
I1
sg275
F1.0
sg263
g276
sg277
I3
sg278
F182.02368092536926
ssI74
(dp428
g8
F0.6711649894714355
sg268
S'./stimfiles/faces/cropped_24.png'
p429
sg270
F184.0
sg271
g300
sg273
I7
sg274
I1
sg275
F1.0
sg263
g276
sg277
I0
sg278
F184.02444505691528
ssI75
(dp430
g8
F0.5903770923614502
sg268
S'./stimfiles/faces/cropped_693.png'
p431
sg270
F186.0
sg271
g300
sg273
I7
sg274
I1
sg275
F1.0
sg263
g276
sg277
I2
sg278
F186.0252649784088
ssI76
(dp432
g8
F0.5776278972625732
sg268
S'./stimfiles/faces/cropped_02_02.png'
p433
sg270
F188.0
sg271
g300
sg273
I7
sg274
I1
sg275
F1.0
sg263
g276
sg277
I0
sg278
F188.02612209320068
ssI77
(dp434
g8
F0.5514020919799805
sg268
S'./stimfiles/faces/cropped_494.png'
p435
sg270
F190.0
sg271
g300
sg273
I7
sg274
I1
sg275
F1.0
sg263
g276
sg277
I0
sg278
F190.01033997535706
ssI78
(dp436
g8
F0.5687410831451416
sg268
S'./stimfiles/faces/cropped_02_02.png'
p437
sg270
F192.0
sg271
g300
sg273
I7
sg274
I1
sg275
F1.0
sg263
g276
sg277
I2
sg278
F192.01112389564514
ssI79
(dp438
g8
F0.6149618625640869
sg268
S'./stimfiles/faces/cropped_203.png'
p439
sg270
F194.0
sg271
g300
sg273
I7
sg274
I1
sg275
F1.0
sg263
g276
sg277
I0
sg278
F194.01195812225342
ssI80
(dp440
g8
F0.589393138885498
sg268
S'./stimfiles/chinese_characters/26873.jpg'
p441
sg270
F198.0
sg271
g321
sg273
I8
sg274
I1
sg275
F1.0
sg263
g276
sg277
I0
sg278
F198.01358890533447
ssI81
(dp442
g8
F0.5936801433563232
sg268
S'./stimfiles/chinese_characters/28686.jpg'
p443
sg270
F200.0
sg271
g321
sg273
I8
sg274
I1
sg275
F1.0
sg263
g276
sg277
I0
sg278
F200.01443696022034
ssI82
(dp444
g8
F0.6169588565826416
sg268
S'./stimfiles/chinese_characters/28686.jpg'
p445
sg270
F202.0
sg271
g321
sg273
I8
sg274
I1
sg275
F1.0
sg263
g281
sg277
I1
sg278
F202.01523303985596
ssI83
(dp446
g8
F0.5180380344390869
sg268
S'./stimfiles/chinese_characters/29377.jpg'
p447
sg270
F204.0
sg271
g321
sg273
I8
sg274
I1
sg275
F1.0
sg263
g276
sg277
I0
sg278
F204.016047000885
ssI84
(dp448
g8
F0.6794450283050537
sg268
S'./stimfiles/chinese_characters/28686.jpg'
p449
sg270
F206.0
sg271
g321
sg273
I8
sg274
I1
sg275
F1.0
sg263
g276
sg277
I3
sg278
F206.01685094833374
ssI85
(dp450
g8
F0.634660005569458
sg268
S'./stimfiles/chinese_characters/26222.jpg'
p451
sg270
F208.0
sg271
g321
sg273
I8
sg274
I1
sg275
F1.0
sg263
g276
sg277
I0
sg278
F208.01766109466553
ssI86
(dp452
g8
F0.7058749198913574
sg268
S'./stimfiles/chinese_characters/29377.jpg'
p453
sg270
F210.0
sg271
g321
sg273
I8
sg274
I1
sg275
F1.0
sg263
g276
sg277
I3
sg278
F210.01850700378418
ssI87
(dp454
g8
F0.6230800151824951
sg268
S'./stimfiles/chinese_characters/29377.jpg'
p455
sg270
F212.0
sg271
g321
sg273
I8
sg274
I1
sg275
F1.0
sg263
g281
sg277
I1
sg278
F212.01933193206787
ssI88
(dp456
g8
F0.6103100776672363
sg268
S'./stimfiles/chinese_characters/25789.jpg'
p457
sg270
F214.0
sg271
g321
sg273
I8
sg274
I1
sg275
F1.0
sg263
g276
sg277
I0
sg278
F214.02012491226196
ssI89
(dp458
g8
F0.6326310634613037
sg268
S'./stimfiles/chinese_characters/24956.jpg'
p459
sg270
F216.0
sg271
g321
sg273
I8
sg274
I1
sg275
F1.0
sg263
g276
sg277
I0
sg278
F216.02092504501343
ssI90
(dp460
g8
F0.4349710941314697
sg268
S'./stimfiles/scenes/1330.jpg'
p461
sg270
F220.0
sg271
g272
sg273
I9
sg274
I2
sg275
F1.0
sg263
g276
sg277
I0
sg278
F220.02262496948242
ssI91
(dp462
g8
F0.5518989562988281
sg268
S'./stimfiles/scenes/1327.jpg'
p463
sg270
F222.0
sg271
g272
sg273
I9
sg274
I2
sg275
F1.0
sg263
g276
sg277
I0
sg278
F222.0067720413208
ssI92
(dp464
g8
F0.508958101272583
sg268
S'./stimfiles/scenes/1330.jpg'
p465
sg270
F224.0
sg271
g272
sg273
I9
sg274
I2
sg275
F1.0
sg263
g281
sg277
I2
sg278
F224.0076220035553
ssI93
(dp466
g8
F0.7244048118591309
sg268
S'./stimfiles/scenes/1330.jpg'
p467
sg270
F226.0
sg271
g272
sg273
I9
sg274
I2
sg275
F1.0
sg263
g276
sg277
I1
sg278
F226.00842308998108
ssI94
(dp468
g8
F0.6215550899505615
sg268
S'./stimfiles/scenes/1308.jpg'
p469
sg270
F228.0
sg271
g272
sg273
I9
sg274
I2
sg275
F1.0
sg263
g276
sg277
I0
sg278
F228.00925993919373
ssI95
(dp470
g8
F0.6048319339752197
sg268
S'./stimfiles/scenes/1330.jpg'
p471
sg270
F230.0
sg271
g272
sg273
I9
sg274
I2
sg275
F1.0
sg263
g281
sg277
I3
sg278
F230.01007604599
ssI96
(dp472
g8
F0.5250000953674316
sg268
S'./stimfiles/scenes/1225.jpg'
p473
sg270
F232.0
sg271
g272
sg273
I9
sg274
I2
sg275
F1.0
sg263
g276
sg277
I0
sg278
F232.01083493232727
ssI97
(dp474
g8
F0.5193660259246826
sg268
S'./stimfiles/scenes/1207.jpg'
p475
sg270
F234.0
sg271
g272
sg273
I9
sg274
I2
sg275
F1.0
sg263
g276
sg277
I0
sg278
F234.01165795326233
ssI98
(dp476
g8
F0.7814140319824219
sg268
S'./stimfiles/scenes/1225.jpg'
p477
sg270
F236.0
sg271
g272
sg273
I9
sg274
I2
sg275
F1.0
sg263
g281
sg277
I2
sg278
F236.01250195503235
ssI99
(dp478
g8
F0.5348308086395264
sg268
S'./stimfiles/scenes/430.jpg'
p479
sg270
F238.0
sg271
g272
sg273
I9
sg274
I2
sg275
F1.0
sg263
g276
sg277
I0
sg278
F238.0133330821991
ssI100
(dp480
g8
F0.6392309665679932
sg268
S'./stimfiles/faces/cropped_144.png'
p481
sg270
F242.0
sg271
g300
sg273
I10
sg274
I2
sg275
F1.0
sg263
g276
sg277
I0
sg278
F242.01500797271729
ssI101
(dp482
g8
F0.4994220733642578
sg268
S'./stimfiles/faces/cropped_144.png'
p483
sg270
F244.0
sg271
g300
sg273
I10
sg274
I2
sg275
F1.0
sg263
g276
sg277
I1
sg278
F244.01581001281738
ssI102
(dp484
g8
F0.6936378479003906
sg268
S'./stimfiles/faces/cropped_23MVC-003F.png'
p485
sg270
F246.0
sg271
g300
sg273
I10
sg274
I2
sg275
F1.0
sg263
g276
sg277
I0
sg278
F246.01660704612732
ssI103
(dp486
g8
F0.5559489727020264
sg268
S'./stimfiles/faces/cropped_144.png'
p487
sg270
F248.0
sg271
g300
sg273
I10
sg274
I2
sg275
F1.0
sg263
g281
sg277
I3
sg278
F248.01741909980774
ssI104
(dp488
g8
F0.6622359752655029
sg268
S'./stimfiles/faces/cropped_23MVC-003F.png'
p489
sg270
F250.0
sg271
g300
sg273
I10
sg274
I2
sg275
F1.0
sg263
g281
sg277
I2
sg278
F250.01825404167175
ssI105
(dp490
g8
F0.6064379215240479
sg268
S'./stimfiles/faces/cropped_m-060-01.png'
p491
sg270
F252.0
sg271
g300
sg273
I10
sg274
I2
sg275
F1.0
sg263
g276
sg277
I0
sg278
F252.01908802986145
ssI106
(dp492
g8
F0.6605148315429688
sg268
S'./stimfiles/faces/cropped_23MVC-003F.png'
p493
sg270
F254.0
sg271
g300
sg273
I10
sg274
I2
sg275
F1.0
sg263
g281
sg277
I2
sg278
F254.01993608474731
ssI107
(dp494
g8
F0.5718200206756592
sg268
S'./stimfiles/faces/cropped_927.png'
p495
sg270
F256.0
sg271
g300
sg273
I10
sg274
I2
sg275
F1.0
sg263
g276
sg277
I0
sg278
F256.0207939147949
ssI108
(dp496
g8
F0.7141461372375488
sg268
S'./stimfiles/faces/cropped_306.png'
p497
sg270
F258.0
sg271
g300
sg273
I10
sg274
I2
sg275
F1.0
sg263
g276
sg277
I0
sg278
F258.0215699672699
ssI109
(dp498
g8
F0.6503651142120361
sg268
S'./stimfiles/faces/cropped_374.png'
p499
sg270
F260.0
sg271
g300
sg273
I10
sg274
I2
sg275
F1.0
sg263
g276
sg277
I0
sg278
F260.0223939418793
ssI110
(dp500
g8
F0.5968630313873291
sg268
S'./stimfiles/chinese_characters/31645.jpg'
p501
sg270
F264.0
sg271
g321
sg273
I11
sg274
I2
sg275
F1.0
sg263
g276
sg277
I0
sg278
F264.0240159034729
ssI111
(dp502
g8
F0.40804600715637207
sg268
S'./stimfiles/chinese_characters/29777.jpg'
p503
sg270
F266.0
sg271
g321
sg273
I11
sg274
I2
sg275
F1.0
sg263
g276
sg277
I0
sg278
F266.0249059200287
ssI112
(dp504
g8
F0.9723589420318604
sg268
S'./stimfiles/chinese_characters/29777.jpg'
p505
sg270
F268.0
sg271
g321
sg273
I11
sg274
I2
sg275
F1.0
sg263
g276
sg277
I1
sg278
F268.025691986084
ssI113
(dp506
g8
F0.6936111450195312
sg268
S'./stimfiles/chinese_characters/29925.jpg'
p507
sg270
F270.0
sg271
g321
sg273
I11
sg274
I2
sg275
F1.0
sg263
g276
sg277
I0
sg278
F270.02644896507263
ssI114
(dp508
g8
F0.659416913986206
sg268
S'./stimfiles/chinese_characters/35614.jpg'
p509
sg270
F272.0
sg271
g321
sg273
I11
sg274
I2
sg275
F1.0
sg263
g276
sg277
I0
sg278
F272.01070499420166
ssI115
(dp510
g8
F0.594649076461792
sg268
S'./stimfiles/chinese_characters/29925.jpg'
p511
sg270
F274.0
sg271
g321
sg273
I11
sg274
I2
sg275
F1.0
sg263
g281
sg277
I2
sg278
F274.0115089416504
ssI116
(dp512
g8
F0.7319581508636475
sg268
S'./stimfiles/chinese_characters/35614.jpg'
p513
sg270
F276.0
sg271
g321
sg273
I11
sg274
I2
sg275
F1.0
sg263
g276
sg277
I2
sg278
F276.01226592063904
ssI117
(dp514
g8
F0.7352120876312256
sg268
S'./stimfiles/chinese_characters/29740.jpg'
p515
sg270
F278.0
sg271
g321
sg273
I11
sg274
I2
sg275
F1.0
sg263
g276
sg277
I0
sg278
F278.0130989551544
ssI118
(dp516
g8
F0.719459056854248
sg268
S'./stimfiles/chinese_characters/29926.jpg'
p517
sg270
F280.0
sg271
g321
sg273
I11
sg274
I2
sg275
F1.0
sg263
g276
sg277
I0
sg278
F280.0138928890228
ssI119
(dp518
g8
F0.7487001419067383
sg268
S'./stimfiles/chinese_characters/29926.jpg'
p519
sg270
F282.0
sg271
g321
sg273
I11
sg274
I2
sg275
F1.0
sg263
g276
sg277
I1
sg278
F282.01474690437317
ssI120
(dp520
g8
F0.6571540832519531
sg268
S'./stimfiles/scenes/1511.jpg'
p521
sg270
F306.0
sg271
g272
sg273
I12
sg274
I1
sg275
F1.0
sg263
g276
sg277
I0
sg278
F306.007936000824
ssI121
(dp522
g8
F0.5383939743041992
sg268
S'./stimfiles/scenes/1463.jpg'
p523
sg270
F308.0
sg271
g272
sg273
I12
sg274
I1
sg275
F1.0
sg263
g276
sg277
I0
sg278
F308.0087890625
ssI122
(dp524
g8
F0.5906529426574707
sg268
S'./stimfiles/scenes/1451.jpg'
p525
sg270
F310.0
sg271
g272
sg273
I12
sg274
I1
sg275
F1.0
sg263
g276
sg277
I0
sg278
F310.00960898399353
ssI123
(dp526
g8
F0.5438029766082764
sg268
S'./stimfiles/scenes/1463.jpg'
p527
sg270
F312.0
sg271
g272
sg273
I12
sg274
I1
sg275
F1.0
sg263
g276
sg277
I2
sg278
F312.0104069709778
ssI124
(dp528
g8
F0.5610508918762207
sg268
S'./stimfiles/scenes/1463.jpg'
p529
sg270
F314.0
sg271
g272
sg273
I12
sg274
I1
sg275
F1.0
sg263
g281
sg277
I1
sg278
F314.01122403144836
ssI125
(dp530
g8
F0.5821669101715088
sg268
S'./stimfiles/scenes/1514.jpg'
p531
sg270
F316.0
sg271
g272
sg273
I12
sg274
I1
sg275
F1.0
sg263
g276
sg277
I0
sg278
F316.0122060775757
ssI126
(dp532
g8
F0.6595380306243896
sg268
S'./stimfiles/scenes/1514.jpg'
p533
sg270
F318.0
sg271
g272
sg273
I12
sg274
I1
sg275
F1.0
sg263
g281
sg277
I1
sg278
F318.01292300224304
ssI127
(dp534
g8
F0.5605020523071289
sg268
S'./stimfiles/scenes/508.jpg'
p535
sg270
F320.0
sg271
g272
sg273
I12
sg274
I1
sg275
F1.0
sg263
g276
sg277
I0
sg278
F320.0137710571289
ssI128
(dp536
g8
F0.5948610305786133
sg268
S'./stimfiles/scenes/508.jpg'
p537
sg270
F322.0
sg271
g272
sg273
I12
sg274
I1
sg275
F1.0
sg263
g281
sg277
I1
sg278
F322.0145149230957
ssI129
(dp538
g8
F0.6162810325622559
sg268
S'./stimfiles/scenes/1132.jpg'
p539
sg270
F324.0
sg271
g272
sg273
I12
sg274
I1
sg275
F1.0
sg263
g276
sg277
I0
sg278
F324.01533603668213
ssI130
(dp540
g8
F0.6356410980224609
sg268
S'./stimfiles/faces/cropped_99.png'
p541
sg270
F328.0
sg271
g300
sg273
I13
sg274
I1
sg275
F1.0
sg263
g276
sg277
I0
sg278
F328.01705598831177
ssI131
(dp542
g8
F0.8439161777496338
sg268
S'./stimfiles/faces/cropped_00541011.png'
p543
sg270
F330.0
sg271
g300
sg273
I13
sg274
I1
sg275
F1.0
sg263
g276
sg277
I0
sg278
F330.0178599357605
ssI132
(dp544
g8
F0.6080691814422607
sg268
S'./stimfiles/faces/cropped_00541011.png'
p545
sg270
F332.0
sg271
g300
sg273
I13
sg274
I1
sg275
F1.0
sg263
g281
sg277
I1
sg278
F332.0186688899994
ssI133
(dp546
g8
F0.6042208671569824
sg268
S'./stimfiles/faces/cropped_708.png'
p547
sg270
F334.0
sg271
g300
sg273
I13
sg274
I1
sg275
F1.0
sg263
g276
sg277
I0
sg278
F334.0195050239563
ssI134
(dp548
g8
F0.6876981258392334
sg268
S'./stimfiles/faces/cropped_708.png'
p549
sg270
F336.0
sg271
g300
sg273
I13
sg274
I1
sg275
F1.0
sg263
g281
sg277
I1
sg278
F336.0202579498291
ssI135
(dp550
g8
F0.6018111705780029
sg268
S'./stimfiles/faces/cropped_00541011.png'
p551
sg270
F338.0
sg271
g300
sg273
I13
sg274
I1
sg275
F1.0
sg263
g276
sg277
I3
sg278
F338.0211079120636
ssI136
(dp552
g8
F0.6681320667266846
sg268
S'./stimfiles/faces/cropped_00541011.png'
p553
sg270
F340.0
sg271
g300
sg273
I13
sg274
I1
sg275
F1.0
sg263
g281
sg277
I1
sg278
F340.0219180583954
ssI137
(dp554
g8
F0.6873798370361328
sg268
S'./stimfiles/faces/cropped_m-040-01.png'
p555
sg270
F342.0
sg271
g300
sg273
I13
sg274
I1
sg275
F1.0
sg263
g276
sg277
I0
sg278
F342.0227460861206
ssI138
(dp556
g8
F0.8525159358978271
sg268
S'./stimfiles/faces/cropped_m-040-01.png'
p557
sg270
F344.0
sg271
g300
sg273
I13
sg274
I1
sg275
F1.0
sg263
g281
sg277
I1
sg278
F344.0236430168152
ssI139
(dp558
g8
F0.7836759090423584
sg268
S'./stimfiles/faces/cropped_865.png'
p559
sg270
F346.0
sg271
g300
sg273
I13
sg274
I1
sg275
F1.0
sg263
g276
sg277
I0
sg278
F346.0244719982147
ssI140
(dp560
g8
F0.5842018127441406
sg268
S'./stimfiles/chinese_characters/24828.jpg'
p561
sg270
F350.0
sg271
g321
sg273
I14
sg274
I1
sg275
F1.0
sg263
g276
sg277
I0
sg278
F350.0260651111603
ssI141
(dp562
g8
F0.6021990776062012
sg268
S'./stimfiles/chinese_characters/26864.jpg'
p563
sg270
F352.0
sg271
g321
sg273
I14
sg274
I1
sg275
F1.0
sg263
g276
sg277
I0
sg278
F352.0269069671631
ssI142
(dp564
g8
F0.49634695053100586
sg268
S'./stimfiles/chinese_characters/24920.jpg'
p565
sg270
F354.0
sg271
g321
sg273
I14
sg274
I1
sg275
F1.0
sg263
g276
sg277
I0
sg278
F354.0110321044922
ssI143
(dp566
g8
F0.4786560535430908
sg268
S'./stimfiles/chinese_characters/24920.jpg'
p567
sg270
F356.0
sg271
g321
sg273
I14
sg274
I1
sg275
F1.0
sg263
g281
sg277
I1
sg278
F356.0118339061737
ssI144
(dp568
g8
F0.4878580570220947
sg268
S'./stimfiles/chinese_characters/29829.jpg'
p569
sg270
F358.0
sg271
g321
sg273
I14
sg274
I1
sg275
F1.0
sg263
g276
sg277
I0
sg278
F358.0126678943634
ssI145
(dp570
g8
F0.7880527973175049
sg268
S'./stimfiles/chinese_characters/29829.jpg'
p571
sg270
F360.0
sg271
g321
sg273
I14
sg274
I1
sg275
F1.0
sg263
g281
sg277
I1
sg278
F360.01359510421753
ssI146
(dp572
g8
F0.5833859443664551
sg268
S'./stimfiles/chinese_characters/29411.jpg'
p573
sg270
F362.0
sg271
g321
sg273
I14
sg274
I1
sg275
F1.0
sg263
g276
sg277
I0
sg278
F362.01435899734497
ssI147
(dp574
g8
F0.6626729965209961
sg268
S'./stimfiles/chinese_characters/31390.jpg'
p575
sg270
F364.0
sg271
g321
sg273
I14
sg274
I1
sg275
F1.0
sg263
g276
sg277
I0
sg278
F364.01508498191833
ssI148
(dp576
g8
F0.5026941299438477
sg268
S'./stimfiles/chinese_characters/31390.jpg'
p577
sg270
F366.0
sg271
g321
sg273
I14
sg274
I1
sg275
F1.0
sg263
g281
sg277
I1
sg278
F366.01598596572876
ssI149
(dp578
g8
F0.6689510345458984
sg268
S'./stimfiles/chinese_characters/31390.jpg'
p579
sg270
F368.0
sg271
g321
sg273
I14
sg274
I1
sg275
F1.0
sg263
g281
sg277
I1
sg278
F368.01677989959717
ssI150
(dp580
g8
F0.5255401134490967
sg268
S'./stimfiles/scenes/1317.jpg'
p581
sg270
F372.0
sg271
g272
sg273
I15
sg274
I2
sg275
F1.0
sg263
g276
sg277
I0
sg278
F372.01846194267273
ssI151
(dp582
g8
F0.8967328071594238
sg268
S'./stimfiles/scenes/1317.jpg'
p583
sg270
F374.0
sg271
g272
sg273
I15
sg274
I2
sg275
F1.0
sg263
g276
sg277
I1
sg278
F374.01922512054443
ssI152
(dp584
g8
F0.5862030982971191
sg268
S'./stimfiles/scenes/1900.jpg'
p585
sg270
F376.0
sg271
g272
sg273
I15
sg274
I2
sg275
F1.0
sg263
g276
sg277
I0
sg278
F376.02009296417236
ssI153
(dp586
g8
F0.8803920745849609
sg268
S'./stimfiles/scenes/1627.jpg'
p587
sg270
F378.0
sg271
g272
sg273
I15
sg274
I2
sg275
F1.0
sg263
g276
sg277
I0
sg278
F378.02082800865173
ssI154
(dp588
g8
F0.5434041023254395
sg268
S'./stimfiles/scenes/1900.jpg'
p589
sg270
F380.0
sg271
g272
sg273
I15
sg274
I2
sg275
F1.0
sg263
g281
sg277
I2
sg278
F380.0217299461365
ssI155
(dp590
g8
F0.6087260246276855
sg268
S'./stimfiles/scenes/1627.jpg'
p591
sg270
F382.0
sg271
g272
sg273
I15
sg274
I2
sg275
F1.0
sg263
g281
sg277
I2
sg278
F382.0225510597229
ssI156
(dp592
g8
F0.6108429431915283
sg268
S'./stimfiles/scenes/866.jpg'
p593
sg270
F384.0
sg271
g272
sg273
I15
sg274
I2
sg275
F1.0
sg263
g276
sg277
I0
sg278
F384.0233690738678
ssI157
(dp594
g8
F0.7298200130462646
sg268
S'./stimfiles/scenes/866.jpg'
p595
sg270
F386.0
sg271
g272
sg273
I15
sg274
I2
sg275
F1.0
sg263
g276
sg277
I1
sg278
F386.00752305984497
ssI158
(dp596
g8
F0.633051872253418
sg268
S'./stimfiles/scenes/839.jpg'
p597
sg270
F388.0
sg271
g272
sg273
I15
sg274
I2
sg275
F1.0
sg263
g276
sg277
I0
sg278
F388.00832509994507
ssI159
(dp598
g8
F0.48137617111206055
sg268
S'./stimfiles/scenes/866.jpg'
p599
sg270
F390.0
sg271
g272
sg273
I15
sg274
I2
sg275
F1.0
sg263
g281
sg277
I3
sg278
F390.00910091400146
ssI160
(dp600
g8
F0.5950260162353516
sg268
S'./stimfiles/faces/cropped_191.png'
p601
sg270
F394.0
sg271
g300
sg273
I16
sg274
I2
sg275
F1.0
sg263
g276
sg277
I0
sg278
F394.0275149345398
ssI161
(dp602
g8
F0.5020289421081543
sg268
S'./stimfiles/faces/cropped_58a.png'
p603
sg270
F396.0
sg271
g300
sg273
I16
sg274
I2
sg275
F1.0
sg263
g276
sg277
I0
sg278
F396.0116081237793
ssI162
(dp604
g8
F0.7412998676300049
sg268
S'./stimfiles/faces/cropped_58a.png'
p605
sg270
F398.0
sg271
g300
sg273
I16
sg274
I2
sg275
F1.0
sg263
g276
sg277
I1
sg278
F398.01240706443787
ssI163
(dp606
g8
F0.7155208587646484
sg268
S'./stimfiles/faces/cropped_562.png'
p607
sg270
F400.0
sg271
g300
sg273
I16
sg274
I2
sg275
F1.0
sg263
g276
sg277
I0
sg278
F400.01331305503845
ssI164
(dp608
g8
F0.5086290836334229
sg268
S'./stimfiles/faces/cropped_58a.png'
p609
sg270
F402.0
sg271
g300
sg273
I16
sg274
I2
sg275
F1.0
sg263
g281
sg277
I2
sg278
F402.0141439437866
ssI165
(dp610
g8
F0.6109409332275391
sg268
S'./stimfiles/faces/cropped_844.png'
p611
sg270
F404.0
sg271
g300
sg273
I16
sg274
I2
sg275
F1.0
sg263
g276
sg277
I0
sg278
F404.01492404937744
ssI166
(dp612
g8
F0.6124968528747559
sg268
S'./stimfiles/faces/cropped_562.png'
p613
sg270
F406.0
sg271
g300
sg273
I16
sg274
I2
sg275
F1.0
sg263
g276
sg277
I3
sg278
F406.01575207710266
ssI167
(dp614
g8
F0.6682629585266113
sg268
S'./stimfiles/faces/cropped_f-006-01.png'
p615
sg270
F408.0
sg271
g300
sg273
I16
sg274
I2
sg275
F1.0
sg263
g276
sg277
I0
sg278
F408.0167109966278
ssI168
(dp616
g8
F0.666719913482666
sg268
S'./stimfiles/faces/cropped_18f_mvc-001f.png'
p617
sg270
F410.0
sg271
g300
sg273
I16
sg274
I2
sg275
F1.0
sg263
g276
sg277
I0
sg278
F410.01732110977173
ssI169
(dp618
g8
F0.6519978046417236
sg268
S'./stimfiles/faces/cropped_tracy1.png'
p619
sg270
F412.0
sg271
g300
sg273
I16
sg274
I2
sg275
F1.0
sg263
g276
sg277
I0
sg278
F412.01816511154175
ssI170
(dp620
g8
F0.5743119716644287
sg268
S'./stimfiles/chinese_characters/25363.jpg'
p621
sg270
F416.0
sg271
g321
sg273
I17
sg274
I2
sg275
F1.0
sg263
g276
sg277
I0
sg278
F416.0198791027069
ssI171
(dp622
g8
F0.6776838302612305
sg268
S'./stimfiles/chinese_characters/24656.jpg'
p623
sg270
F418.0
sg271
g321
sg273
I17
sg274
I2
sg275
F1.0
sg263
g276
sg277
I0
sg278
F418.0206251144409
ssI172
(dp624
g8
F0.6020298004150391
sg268
S'./stimfiles/chinese_characters/25363.jpg'
p625
sg270
F420.0
sg271
g321
sg273
I17
sg274
I2
sg275
F1.0
sg263
g281
sg277
I2
sg278
F420.02145409584045
ssI173
(dp626
g8
F0.7871441841125488
sg268
S'./stimfiles/chinese_characters/24656.jpg'
p627
sg270
F422.0
sg271
g321
sg273
I17
sg274
I2
sg275
F1.0
sg263
g281
sg277
I2
sg278
F422.02235889434814
ssI174
(dp628
g8
F0.6393530368804932
sg268
S'./stimfiles/chinese_characters/32086.jpg'
p629
sg270
F424.0
sg271
g321
sg273
I17
sg274
I2
sg275
F1.0
sg263
g276
sg277
I0
sg278
F424.0231409072876
ssI175
(dp630
g8
F0.6515359878540039
sg268
S'./stimfiles/chinese_characters/25469.jpg'
p631
sg270
F426.0
sg271
g321
sg273
I17
sg274
I2
sg275
F1.0
sg263
g276
sg277
I0
sg278
F426.0239350795746
ssI176
(dp632
g8
F0.7708408832550049
sg268
S'./stimfiles/chinese_characters/24656.jpg'
p633
sg270
F428.0
sg271
g321
sg273
I17
sg274
I2
sg275
F1.0
sg263
g276
sg277
I3
sg278
F428.02479004859924
ssI177
(dp634
g8
F0.820019006729126
sg268
S'./stimfiles/chinese_characters/32086.jpg'
p635
sg270
F430.0
sg271
g321
sg273
I17
sg274
I2
sg275
F1.0
sg263
g276
sg277
I3
sg278
F430.02557706832886
ssI178
(dp636
g8
F0.7552051544189453
sg268
S'./stimfiles/chinese_characters/31652.jpg'
p637
sg270
F432.0
sg271
g321
sg273
I17
sg274
I2
sg275
F1.0
sg263
g276
sg277
I0
sg278
F432.02646493911743
ssI179
(dp638
g8
F0.8785011768341064
sg268
S'./stimfiles/chinese_characters/24656.jpg'
p639
sg270
F434.0
sg271
g321
sg273
I17
sg274
I2
sg275
F1.0
sg263
g276
sg277
I3
sg278
F434.0272629261017
sssS'stim_log'
p640
(dp641
sS'nstims'
p642
I5
sS'inter_stim_int'
p643
F1.0
sS'SS'
p644
(dp645
sS'inst_time'
p646
F1.0
sS'broke_on_trial'
p647
(dp648
sS'events'
p649
(lp650
(lp651
F0.0
aI0
aI1
aI0
aS'inst'
p652
aa(lp653
F2.0
aI0
aI1
aI0
ag269
aa(lp654
F4.0
aI0
aI1
aI1
ag280
aa(lp655
F6.0
aI0
aI1
aI1
ag283
aa(lp656
F8.0
aI0
aI1
aI0
ag285
aa(lp657
F10.0
aI0
aI1
aI3
ag287
aa(lp658
F12.0
aI0
aI1
aI0
ag289
aa(lp659
F14.0
aI0
aI1
aI0
ag291
aa(lp660
F16.0
aI0
aI1
aI3
ag293
aa(lp661
F18.0
aI0
aI1
aI0
ag295
aa(lp662
F20.0
aI0
aI1
aI2
ag297
aa(lp663
F22.0
aI1
aI1
aI0
aS'inst'
p664
aa(lp665
F24.0
aI1
aI1
aI0
ag299
aa(lp666
F26.0
aI1
aI1
aI0
ag302
aa(lp667
F28.0
aI1
aI1
aI0
ag304
aa(lp668
F30.0
aI1
aI1
aI0
ag306
aa(lp669
F32.0
aI1
aI1
aI0
ag308
aa(lp670
F34.0
aI1
aI1
aI2
ag310
aa(lp671
F36.0
aI1
aI1
aI1
ag312
aa(lp672
F38.0
aI1
aI1
aI0
ag314
aa(lp673
F40.0
aI1
aI1
aI0
ag316
aa(lp674
F42.0
aI1
aI1
aI3
ag318
aa(lp675
F44.0
aI2
aI1
aI0
aS'inst'
p676
aa(lp677
F46.0
aI2
aI1
aI0
ag320
aa(lp678
F48.0
aI2
aI1
aI0
ag323
aa(lp679
F50.0
aI2
aI1
aI0
ag325
aa(lp680
F52.0
aI2
aI1
aI2
ag327
aa(lp681
F54.0
aI2
aI1
aI2
ag329
aa(lp682
F56.0
aI2
aI1
aI0
ag331
aa(lp683
F58.0
aI2
aI1
aI0
ag333
aa(lp684
F60.0
aI2
aI1
aI2
ag335
aa(lp685
F62.0
aI2
aI1
aI0
ag337
aa(lp686
F64.0
aI2
aI1
aI3
ag339
aa(lp687
F66.0
aI3
aI2
aI0
aS'inst'
p688
aa(lp689
F68.0
aI3
aI2
aI0
ag341
aa(lp690
F70.0
aI3
aI2
aI0
ag343
aa(lp691
F72.0
aI3
aI2
aI0
ag345
aa(lp692
F74.0
aI3
aI2
aI0
ag347
aa(lp693
F76.0
aI3
aI2
aI3
ag349
aa(lp694
F78.0
aI3
aI2
aI2
ag351
aa(lp695
F80.0
aI3
aI2
aI0
ag353
aa(lp696
F82.0
aI3
aI2
aI0
ag355
aa(lp697
F84.0
aI3
aI2
aI0
ag357
aa(lp698
F86.0
aI3
aI2
aI2
ag359
aa(lp699
F88.0
aI4
aI2
aI0
aS'inst'
p700
aa(lp701
F90.0
aI4
aI2
aI0
ag361
aa(lp702
F92.0
aI4
aI2
aI0
ag363
aa(lp703
F94.0
aI4
aI2
aI1
ag365
aa(lp704
F96.0
aI4
aI2
aI3
ag367
aa(lp705
F98.0
aI4
aI2
aI2
ag369
aa(lp706
F100.0
aI4
aI2
aI0
ag371
aa(lp707
F102.0
aI4
aI2
aI0
ag373
aa(lp708
F104.0
aI4
aI2
aI2
ag375
aa(lp709
F106.0
aI4
aI2
aI0
ag377
aa(lp710
F108.0
aI4
aI2
aI2
ag379
aa(lp711
F110.0
aI5
aI2
aI0
aS'inst'
p712
aa(lp713
F112.0
aI5
aI2
aI0
ag381
aa(lp714
F114.0
aI5
aI2
aI0
ag383
aa(lp715
F116.0
aI5
aI2
aI2
ag385
aa(lp716
F118.0
aI5
aI2
aI0
ag387
aa(lp717
F120.0
aI5
aI2
aI2
ag389
aa(lp718
F122.0
aI5
aI2
aI0
ag391
aa(lp719
F124.0
aI5
aI2
aI1
ag393
aa(lp720
F126.0
aI5
aI2
aI0
ag395
aa(lp721
F128.0
aI5
aI2
aI0
ag397
aa(lp722
F130.0
aI5
aI2
aI0
ag399
aa(lp723
F152.0
aI0
aI1
aI0
aS'inst'
p724
aa(lp725
F154.0
aI6
aI1
aI0
ag401
aa(lp726
F156.0
aI6
aI1
aI0
ag403
aa(lp727
F158.0
aI6
aI1
aI0
ag405
aa(lp728
F160.0
aI6
aI1
aI0
ag407
aa(lp729
F162.0
aI6
aI1
aI0
ag409
aa(lp730
F164.0
aI6
aI1
aI3
ag411
aa(lp731
F166.0
aI6
aI1
aI2
ag413
aa(lp732
F168.0
aI6
aI1
aI1
ag415
aa(lp733
F170.0
aI6
aI1
aI0
ag417
aa(lp734
F172.0
aI6
aI1
aI0
ag419
aa(lp735
F174.0
aI1
aI1
aI0
aS'inst'
p736
aa(lp737
F176.0
aI7
aI1
aI0
ag421
aa(lp738
F178.0
aI7
aI1
aI1
ag423
aa(lp739
F180.0
aI7
aI1
aI0
ag425
aa(lp740
F182.0
aI7
aI1
aI3
ag427
aa(lp741
F184.0
aI7
aI1
aI0
ag429
aa(lp742
F186.0
aI7
aI1
aI2
ag431
aa(lp743
F188.0
aI7
aI1
aI0
ag433
aa(lp744
F190.0
aI7
aI1
aI0
ag435
aa(lp745
F192.0
aI7
aI1
aI2
ag437
aa(lp746
F194.0
aI7
aI1
aI0
ag439
aa(lp747
F196.0
aI2
aI1
aI0
aS'inst'
p748
aa(lp749
F198.0
aI8
aI1
aI0
ag441
aa(lp750
F200.0
aI8
aI1
aI0
ag443
aa(lp751
F202.0
aI8
aI1
aI1
ag445
aa(lp752
F204.0
aI8
aI1
aI0
ag447
aa(lp753
F206.0
aI8
aI1
aI3
ag449
aa(lp754
F208.0
aI8
aI1
aI0
ag451
aa(lp755
F210.0
aI8
aI1
aI3
ag453
aa(lp756
F212.0
aI8
aI1
aI1
ag455
aa(lp757
F214.0
aI8
aI1
aI0
ag457
aa(lp758
F216.0
aI8
aI1
aI0
ag459
aa(lp759
F218.0
aI3
aI2
aI0
aS'inst'
p760
aa(lp761
F220.0
aI9
aI2
aI0
ag461
aa(lp762
F222.0
aI9
aI2
aI0
ag463
aa(lp763
F224.0
aI9
aI2
aI2
ag465
aa(lp764
F226.0
aI9
aI2
aI1
ag467
aa(lp765
F228.0
aI9
aI2
aI0
ag469
aa(lp766
F230.0
aI9
aI2
aI3
ag471
aa(lp767
F232.0
aI9
aI2
aI0
ag473
aa(lp768
F234.0
aI9
aI2
aI0
ag475
aa(lp769
F236.0
aI9
aI2
aI2
ag477
aa(lp770
F238.0
aI9
aI2
aI0
ag479
aa(lp771
F240.0
aI4
aI2
aI0
aS'inst'
p772
aa(lp773
F242.0
aI10
aI2
aI0
ag481
aa(lp774
F244.0
aI10
aI2
aI1
ag483
aa(lp775
F246.0
aI10
aI2
aI0
ag485
aa(lp776
F248.0
aI10
aI2
aI3
ag487
aa(lp777
F250.0
aI10
aI2
aI2
ag489
aa(lp778
F252.0
aI10
aI2
aI0
ag491
aa(lp779
F254.0
aI10
aI2
aI2
ag493
aa(lp780
F256.0
aI10
aI2
aI0
ag495
aa(lp781
F258.0
aI10
aI2
aI0
ag497
aa(lp782
F260.0
aI10
aI2
aI0
ag499
aa(lp783
F262.0
aI5
aI2
aI0
aS'inst'
p784
aa(lp785
F264.0
aI11
aI2
aI0
ag501
aa(lp786
F266.0
aI11
aI2
aI0
ag503
aa(lp787
F268.0
aI11
aI2
aI1
ag505
aa(lp788
F270.0
aI11
aI2
aI0
ag507
aa(lp789
F272.0
aI11
aI2
aI0
ag509
aa(lp790
F274.0
aI11
aI2
aI2
ag511
aa(lp791
F276.0
aI11
aI2
aI2
ag513
aa(lp792
F278.0
aI11
aI2
aI0
ag515
aa(lp793
F280.0
aI11
aI2
aI0
ag517
aa(lp794
F282.0
aI11
aI2
aI1
ag519
aa(lp795
F304.0
aI0
aI1
aI0
aS'inst'
p796
aa(lp797
F306.0
aI12
aI1
aI0
ag521
aa(lp798
F308.0
aI12
aI1
aI0
ag523
aa(lp799
F310.0
aI12
aI1
aI0
ag525
aa(lp800
F312.0
aI12
aI1
aI2
ag527
aa(lp801
F314.0
aI12
aI1
aI1
ag529
aa(lp802
F316.0
aI12
aI1
aI0
ag531
aa(lp803
F318.0
aI12
aI1
aI1
ag533
aa(lp804
F320.0
aI12
aI1
aI0
ag535
aa(lp805
F322.0
aI12
aI1
aI1
ag537
aa(lp806
F324.0
aI12
aI1
aI0
ag539
aa(lp807
F326.0
aI1
aI1
aI0
aS'inst'
p808
aa(lp809
F328.0
aI13
aI1
aI0
ag541
aa(lp810
F330.0
aI13
aI1
aI0
ag543
aa(lp811
F332.0
aI13
aI1
aI1
ag545
aa(lp812
F334.0
aI13
aI1
aI0
ag547
aa(lp813
F336.0
aI13
aI1
aI1
ag549
aa(lp814
F338.0
aI13
aI1
aI3
ag551
aa(lp815
F340.0
aI13
aI1
aI1
ag553
aa(lp816
F342.0
aI13
aI1
aI0
ag555
aa(lp817
F344.0
aI13
aI1
aI1
ag557
aa(lp818
F346.0
aI13
aI1
aI0
ag559
aa(lp819
F348.0
aI2
aI1
aI0
aS'inst'
p820
aa(lp821
F350.0
aI14
aI1
aI0
ag561
aa(lp822
F352.0
aI14
aI1
aI0
ag563
aa(lp823
F354.0
aI14
aI1
aI0
ag565
aa(lp824
F356.0
aI14
aI1
aI1
ag567
aa(lp825
F358.0
aI14
aI1
aI0
ag569
aa(lp826
F360.0
aI14
aI1
aI1
ag571
aa(lp827
F362.0
aI14
aI1
aI0
ag573
aa(lp828
F364.0
aI14
aI1
aI0
ag575
aa(lp829
F366.0
aI14
aI1
aI1
ag577
aa(lp830
F368.0
aI14
aI1
aI1
ag579
aa(lp831
F370.0
aI3
aI2
aI0
aS'inst'
p832
aa(lp833
F372.0
aI15
aI2
aI0
ag581
aa(lp834
F374.0
aI15
aI2
aI1
ag583
aa(lp835
F376.0
aI15
aI2
aI0
ag585
aa(lp836
F378.0
aI15
aI2
aI0
ag587
aa(lp837
F380.0
aI15
aI2
aI2
ag589
aa(lp838
F382.0
aI15
aI2
aI2
ag591
aa(lp839
F384.0
aI15
aI2
aI0
ag593
aa(lp840
F386.0
aI15
aI2
aI1
ag595
aa(lp841
F388.0
aI15
aI2
aI0
ag597
aa(lp842
F390.0
aI15
aI2
aI3
ag599
aa(lp843
F392.0
aI4
aI2
aI0
aS'inst'
p844
aa(lp845
F394.0
aI16
aI2
aI0
ag601
aa(lp846
F396.0
aI16
aI2
aI0
ag603
aa(lp847
F398.0
aI16
aI2
aI1
ag605
aa(lp848
F400.0
aI16
aI2
aI0
ag607
aa(lp849
F402.0
aI16
aI2
aI2
ag609
aa(lp850
F404.0
aI16
aI2
aI0
ag611
aa(lp851
F406.0
aI16
aI2
aI3
ag613
aa(lp852
F408.0
aI16
aI2
aI0
ag615
aa(lp853
F410.0
aI16
aI2
aI0
ag617
aa(lp854
F412.0
aI16
aI2
aI0
ag619
aa(lp855
F414.0
aI5
aI2
aI0
aS'inst'
p856
aa(lp857
F416.0
aI17
aI2
aI0
ag621
aa(lp858
F418.0
aI17
aI2
aI0
ag623
aa(lp859
F420.0
aI17
aI2
aI2
ag625
aa(lp860
F422.0
aI17
aI2
aI2
ag627
aa(lp861
F424.0
aI17
aI2
aI0
ag629
aa(lp862
F426.0
aI17
aI2
aI0
ag631
aa(lp863
F428.0
aI17
aI2
aI3
ag633
aa(lp864
F430.0
aI17
aI2
aI3
ag635
aa(lp865
F432.0
aI17
aI2
aI0
ag637
aa(lp866
F434.0
aI17
aI2
aI3
ag639
aasS'is_this_SS_trial'
p867
(dp868
sS'subcode'
p869
S'self_tracking_0061'
p870
sS'start_key'
p871
S'5'
p872
s.