(dp0
S'stim_onset_time'
p1
(dp2
sS'datestamp'
p3
S'2013-02-21-07_35_01'
p4
sS'ntrials_per_block'
p5
I6
sS'expt_title'
p6
S'Self_Tracking'
p7
sS'rt'
p8
(dp9
sS'simulated_response'
p10
I00
sS'script'
p11
(lp12
S'#!/usr/bin/env python\n'
p13
aS'\n'
p14
aS'import psychopy\n'
p15
aS'from psychopy import visual, core, event, logging, data, misc, sound\n'
p16
aS'import numpy as N\n'
p17
aS'import pickle,csv\n'
p18
aS'import datetime\n'
p19
aS'import sys\n'
p20
aS'import os, socket, random\n'
p21
aS'import inspect\n'
p22
aS'import hashlib\n'
p23
aS'from socket import gethostname\n'
p24
aS'import exptutils\n'
p25
aS'from exptutils import *\n'
p26
aS'from pylab import imread\n'
p27
ag14
aS'try:\n'
p28
aS'    from save_data_to_db import *\n'
p29
aS'    save_data=1\n'
p30
aS'except:\n'
p31
aS"    print 'cannnot import save_data_to_db'\n"
p32
aS'    save_data=0\n'
p33
ag14
aS'def store_scriptfile():\n'
p34
aS'    scriptfile= inspect.getfile(inspect.currentframe())# save a copy of the script in the data file\n'
p35
aS'    f=open(scriptfile)\n'
p36
aS'    script=f.readlines()\n'
p37
aS'    f.close()\n'
p38
aS'    return script\n'
p39
ag14
aS'#\n'
p40
aS'#- - - - - - - - - - - - - - - - - - - - - - - - - - - - - - - - - - - - - - - - - - - - - - - - - - - - - - - - - - - - - - - - - - - - - - - - - - - - - -\n'
p41
aS'#define functions for awaiting keyboard input & displaying initial instructions\n'
p42
aS'#these functions will be called prior to the stim_block() function (at bottom)\n'
p43
ag14
aS'def wait_for_trigger():\n'
p44
aS'    event.clearEvents()\n'
p45
aS"    if subdata['simulated_response']:\n"
p46
aS'        msg="SIMULATION MODE"\n'
p47
aS'    else:\n'
p48
aS"        msg=''\n"
p49
aS"    message=visual.TextStim(win, text='%s Waiting for start key (or press %s)'%(msg,subdata['start_key']),\n"
p50
aS"    font='BiauKai', height=1,color=u'white', colorSpace=u'rgb', opacity=1,depth=0.0,\n"
p51
aS"    alignHoriz='center',wrapWidth=50)\n"
p52
aS'    message.setAutoDraw(True) #automatically draw every frame\n'
p53
aS'    win.flip()\n'
p54
aS'    start=False\n'
p55
aS'    while start==False:\n'
p56
aS'        k=event.waitKeys()\n'
p57
aS"        if k.count(subdata['start_key'])>0:#as soon as subdata['start_key'] is pressed...\n"
p58
aS'            start=True\n'
p59
aS"            message.setText('')#this clears the screen\n"
p60
aS'            win.flip()\n'
p61
aS"        if k.count(subdata['quit_key']) >0:# if subdata['quit_key'] is pressed...\n"
p62
aS'            exptutils.shut_down_cleanly(subdata,win)\n'
p63
aS'            return subdata\n'
p64
aS'            \n'
p65
aS"def instructions(n,duration):#n here changes depending on the n-back level; yes/no will also switch between 'u' & 'i' keys depending on the Order number selected\n"
p66
aS'    event.clearEvents()\n'
p67
aS"    instructions=visual.TextStim(win=win, ori=0, name='instructions',font='BiauKai',\n"
p68
aS"        text='%d back'%n,\n"
p69
aS"        height=2,color=u'white', colorSpace=u'rgb', alignHoriz='center',wrapWidth=50)\n"
p70
aS'    instructions.setAutoDraw(True)\n'
p71
aS'    win.flip()\n'
p72
aS'    core.wait(duration)#currently it is set up to keep instructions on screen the designated amt of time; a button press will not end these instructions sooner\n'
p73
aS"    instructions.setText('')\n"
p74
aS'    win.flip()\n'
p75
ag14
aS'#- - - - - - - - - - - - - - - - - - - - - - - - - - - - - - - - - - - - - - - - - - - - - - - - - - - - - - - - - - - - - - - - - - - - - - - - \n'
p76
ag14
ag14
aS'#define function for displaying visual stims for each trial on n-back task\n'
p77
ag14
aS'def draw_stim(win,event_info,subdata,visual_stim):\n'
p78
aS'    trialdata={}\n'
p79
aS"    trialdata['duration']=subdata['stim_dur']\n"
p80
aS"    trialdata['onset'],trialdata['block'],trialdata['nback'],trialdata['match'],trialdata['stim']=event_info\n"
p81
aS'    # NB: I removed a lot of data handling stuff from within this function\n'
p82
aS'    # instead, the data get returned and handled at the calling level\n'
p83
aS"    print trialdata['stim']\n"
p84
aS"    if trialdata['stim'].find('faces')>-1:#if it is a face image, display vertically\n"
p85
aS"        stim_type='faces'\n"
p86
aS"    elif trialdata['stim'].find('scenes')>-1:#\n"
p87
aS"        stim_type='scenes'\n"
p88
aS'    else:#if it is a character, display as text\n'
p89
aS"        stim_type='chinese_characters'\n"
p90
aS'        \n'
p91
aS"    visual_stim.setImage(trialdata['stim'])\n"
p92
aS"    trialdata['stim_type']=stim_type\n"
p93
aS'    \n'
p94
aS'        #visual_stim[stim_type].setAutoDraw(True)#get the image ready to display\n'
p95
aS'    visual_stim.draw()\n'
p96
aS"    while clock.getTime()<trialdata['onset']:#wait until the specified onset time to display image_file\n"
p97
aS'        pass\n'
p98
aS'    win.flip()\n'
p99
aS"    trialdata['actual_onset_time']=clock.getTime()\n"
p100
aS'    event.clearEvents()#clear all button presses\n'
p101
aS'    thisResp=None\n'
p102
aS'    simulated_rt=0.5 + N.random.rand()*0.1\n'
p103
aS"    while clock.getTime() < (trialdata['actual_onset_time'] + trialdata['duration']):#before the subdata['stim_dur'] time is exceeded, do this stuff...\n"
p104
aS'            key_response=event.getKeys()#look for yes,no, and quit commands\n'
p105
aS"            if subdata['simulated_response']:\n"
p106
aS"                if clock.getTime()> trialdata['actual_onset_time'] + simulated_rt:\n"
p107
aS'                    thisResp=1\n'
p108
aS"                    trialdata['rt']=clock.getTime() - trialdata['actual_onset_time'] #collect rt\n"
p109
aS"                    if trialdata['match']==trialdata['nback']:\n"
p110
aS"                        trialdata['response']='4'\n"
p111
aS'                    else:\n'
p112
aS"                        trialdata['response']='1'\n"
p113
ag14
aS'            elif key_response:#if they press any button\n'
p114
aS"                if key_response.count(subdata['quit_key'])>0:#if subj hits subdata['quit_key']...\n"
p115
aS'                    keep_going=0\n'
p116
aS"                    #subdata['broke_on_trial'][which_block]=trial_num\n"
p117
aS'                    #shut_down_cleanly(subdata,win)\n'
p118
aS'                    return None\n'
p119
aS"                elif key_response.count('5')>0:\n"
p120
aS"                    subdata['trigger_times'].append(clock.getTime())\n"
p121
aS'                else:\n'
p122
aS'                    thisResp=1\n'
p123
aS"                    trialdata['rt']=clock.getTime() - trialdata['actual_onset_time'] #collect rt\n"
p124
aS"                    trialdata['response']=key_response[0]#collect response\n"
p125
ag14
aS'    visual_stim.clearTextures()\n'
p126
ag14
aS'    win.flip()\n'
p127
ag14
aS'    #del visual_stim\n'
p128
aS'    return trialdata\n'
p129
aS'    \n'
p130
ag14
ag14
aS'#Text saying the task has finished. Disappears with key press\n'
p131
ag14
aS'def display_finished_text():#finished with experiment\n'
p132
aS'    event.clearEvents()\n'
p133
aS'    message=visual.TextStim(win=win, ori=0,\n'
p134
aS"    text='All finished! Thanks  :) \\n Press any key to clear the screen.',\n"
p135
aS"    font=u'BiauKai',pos=[0, 0], height=2,color=u'white', colorSpace=u'rgb', opacity=1,depth=0.0,alignHoriz='center',wrapWidth=50)\n"
p136
aS'    message.setAutoDraw(True) \n'
p137
aS'    win.flip()\n'
p138
aS'    start=False\n'
p139
aS'    while start==False:\n'
p140
aS'        key_response=event.getKeys()\n'
p141
aS'        if len(key_response)>0:\n'
p142
aS'            start=True\n'
p143
aS"            message.setText('')#this clears the screen\n"
p144
aS'            win.flip()\n'
p145
aS'    return start\n'
p146
aS'#- - - - - - - - - - - - - - - - - - - - - - - - - - - - - - - - - - - - - - - - - - - - - - - - - - - - - - - - - - - - - - - - - - - - - - \n'
p147
ag14
aS'    \n'
p148
aS'#set-up some variables\n'
p149
ag14
aS'verbose=True\n'
p150
aS'fullscr=False  # change to True for full screen display\n'
p151
ag14
aS"stim_types=['faces','scenes','chinese_characters']\n"
p152
aS'subdata={}\n'
p153
aS'finish_time=440\n'
p154
ag14
aS"subdata['start_key']='5'\n"
p155
aS"subdata['quit_key']='q'\n"
p156
aS"subdata['discard_time_to_wait']=0.0\n"
p157
aS"subdata['expt_title']='Self_Tracking'\n"
p158
aS"subdata['stim_dur']=1.0\n"
p159
aS"subdata['inter_stim_int']=1.0\n"
p160
aS"subdata['inst_time']=1.0\n"
p161
aS"subdata['rest_time']=10.0\n"
p162
aS"subdata['ExpVersion']=0.1\n"
p163
aS"subdata['nstims']=5\n"
p164
aS"subdata['ntrials_per_block']=6\n"
p165
aS"subdata['simulated_response']=False\n"
p166
aS"subdata['trigger_times']=[]\n"
p167
ag14
aS'if len(sys.argv)<2:\n'
p168
aS"    print 'USAGE: self_tracking.py <stimlist> <session code>'\n"
p169
aS'    sys.exit()\n'
p170
aS"    #subdata['onsetfile']='/Users/poldrack/Dropbox/Documents/Projects/self-tracking/task/onsetlists/stimlist_000.txt'\n"
p171
aS'else:\n'
p172
aS"    subdata['onsetfile']=sys.argv[1]\n"
p173
aS"    subdata['subcode']=sys.argv[2]\n"
p174
ag14
ag14
aS'# initialize subdata dictionary to store info about the study\n'
p175
aS"subdata['completed']=0\n"
p176
aS"subdata['cwd']=os.getcwd()\n"
p177
aS"subdata['hostname']=socket.gethostname()\n"
p178
aS'clock=core.Clock()\n'
p179
aS'datestamp=datetime.datetime.now().strftime("%Y-%m-%d-%H_%M_%S")\n'
p180
aS"subdata['datestamp']=datestamp\n"
p181
aS"subdata['expt_title']=subdata['expt_title']\n"
p182
aS"subdata['script']=store_scriptfile()\n"
p183
aS"subdata['onsets']=subdata['onsetfile']\n"
p184
ag14
aS'#these are all sub-dictionaries which will be appended w/separate info for each block & each trial\n'
p185
aS"#i.e., the 'response' dictionary will contain the following dictionaries: face_1, face_2, scenes_1, scenes_2, whose keys are trial_num and values are the responses on that trial\n"
p186
aS"subdata['response']={}\n"
p187
aS"subdata['score']={}\n"
p188
aS"subdata['rt']={}\n"
p189
aS"subdata['stim_onset_time']={}\n"
p190
aS"subdata['stim_log']={}\n"
p191
aS"subdata['is_this_SS_trial']={}\n"
p192
aS"subdata['SS']={}\n"
p193
aS"subdata['broke_on_trial']={}\n"
p194
ag14
aS'# set up logging information & create Output directories\n'
p195
aS"if not os.path.isdir('Output'):#make an Output directory if necessary\n"
p196
aS"    os.makedirs('Output') \n"
p197
ag14
aS"dataFileName='Output/%s_%s_subdata.log'%(subdata['subcode'],subdata['datestamp'])\n"
p198
aS'logging.console.setLevel(logging.INFO)\n'
p199
aS'logfile=logging.LogFile(dataFileName,level=logging.INFO)\n'
p200
ag14
aS'# load stimulus file\n'
p201
ag14
aS'def load_stimulus_file(onsfile):\n'
p202
aS'    events=[]\n'
p203
aS'    f=open(onsfile)\n'
p204
aS'    l=f.readlines()\n'
p205
aS'    for line in l:\n'
p206
aS"        l_s=line.strip('\\n').split('\\t')\n"
p207
aS'        events.append([float(l_s[0]),int(l_s[1]),int(l_s[2]),int(l_s[3]),l_s[4]])\n'
p208
aS'    f.close()\n'
p209
aS'    return events\n'
p210
ag14
aS"events=load_stimulus_file(subdata['onsetfile'])\n"
p211
ag14
aS'# set up the window \n'
p212
aS"win = visual.Window([800,600],allowGUI=True, fullscr=True, monitor='testMonitor', units='deg')\n"
p213
aS"win.setColor('black')\n"
p214
aS'win.flip()\n'
p215
aS'win.flip()\n'
p216
ag14
aS'#integrating everything together\n'
p217
ag14
aS"subdata['trialdata']={}\n"
p218
aS'#chardict=create_characters_dict()\n'
p219
ag14
aS"wait_for_trigger()#wait for subdata['start_key'] to be pressed\n"
p220
ag14
aS'visual_stim={}\n'
p221
aS"visual_stim=visual.ImageStim(win, image=N.zeros((10,10)), size=(0.75,0.75),units='height')\n"
p222
ag14
aS'# set clock to zero\n'
p223
aS'clock.reset()\n'
p224
aS'trialctr=0\n'
p225
aS'for i in range(len(events)):\n'
p226
aS"    if events[i][4]=='inst':\n"
p227
aS'        while clock.getTime() < events[i][0]:\n'
p228
aS'            pass\n'
p229
aS"        instructions(events[i][2],subdata['inst_time'])\n"
p230
aS'    else:\n'
p231
aS"        subdata['trialdata'][trialctr]=draw_stim(win,events[i],subdata,visual_stim)\n"
p232
aS"        if subdata['trialdata'][trialctr]==None:\n"
p233
aS'            break\n'
p234
aS'        trialctr+=1\n'
p235
aS"        print 'return time:',clock.getTime()\n"
p236
ag14
aS'#display_finished_text()\n'
p237
aS'while clock.getTime()<finish_time:\n'
p238
aS'\tpass\n'
p239
aS'\t\n'
p240
aS"subdata['events']=events\n"
p241
aS'if save_data==1:\n'
p242
aS"    docId,docRev=save_data_to_db(subdata,'selftracking-taskdata')\n"
p243
ag14
aS'shut_down_cleanly(subdata,win)\n'
p244
asS'onsets'
p245
S'onsetlists/stimlist_009.txt'
p246
sS'hostname'
p247
S'IRC-arizona'
p248
sS'score'
p249
(dp250
sS'rest_time'
p251
F10.0
sS'cwd'
p252
S'/Users/rap2623/Dropbox/Documents/Projects/self-tracking/task'
p253
sS'trigger_times'
p254
(lp255
F2.288922071456909
aF4.608978033065796
aF6.9289610385894775
aF8.089156150817871
aF10.409110069274902
aF12.729109048843384
aF16.20929718017578
aF18.528303146362305
aF20.848324060440063
aF24.328514099121094
aF26.648503065109253
aF28.96858501434326
aF30.128693103790283
aF32.44870114326477
aF34.76871418952942
aF38.24895095825195
aF40.56901216506958
aF42.8889901638031
aF46.369176149368286
aF48.68916606903076
aF51.00919818878174
aF52.169301986694336
aF54.48930311203003
aF56.80932807922363
aF60.28952097892761
aF62.609522104263306
aF64.92957496643066
aF68.40977001190186
aF70.72877597808838
aF74.20892405509949
aF76.52898907661438
aF78.84899401664734
aF82.32914805412292
aF84.64919805526733
aF86.96923303604126
aF90.44936513900757
aF92.7694001197815
aF96.24956011772156
aF98.5695149898529
aF100.8896381855011
aF102.04981899261475
aF104.36975812911987
aF106.68982911109924
aF109.01001811027527
aF112.49006700515747
aF114.81001710891724
aF118.28921413421631
aF120.60925006866455
aF122.93011808395386
aF124.08946204185486
aF126.40939497947693
aF128.7294521331787
aF154.25024700164795
aF156.57026600837708
aF158.8902771472931
aF160.05042910575867
aF162.37045001983643
aF164.69046998023987
aF167.01063108444214
aF168.17067408561707
aF170.48962116241455
aF172.80974912643433
aF176.28985500335693
aF178.60986709594727
aF180.92997908592224
aF182.09014010429382
aF184.41005516052246
aF186.7301161289215
aF190.21011996269226
aF192.53028011322021
aF194.85031700134277
aF198.33041310310364
aF200.650493144989
aF202.9705650806427
aF204.13073706626892
aF206.45080518722534
aF208.77073907852173
aF212.25091695785522
aF214.57092809677124
aF216.89101004600525
aF220.37007308006287
aF222.69013214111328
aF226.1703221797943
aF228.49023818969727
aF230.8103621006012
aF234.29054617881775
aF236.61048913002014
aF238.93056797981262
aF242.4107620716095
aF244.73078513145447
aF248.21092915534973
aF250.53077507019043
aF252.85099601745605
aF256.33111000061035
aF258.6511790752411
aF260.9712460041046
aF264.45143818855286
aF266.771329164505
aF270.25155210494995
aF272.5704610347748
aF274.8905870914459
aF276.050665140152
aF278.3707699775696
aF280.690819978714
aF283.0108530521393
aF306.21162009239197
aF308.5315999984741
aF310.85164403915405
aF312.011598110199
aF314.3317880630493
aF316.65175008773804
aF318.9718511104584
aF320.1310610771179
aF322.4510200023651
aF324.7710380554199
aF328.25117802619934
aF330.5712010860443
aF332.89128613471985
aF334.051470041275
aF336.3714129924774
aF338.6914710998535
aF341.0115170478821
aF342.17161107063293
aF344.491660118103
aF346.8116590976715
aF350.29183316230774
aF352.61188411712646
aF354.9318730831146
aF356.09208512306213
aF358.41208505630493
aF360.7320890426636
aF364.2122600078583
aF366.53224301338196
aF368.85223412513733
aF372.3314690589905
aF374.65148997306824
aF376.97144508361816
aF378.13174414634705
aF380.4514789581299
aF382.7717561721802
aF386.25181913375854
aF388.57177805900574
aF390.8919870853424
aF394.37206196784973
aF396.69211602211
aF399.0121910572052
aF400.17242407798767
aF402.49235916137695
aF404.81226110458374
aF408.2925021648407
aF410.612496137619
aF412.9325680732727
aF416.4127130508423
aF418.7327661514282
aF422.21192717552185
aF424.53193616867065
aF426.8519940376282
aF430.3321371078491
aF432.6521780490875
aF434.97219800949097
asS'ExpVersion'
p256
F0.1
sS'completed'
p257
I0
sS'stim_dur'
p258
F1.0
sS'quit_key'
p259
S'q'
p260
sS'onsetfile'
p261
g246
sS'discard_time_to_wait'
p262
F0.0
sS'response'
p263
(dp264
sS'trialdata'
p265
(dp266
I0
(dp267
g8
F0.3915259838104248
sS'stim'
p268
S'./stimfiles/faces/cropped_00371015.png'
p269
sS'onset'
p270
F2.0
sS'stim_type'
p271
S'faces'
p272
sS'block'
p273
I0
sS'nback'
p274
I1
sS'duration'
p275
F1.0
sg263
S'1'
p276
sS'match'
p277
I0
sS'actual_onset_time'
p278
F2.0162711143493652
ssI1
(dp279
g8
F0.6459698677062988
sg268
S'./stimfiles/faces/cropped_102MVC-003F.png'
p280
sg270
F4.0
sg271
g272
sg273
I0
sg274
I1
sg275
F1.0
sg263
g276
sg277
I0
sg278
F4.017136096954346
ssI2
(dp281
g8
F0.6020078659057617
sg268
S'./stimfiles/faces/cropped_milly1.png'
p282
sg270
F6.0
sg271
g272
sg273
I0
sg274
I1
sg275
F1.0
sg263
g276
sg277
I0
sg278
F6.01798415184021
ssI3
(dp283
g8
F0.5551769733428955
sg268
S'./stimfiles/faces/cropped_m4034.png'
p284
sg270
F8.0
sg271
g272
sg273
I0
sg274
I1
sg275
F1.0
sg263
g276
sg277
I0
sg278
F8.018854141235352
ssI4
(dp285
g8
F0.5934669971466064
sg268
S'./stimfiles/faces/cropped_102MVC-003F.png'
p286
sg270
F10.0
sg271
g272
sg273
I0
sg274
I1
sg275
F1.0
sg263
g276
sg277
I3
sg278
F10.019556999206543
ssI5
(dp287
g8
F0.6117918491363525
sg268
S'./stimfiles/faces/cropped_f4007_1.png'
p288
sg270
F12.0
sg271
g272
sg273
I0
sg274
I1
sg275
F1.0
sg263
g276
sg277
I0
sg278
F12.020413160324097
ssI6
(dp289
g8
F0.74788498878479
sg268
S'./stimfiles/faces/cropped_f4007_1.png'
p290
sg270
F14.0
sg271
g272
sg273
I0
sg274
I1
sg275
F1.0
sg263
S'4'
p291
sg277
I1
sg278
F14.021316051483154
ssI7
(dp292
g8
F0.5741610527038574
sg268
S'./stimfiles/faces/cropped_m1-031-01.png'
p293
sg270
F16.0
sg271
g272
sg273
I0
sg274
I1
sg275
F1.0
sg263
g276
sg277
I0
sg278
F16.022056102752686
ssI8
(dp294
g8
F0.6683800220489502
sg268
S'./stimfiles/faces/cropped_m1-031-01.png'
p295
sg270
F18.0
sg271
g272
sg273
I0
sg274
I1
sg275
F1.0
sg263
g291
sg277
I1
sg278
F18.02290105819702
ssI9
(dp296
g8
F0.6754970550537109
sg268
S'./stimfiles/faces/cropped_331.png'
p297
sg270
F20.0
sg271
g272
sg273
I0
sg274
I1
sg275
F1.0
sg263
g276
sg277
I0
sg278
F20.023749113082886
ssI10
(dp298
g8
F0.5988600254058838
sg268
S'./stimfiles/scenes/740.jpg'
p299
sg270
F24.0
sg271
S'scenes'
p300
sg273
I1
sg274
I1
sg275
F1.0
sg263
g276
sg277
I0
sg278
F24.0086829662323
ssI11
(dp301
g8
F0.592911958694458
sg268
S'./stimfiles/scenes/740.jpg'
p302
sg270
F26.0
sg271
g300
sg273
I1
sg274
I1
sg275
F1.0
sg263
g291
sg277
I1
sg278
F26.00954508781433
ssI12
(dp303
g8
F0.4651811122894287
sg268
S'./stimfiles/scenes/1815.jpg'
p304
sg270
F28.0
sg271
g300
sg273
I1
sg274
I1
sg275
F1.0
sg263
g276
sg277
I0
sg278
F28.010390996932983
ssI13
(dp305
g8
F0.6444950103759766
sg268
S'./stimfiles/scenes/878.jpg'
p306
sg270
F30.0
sg271
g300
sg273
I1
sg274
I1
sg275
F1.0
sg263
g276
sg277
I0
sg278
F30.01112699508667
ssI14
(dp307
g8
F0.6226000785827637
sg268
S'./stimfiles/scenes/878.jpg'
p308
sg270
F32.0
sg271
g300
sg273
I1
sg274
I1
sg275
F1.0
sg263
g291
sg277
I1
sg278
F32.01197099685669
ssI15
(dp309
g8
F0.5029871463775635
sg268
S'./stimfiles/scenes/1815.jpg'
p310
sg270
F34.0
sg271
g300
sg273
I1
sg274
I1
sg275
F1.0
sg263
g276
sg277
I3
sg278
F34.01275300979614
ssI16
(dp311
g8
F0.5851590633392334
sg268
S'./stimfiles/scenes/50.jpg'
p312
sg270
F36.0
sg271
g300
sg273
I1
sg274
I1
sg275
F1.0
sg263
g276
sg277
I0
sg278
F36.01365303993225
ssI17
(dp313
g8
F0.5724070072174072
sg268
S'./stimfiles/scenes/1266.jpg'
p314
sg270
F38.0
sg271
g300
sg273
I1
sg274
I1
sg275
F1.0
sg263
g276
sg277
I0
sg278
F38.01446008682251
ssI18
(dp315
g8
F0.6925101280212402
sg268
S'./stimfiles/scenes/1266.jpg'
p316
sg270
F40.0
sg271
g300
sg273
I1
sg274
I1
sg275
F1.0
sg263
g291
sg277
I1
sg278
F40.01538896560669
ssI19
(dp317
g8
F0.627906084060669
sg268
S'./stimfiles/scenes/1820.jpg'
p318
sg270
F42.0
sg271
g300
sg273
I1
sg274
I1
sg275
F1.0
sg263
g276
sg277
I0
sg278
F42.01612210273743
ssI20
(dp319
g8
F0.586341142654419
sg268
S'./stimfiles/chinese_characters/30264.jpg'
p320
sg270
F46.0
sg271
S'chinese_characters'
p321
sg273
I2
sg274
I2
sg275
F1.0
sg263
g276
sg277
I0
sg278
F46.01775002479553
ssI21
(dp322
g8
F0.7535200119018555
sg268
S'./stimfiles/chinese_characters/20667.jpg'
p323
sg270
F48.0
sg271
g321
sg273
I2
sg274
I2
sg275
F1.0
sg263
g276
sg277
I0
sg278
F48.01860499382019
ssI22
(dp324
g8
F0.9518799781799316
sg268
S'./stimfiles/chinese_characters/20667.jpg'
p325
sg270
F50.0
sg271
g321
sg273
I2
sg274
I2
sg275
F1.0
sg263
g291
sg277
I1
sg278
F50.01933407783508
ssI23
(dp326
g8
F0.6640679836273193
sg268
S'./stimfiles/chinese_characters/20667.jpg'
p327
sg270
F52.0
sg271
g321
sg273
I2
sg274
I2
sg275
F1.0
sg263
g291
sg277
I1
sg278
F52.02021908760071
ssI24
(dp328
g8
F0.6573021411895752
sg268
S'./stimfiles/chinese_characters/20667.jpg'
p329
sg270
F54.0
sg271
g321
sg273
I2
sg274
I2
sg275
F1.0
sg263
g291
sg277
I3
sg278
F54.021008014678955
ssI25
(dp330
g8
F0.7265839576721191
sg268
S'./stimfiles/chinese_characters/20667.jpg'
p331
sg270
F56.0
sg271
g321
sg273
I2
sg274
I2
sg275
F1.0
sg263
g291
sg277
I3
sg278
F56.02180600166321
ssI26
(dp332
g8
F0.6197800636291504
sg268
S'./stimfiles/chinese_characters/20667.jpg'
p333
sg270
F58.0
sg271
g321
sg273
I2
sg274
I2
sg275
F1.0
sg263
g291
sg277
I3
sg278
F58.022664070129395
ssI27
(dp334
g8
F0.6010708808898926
sg268
S'./stimfiles/chinese_characters/20667.jpg'
p335
sg270
F60.0
sg271
g321
sg273
I2
sg274
I2
sg275
F1.0
sg263
g291
sg277
I2
sg278
F60.02343511581421
ssI28
(dp336
g8
F0.5512180328369141
sg268
S'./stimfiles/chinese_characters/26151.jpg'
p337
sg270
F62.0
sg271
g321
sg273
I2
sg274
I2
sg275
F1.0
sg263
g276
sg277
I0
sg278
F62.02435898780823
ssI29
(dp338
g8
F0.8804218769073486
sg268
S'./stimfiles/chinese_characters/29738.jpg'
p339
sg270
F64.0
sg271
g321
sg273
I2
sg274
I2
sg275
F1.0
sg263
g276
sg277
I0
sg278
F64.02513813972473
ssI30
(dp340
g8
F0.690605878829956
sg268
S'./stimfiles/scenes/390.jpg'
p341
sg270
F68.0
sg271
g300
sg273
I3
sg274
I2
sg275
F1.0
sg263
g276
sg277
I0
sg278
F68.01011109352112
ssI31
(dp342
g8
F0.6208758354187012
sg268
S'./stimfiles/scenes/1677.jpg'
p343
sg270
F70.0
sg271
g300
sg273
I3
sg274
I2
sg275
F1.0
sg263
g276
sg277
I0
sg278
F70.01087617874146
ssI32
(dp344
g8
F0.6750850677490234
sg268
S'./stimfiles/scenes/390.jpg'
p345
sg270
F72.0
sg271
g300
sg273
I3
sg274
I2
sg275
F1.0
sg263
g291
sg277
I2
sg278
F72.0117540359497
ssI33
(dp346
g8
F0.5243029594421387
sg268
S'./stimfiles/scenes/3117.jpg'
p347
sg270
F74.0
sg271
g300
sg273
I3
sg274
I2
sg275
F1.0
sg263
g276
sg277
I0
sg278
F74.01256704330444
ssI34
(dp348
g8
F0.6206810474395752
sg268
S'./stimfiles/scenes/1677.jpg'
p349
sg270
F76.0
sg271
g300
sg273
I3
sg274
I2
sg275
F1.0
sg263
g276
sg277
I3
sg278
F76.01334309577942
ssI35
(dp350
g8
F0.827826976776123
sg268
S'./stimfiles/scenes/1677.jpg'
p351
sg270
F78.0
sg271
g300
sg273
I3
sg274
I2
sg275
F1.0
sg263
g276
sg277
I1
sg278
F78.01418709754944
ssI36
(dp352
g8
F0.9168591499328613
sg268
S'./stimfiles/scenes/1350.jpg'
p353
sg270
F80.0
sg271
g300
sg273
I3
sg274
I2
sg275
F1.0
sg263
g276
sg277
I0
sg278
F80.01500296592712
ssI37
(dp354
g8
F0.6582000255584717
sg268
S'./stimfiles/scenes/1403.jpg'
p355
sg270
F82.0
sg271
g300
sg273
I3
sg274
I2
sg275
F1.0
sg263
g276
sg277
I0
sg278
F82.01590204238892
ssI38
(dp356
g8
F0.7324340343475342
sg268
S'./stimfiles/scenes/1677.jpg'
p357
sg270
F84.0
sg271
g300
sg273
I3
sg274
I2
sg275
F1.0
sg263
g276
sg277
I3
sg278
F84.01671695709229
ssI39
(dp358
g8
F0.7787370681762695
sg268
S'./stimfiles/scenes/1403.jpg'
p359
sg270
F86.0
sg271
g300
sg273
I3
sg274
I2
sg275
F1.0
sg263
g291
sg277
I2
sg278
F86.01753401756287
ssI40
(dp360
g8
F0.4901700019836426
sg268
S'./stimfiles/chinese_characters/26367.jpg'
p361
sg270
F90.0
sg271
g321
sg273
I4
sg274
I1
sg275
F1.0
sg263
g276
sg277
I0
sg278
F90.0191650390625
ssI41
(dp362
g8
F0.5874719619750977
sg268
S'./stimfiles/chinese_characters/24712.jpg'
p363
sg270
F92.0
sg271
g321
sg273
I4
sg274
I1
sg275
F1.0
sg263
g276
sg277
I0
sg278
F92.01998019218445
ssI42
(dp364
g8
F0.5745198726654053
sg268
S'./stimfiles/chinese_characters/24732.jpg'
p365
sg270
F94.0
sg271
g321
sg273
I4
sg274
I1
sg275
F1.0
sg263
g276
sg277
I0
sg278
F94.02077913284302
ssI43
(dp366
g8
F0.5998721122741699
sg268
S'./stimfiles/chinese_characters/20485.jpg'
p367
sg270
F96.0
sg271
g321
sg273
I4
sg274
I1
sg275
F1.0
sg263
g276
sg277
I0
sg278
F96.02163195610046
ssI44
(dp368
g8
F0.6841309070587158
sg268
S'./stimfiles/chinese_characters/29730.jpg'
p369
sg270
F98.0
sg271
g321
sg273
I4
sg274
I1
sg275
F1.0
sg263
g276
sg277
I0
sg278
F98.02245712280273
ssI45
(dp370
g8
F0.5863192081451416
sg268
S'./stimfiles/chinese_characters/25231.jpg'
p371
sg270
F100.0
sg271
g321
sg273
I4
sg274
I1
sg275
F1.0
sg263
g276
sg277
I0
sg278
F100.0233199596405
ssI46
(dp372
g8
F0.607537031173706
sg268
S'./stimfiles/chinese_characters/29730.jpg'
p373
sg270
F102.0
sg271
g321
sg273
I4
sg274
I1
sg275
F1.0
sg263
g276
sg277
I2
sg278
F102.02413415908813
ssI47
(dp374
g8
F0.6159369945526123
sg268
S'./stimfiles/chinese_characters/29730.jpg'
p375
sg270
F104.0
sg271
g321
sg273
I4
sg274
I1
sg275
F1.0
sg263
g291
sg277
I1
sg278
F104.02486109733582
ssI48
(dp376
g8
F0.7160758972167969
sg268
S'./stimfiles/chinese_characters/29730.jpg'
p377
sg270
F106.0
sg271
g321
sg273
I4
sg274
I1
sg275
F1.0
sg263
g291
sg277
I1
sg278
F106.025719165802
ssI49
(dp378
g8
F0.5170409679412842
sg268
S'./stimfiles/chinese_characters/29730.jpg'
p379
sg270
F108.0
sg271
g321
sg273
I4
sg274
I1
sg275
F1.0
sg263
g291
sg277
I1
sg278
F108.00981712341309
ssI50
(dp380
g8
F0.5754899978637695
sg268
S'./stimfiles/faces/cropped_147.png'
p381
sg270
F112.0
sg271
g272
sg273
I5
sg274
I2
sg275
F1.0
sg263
g276
sg277
I0
sg278
F112.01148414611816
ssI51
(dp382
g8
F0.538707971572876
sg268
S'./stimfiles/faces/cropped_m11v1e1.png'
p383
sg270
F114.0
sg271
g272
sg273
I5
sg274
I2
sg275
F1.0
sg263
g276
sg277
I0
sg278
F114.0123610496521
ssI52
(dp384
g8
F0.6830029487609863
sg268
S'./stimfiles/faces/cropped_147.png'
p385
sg270
F116.0
sg271
g272
sg273
I5
sg274
I2
sg275
F1.0
sg263
g291
sg277
I2
sg278
F116.01313018798828
ssI53
(dp386
g8
F0.7221291065216064
sg268
S'./stimfiles/faces/cropped_m11v1e1.png'
p387
sg270
F118.0
sg271
g272
sg273
I5
sg274
I2
sg275
F1.0
sg263
g291
sg277
I2
sg278
F118.01402807235718
ssI54
(dp388
g8
F0.8005151748657227
sg268
S'./stimfiles/faces/cropped_377.png'
p389
sg270
F120.0
sg271
g272
sg273
I5
sg274
I2
sg275
F1.0
sg263
g276
sg277
I0
sg278
F120.01476001739502
ssI55
(dp390
g8
F0.912635087966919
sg268
S'./stimfiles/faces/cropped_377.png'
p391
sg270
F122.0
sg271
g272
sg273
I5
sg274
I2
sg275
F1.0
sg263
g276
sg277
I1
sg278
F122.01565408706665
ssI56
(dp392
g8
F0.8018438816070557
sg268
S'./stimfiles/faces/cropped_512.png'
p393
sg270
F124.0
sg271
g272
sg273
I5
sg274
I2
sg275
F1.0
sg263
g276
sg277
I0
sg278
F124.01645612716675
ssI57
(dp394
g8
F0.6280770301818848
sg268
S'./stimfiles/faces/cropped_377.png'
p395
sg270
F126.0
sg271
g272
sg273
I5
sg274
I2
sg275
F1.0
sg263
g291
sg277
I2
sg278
F126.01729607582092
ssI58
(dp396
g8
F0.613325834274292
sg268
S'./stimfiles/faces/cropped_24a.png'
p397
sg270
F128.0
sg271
g272
sg273
I5
sg274
I2
sg275
F1.0
sg263
g276
sg277
I0
sg278
F128.01812314987183
ssI59
(dp398
g8
F0.6457178592681885
sg268
S'./stimfiles/faces/cropped_377.png'
p399
sg270
F130.0
sg271
g272
sg273
I5
sg274
I2
sg275
F1.0
sg263
g291
sg277
I2
sg278
F130.01888513565063
ssI60
(dp400
g8
F0.3923330307006836
sg268
S'./stimfiles/faces/cropped_1021.png'
p401
sg270
F154.0
sg271
g272
sg273
I6
sg274
I1
sg275
F1.0
sg263
g276
sg277
I0
sg278
F154.02877807617188
ssI61
(dp402
g8
F0.6162769794464111
sg268
S'./stimfiles/faces/cropped_00492007.png'
p403
sg270
F156.0
sg271
g272
sg273
I6
sg274
I1
sg275
F1.0
sg263
g276
sg277
I0
sg278
F156.01297211647034
ssI62
(dp404
g8
F0.7785251140594482
sg268
S'./stimfiles/faces/cropped_00492007.png'
p405
sg270
F158.0
sg271
g272
sg273
I6
sg274
I1
sg275
F1.0
sg263
g291
sg277
I1
sg278
F158.0137710571289
ssI63
(dp406
g8
F0.4898660182952881
sg268
S'./stimfiles/faces/cropped_641.png'
p407
sg270
F160.0
sg271
g272
sg273
I6
sg274
I1
sg275
F1.0
sg263
g276
sg277
I0
sg278
F160.01455116271973
ssI64
(dp408
g8
F0.6880428791046143
sg268
S'./stimfiles/faces/cropped_00401015.png'
p409
sg270
F162.0
sg271
g272
sg273
I6
sg274
I1
sg275
F1.0
sg263
g276
sg277
I0
sg278
F162.01536512374878
ssI65
(dp410
g8
F0.5942809581756592
sg268
S'./stimfiles/faces/cropped_m-025-01.png'
p411
sg270
F164.0
sg271
g272
sg273
I6
sg274
I1
sg275
F1.0
sg263
g276
sg277
I0
sg278
F164.01622700691223
ssI66
(dp412
g8
F0.6075341701507568
sg268
S'./stimfiles/faces/cropped_00401015.png'
p413
sg270
F166.0
sg271
g272
sg273
I6
sg274
I1
sg275
F1.0
sg263
g276
sg277
I2
sg278
F166.01700401306152
ssI67
(dp414
g8
F0.556751012802124
sg268
S'./stimfiles/faces/cropped_00401015.png'
p415
sg270
F168.0
sg271
g272
sg273
I6
sg274
I1
sg275
F1.0
sg263
g291
sg277
I1
sg278
F168.0178451538086
ssI68
(dp416
g8
F0.5229818820953369
sg268
S'./stimfiles/faces/cropped_m-100-01.png'
p417
sg270
F170.0
sg271
g272
sg273
I6
sg274
I1
sg275
F1.0
sg263
g276
sg277
I0
sg278
F170.01864314079285
ssI69
(dp418
g8
F0.6091790199279785
sg268
S'./stimfiles/faces/cropped_00401015.png'
p419
sg270
F172.0
sg271
g272
sg273
I6
sg274
I1
sg275
F1.0
sg263
g276
sg277
I3
sg278
F172.0195300579071
ssI70
(dp420
g8
F0.48965907096862793
sg268
S'./stimfiles/scenes/945.jpg'
p421
sg270
F176.0
sg271
g300
sg273
I7
sg274
I1
sg275
F1.0
sg263
g276
sg277
I0
sg278
F176.0211730003357
ssI71
(dp422
g8
F0.4549751281738281
sg268
S'./stimfiles/scenes/945.jpg'
p423
sg270
F178.0
sg271
g300
sg273
I7
sg274
I1
sg275
F1.0
sg263
g291
sg277
I1
sg278
F178.02192997932434
ssI72
(dp424
g8
F0.4858970642089844
sg268
S'./stimfiles/scenes/618.jpg'
p425
sg270
F180.0
sg271
g300
sg273
I7
sg274
I1
sg275
F1.0
sg263
g276
sg277
I0
sg278
F180.00610303878784
ssI73
(dp426
g8
F0.4930150508880615
sg268
S'./stimfiles/scenes/1199.jpg'
p427
sg270
F182.0
sg271
g300
sg273
I7
sg274
I1
sg275
F1.0
sg263
g276
sg277
I0
sg278
F182.00695705413818
ssI74
(dp428
g8
F0.6173338890075684
sg268
S'./stimfiles/scenes/618.jpg'
p429
sg270
F184.0
sg271
g300
sg273
I7
sg274
I1
sg275
F1.0
sg263
g276
sg277
I2
sg278
F184.00778317451477
ssI75
(dp430
g8
F0.6455490589141846
sg268
S'./stimfiles/scenes/1199.jpg'
p431
sg270
F186.0
sg271
g300
sg273
I7
sg274
I1
sg275
F1.0
sg263
g276
sg277
I2
sg278
F186.00855612754822
ssI76
(dp432
g8
F0.5188169479370117
sg268
S'./stimfiles/scenes/1718.jpg'
p433
sg270
F188.0
sg271
g300
sg273
I7
sg274
I1
sg275
F1.0
sg263
g276
sg277
I0
sg278
F188.00936603546143
ssI77
(dp434
g8
F0.5478990077972412
sg268
S'./stimfiles/scenes/754.jpg'
p435
sg270
F190.0
sg271
g300
sg273
I7
sg274
I1
sg275
F1.0
sg263
g276
sg277
I0
sg278
F190.01024413108826
ssI78
(dp436
g8
F0.5293238162994385
sg268
S'./stimfiles/scenes/754.jpg'
p437
sg270
F192.0
sg271
g300
sg273
I7
sg274
I1
sg275
F1.0
sg263
g291
sg277
I1
sg278
F192.01105618476868
ssI79
(dp438
g8
F0.643543004989624
sg268
S'./stimfiles/scenes/754.jpg'
p439
sg270
F194.0
sg271
g300
sg273
I7
sg274
I1
sg275
F1.0
sg263
g291
sg277
I1
sg278
F194.0118260383606
ssI80
(dp440
g8
F0.456928014755249
sg268
S'./stimfiles/chinese_characters/26591.jpg'
p441
sg270
F198.0
sg271
g321
sg273
I8
sg274
I2
sg275
F1.0
sg263
g276
sg277
I0
sg278
F198.01345896720886
ssI81
(dp442
g8
F0.5891768932342529
sg268
S'./stimfiles/chinese_characters/35482.jpg'
p443
sg270
F200.0
sg271
g321
sg273
I8
sg274
I2
sg275
F1.0
sg263
g276
sg277
I0
sg278
F200.01437711715698
ssI82
(dp444
g8
F0.699458122253418
sg268
S'./stimfiles/chinese_characters/26591.jpg'
p445
sg270
F202.0
sg271
g321
sg273
I8
sg274
I2
sg275
F1.0
sg263
g291
sg277
I2
sg278
F202.01513504981995
ssI83
(dp446
g8
F0.6836068630218506
sg268
S'./stimfiles/chinese_characters/25333.jpg'
p447
sg270
F204.0
sg271
g321
sg273
I8
sg274
I2
sg275
F1.0
sg263
g276
sg277
I0
sg278
F204.01597213745117
ssI84
(dp448
g8
F0.647860050201416
sg268
S'./stimfiles/chinese_characters/26322.jpg'
p449
sg270
F206.0
sg271
g321
sg273
I8
sg274
I2
sg275
F1.0
sg263
g276
sg277
I0
sg278
F206.01682209968567
ssI85
(dp450
g8
F0.8850910663604736
sg268
S'./stimfiles/chinese_characters/24847.jpg'
p451
sg270
F208.0
sg271
g321
sg273
I8
sg274
I2
sg275
F1.0
sg263
g276
sg277
I0
sg278
F208.01762008666992
ssI86
(dp452
g8
F0.6794130802154541
sg268
S'./stimfiles/chinese_characters/26322.jpg'
p453
sg270
F210.0
sg271
g321
sg273
I8
sg274
I2
sg275
F1.0
sg263
g291
sg277
I2
sg278
F210.01840209960938
ssI87
(dp454
g8
F0.6785809993743896
sg268
S'./stimfiles/chinese_characters/26261.jpg'
p455
sg270
F212.0
sg271
g321
sg273
I8
sg274
I2
sg275
F1.0
sg263
g276
sg277
I0
sg278
F212.01925611495972
ssI88
(dp456
g8
F0.7488939762115479
sg268
S'./stimfiles/chinese_characters/26481.jpg'
p457
sg270
F214.0
sg271
g321
sg273
I8
sg274
I2
sg275
F1.0
sg263
g276
sg277
I0
sg278
F214.02007699012756
ssI89
(dp458
g8
F0.9240560531616211
sg268
S'./stimfiles/chinese_characters/26261.jpg'
p459
sg270
F216.0
sg271
g321
sg273
I8
sg274
I2
sg275
F1.0
sg263
g291
sg277
I2
sg278
F216.0208899974823
ssI90
(dp460
g8
F0.61946702003479
sg268
S'./stimfiles/scenes/1629.jpg'
p461
sg270
F220.0
sg271
g300
sg273
I9
sg274
I2
sg275
F1.0
sg263
g276
sg277
I0
sg278
F220.02261114120483
ssI91
(dp462
g8
F0.5854849815368652
sg268
S'./stimfiles/scenes/185.jpg'
p463
sg270
F222.0
sg271
g300
sg273
I9
sg274
I2
sg275
F1.0
sg263
g276
sg277
I0
sg278
F222.00665402412415
ssI92
(dp464
g8
F0.6027050018310547
sg268
S'./stimfiles/scenes/1629.jpg'
p465
sg270
F224.0
sg271
g300
sg273
I9
sg274
I2
sg275
F1.0
sg263
g291
sg277
I2
sg278
F224.00748705863953
ssI93
(dp466
g8
F0.6719081401824951
sg268
S'./stimfiles/scenes/1588.jpg'
p467
sg270
F226.0
sg271
g300
sg273
I9
sg274
I2
sg275
F1.0
sg263
g276
sg277
I0
sg278
F226.00829601287842
ssI94
(dp468
g8
F0.7411329746246338
sg268
S'./stimfiles/scenes/1077.jpg'
p469
sg270
F228.0
sg271
g300
sg273
I9
sg274
I2
sg275
F1.0
sg263
g276
sg277
I0
sg278
F228.0091781616211
ssI95
(dp470
g8
F0.8154439926147461
sg268
S'./stimfiles/scenes/741.jpg'
p471
sg270
F230.0
sg271
g300
sg273
I9
sg274
I2
sg275
F1.0
sg263
g276
sg277
I0
sg278
F230.01001906394958
ssI96
(dp472
g8
F0.7905550003051758
sg268
S'./stimfiles/scenes/1077.jpg'
p473
sg270
F232.0
sg271
g300
sg273
I9
sg274
I2
sg275
F1.0
sg263
g291
sg277
I2
sg278
F232.01077604293823
ssI97
(dp474
g8
F0.7208490371704102
sg268
S'./stimfiles/scenes/1077.jpg'
p475
sg270
F234.0
sg271
g300
sg273
I9
sg274
I2
sg275
F1.0
sg263
g276
sg277
I1
sg278
F234.01163911819458
ssI98
(dp476
g8
F0.7659728527069092
sg268
S'./stimfiles/scenes/213.jpg'
p477
sg270
F236.0
sg271
g300
sg273
I9
sg274
I2
sg275
F1.0
sg263
g276
sg277
I0
sg278
F236.0125801563263
ssI99
(dp478
g8
F0.6193768978118896
sg268
S'./stimfiles/scenes/1077.jpg'
p479
sg270
F238.0
sg271
g300
sg273
I9
sg274
I2
sg275
F1.0
sg263
g291
sg277
I3
sg278
F238.0132281780243
ssI100
(dp480
g8
F0.7177829742431641
sg268
S'./stimfiles/chinese_characters/20768.jpg'
p481
sg270
F242.0
sg271
g321
sg273
I10
sg274
I1
sg275
F1.0
sg263
g276
sg277
I0
sg278
F242.01493501663208
ssI101
(dp482
g8
F0.5920121669769287
sg268
S'./stimfiles/chinese_characters/26493.jpg'
p483
sg270
F244.0
sg271
g321
sg273
I10
sg274
I1
sg275
F1.0
sg263
g276
sg277
I0
sg278
F244.01577401161194
ssI102
(dp484
g8
F0.636411190032959
sg268
S'./stimfiles/chinese_characters/26493.jpg'
p485
sg270
F246.0
sg271
g321
sg273
I10
sg274
I1
sg275
F1.0
sg263
g291
sg277
I1
sg278
F246.01652097702026
ssI103
(dp486
g8
F0.64652419090271
sg268
S'./stimfiles/chinese_characters/20768.jpg'
p487
sg270
F248.0
sg271
g321
sg273
I10
sg274
I1
sg275
F1.0
sg263
g276
sg277
I3
sg278
F248.01740097999573
ssI104
(dp488
g8
F0.5946640968322754
sg268
S'./stimfiles/chinese_characters/20768.jpg'
p489
sg270
F250.0
sg271
g321
sg273
I10
sg274
I1
sg275
F1.0
sg263
g291
sg277
I1
sg278
F250.01826000213623
ssI105
(dp490
g8
F0.6339538097381592
sg268
S'./stimfiles/chinese_characters/37305.jpg'
p491
sg270
F252.0
sg271
g321
sg273
I10
sg274
I1
sg275
F1.0
sg263
g276
sg277
I0
sg278
F252.0190441608429
ssI106
(dp492
g8
F0.6921792030334473
sg268
S'./stimfiles/chinese_characters/32007.jpg'
p493
sg270
F254.0
sg271
g321
sg273
I10
sg274
I1
sg275
F1.0
sg263
g276
sg277
I0
sg278
F254.01985597610474
ssI107
(dp494
g268
S'./stimfiles/chinese_characters/24977.jpg'
p495
sg270
F256.0
sg271
g321
sg273
I10
sg274
I1
sg275
F1.0
sg277
I0
sg278
F256.02064418792725
ssI108
(dp496
g8
F0.6458160877227783
sg268
S'./stimfiles/chinese_characters/24977.jpg'
p497
sg270
F258.0
sg271
g321
sg273
I10
sg274
I1
sg275
F1.0
sg263
g291
sg277
I1
sg278
F258.02145504951477
ssI109
(dp498
g8
F0.6979799270629883
sg268
S'./stimfiles/chinese_characters/32007.jpg'
p499
sg270
F260.0
sg271
g321
sg273
I10
sg274
I1
sg275
F1.0
sg263
g276
sg277
I3
sg278
F260.02227210998535
ssI110
(dp500
g8
F0.6303689479827881
sg268
S'./stimfiles/faces/cropped_m1-014-01.png'
p501
sg270
F264.0
sg271
g272
sg273
I11
sg274
I2
sg275
F1.0
sg263
g276
sg277
I0
sg278
F264.02394914627075
ssI111
(dp502
g8
F0.5606811046600342
sg268
S'./stimfiles/faces/cropped_19.png'
p503
sg270
F266.0
sg271
g272
sg273
I11
sg274
I2
sg275
F1.0
sg263
g276
sg277
I0
sg278
F266.02473306655884
ssI112
(dp504
g8
F0.9028658866882324
sg268
S'./stimfiles/faces/cropped_88a.png'
p505
sg270
F268.0
sg271
g272
sg273
I11
sg274
I2
sg275
F1.0
sg263
g276
sg277
I0
sg278
F268.02563309669495
ssI113
(dp506
g8
F0.815899133682251
sg268
S'./stimfiles/faces/cropped_88a.png'
p507
sg270
F270.0
sg271
g272
sg273
I11
sg274
I2
sg275
F1.0
sg263
g276
sg277
I1
sg278
F270.0264539718628
ssI114
(dp508
g8
F0.8389558792114258
sg268
S'./stimfiles/faces/cropped_536.png'
p509
sg270
F272.0
sg271
g272
sg273
I11
sg274
I2
sg275
F1.0
sg263
g276
sg277
I0
sg278
F272.01059317588806
ssI115
(dp510
g8
F0.8442790508270264
sg268
S'./stimfiles/faces/cropped_988.png'
p511
sg270
F274.0
sg271
g272
sg273
I11
sg274
I2
sg275
F1.0
sg263
g276
sg277
I0
sg278
F274.01138401031494
ssI116
(dp512
g8
F0.9125070571899414
sg268
S'./stimfiles/faces/cropped_i264ta-mn.png'
p513
sg270
F276.0
sg271
g272
sg273
I11
sg274
I2
sg275
F1.0
sg263
g276
sg277
I0
sg278
F276.0121819972992
ssI117
(dp514
g8
F0.6326231956481934
sg268
S'./stimfiles/faces/cropped_988.png'
p515
sg270
F278.0
sg271
g272
sg273
I11
sg274
I2
sg275
F1.0
sg263
g291
sg277
I2
sg278
F278.01309299468994
ssI118
(dp516
g8
F0.8509070873260498
sg268
S'./stimfiles/faces/cropped_988.png'
p517
sg270
F280.0
sg271
g272
sg273
I11
sg274
I2
sg275
F1.0
sg263
g276
sg277
I1
sg278
F280.0138850212097
ssI119
(dp518
g8
F0.9071650505065918
sg268
S'./stimfiles/faces/cropped_f13n1.png'
p519
sg270
F282.0
sg271
g272
sg273
I11
sg274
I2
sg275
F1.0
sg263
g276
sg277
I0
sg278
F282.01471996307373
ssI120
(dp520
g8
F0.40301513671875
sg268
S'./stimfiles/faces/cropped_515.png'
p521
sg270
F306.0
sg271
g272
sg273
I12
sg274
I1
sg275
F1.0
sg263
g276
sg277
I0
sg278
F306.0245850086212
ssI121
(dp522
g8
F0.690223217010498
sg268
S'./stimfiles/faces/cropped_515.png'
p523
sg270
F308.0
sg271
g272
sg273
I12
sg274
I1
sg275
F1.0
sg263
g291
sg277
I1
sg278
F308.0253629684448
ssI122
(dp524
g8
F0.6194889545440674
sg268
S'./stimfiles/faces/cropped_415.png'
p525
sg270
F310.0
sg271
g272
sg273
I12
sg274
I1
sg275
F1.0
sg263
g276
sg277
I0
sg278
F310.02619314193726
ssI123
(dp526
g8
F0.69905686378479
sg268
S'./stimfiles/faces/cropped_515.png'
p527
sg270
F312.0
sg271
g272
sg273
I12
sg274
I1
sg275
F1.0
sg263
g276
sg277
I2
sg278
F312.01036310195923
ssI124
(dp528
g8
F0.5545198917388916
sg268
S'./stimfiles/faces/cropped_m-022-01.png'
p529
sg270
F314.0
sg271
g272
sg273
I12
sg274
I1
sg275
F1.0
sg263
g276
sg277
I0
sg278
F314.0111541748047
ssI125
(dp530
g8
F0.516862154006958
sg268
S'./stimfiles/faces/cropped_415.png'
p531
sg270
F316.0
sg271
g272
sg273
I12
sg274
I1
sg275
F1.0
sg263
g276
sg277
I3
sg278
F316.0120129585266
ssI126
(dp532
g8
F0.6960558891296387
sg268
S'./stimfiles/faces/cropped_m-022-01.png'
p533
sg270
F318.0
sg271
g272
sg273
I12
sg274
I1
sg275
F1.0
sg263
g276
sg277
I2
sg278
F318.0128540992737
ssI127
(dp534
g8
F0.6322689056396484
sg268
S'./stimfiles/faces/cropped_m-022-01.png'
p535
sg270
F320.0
sg271
g272
sg273
I12
sg274
I1
sg275
F1.0
sg263
g291
sg277
I1
sg278
F320.01363015174866
ssI128
(dp536
g8
F0.5834200382232666
sg268
S'./stimfiles/faces/cropped_862.png'
p537
sg270
F322.0
sg271
g272
sg273
I12
sg274
I1
sg275
F1.0
sg263
g276
sg277
I0
sg278
F322.01451301574707
ssI129
(dp538
g8
F0.6078801155090332
sg268
S'./stimfiles/faces/cropped_98a.png'
p539
sg270
F324.0
sg271
g272
sg273
I12
sg274
I1
sg275
F1.0
sg263
g276
sg277
I0
sg278
F324.01524901390076
ssI130
(dp540
g8
F0.5552711486816406
sg268
S'./stimfiles/scenes/15.jpg'
p541
sg270
F328.0
sg271
g300
sg273
I13
sg274
I1
sg275
F1.0
sg263
g276
sg277
I0
sg278
F328.01688504219055
ssI131
(dp542
g8
F0.4824690818786621
sg268
S'./stimfiles/scenes/1488.jpg'
p543
sg270
F330.0
sg271
g300
sg273
I13
sg274
I1
sg275
F1.0
sg263
g276
sg277
I0
sg278
F330.01776003837585
ssI132
(dp544
g8
F0.5557129383087158
sg268
S'./stimfiles/scenes/702.jpg'
p545
sg270
F332.0
sg271
g300
sg273
I13
sg274
I1
sg275
F1.0
sg263
g276
sg277
I0
sg278
F332.0186080932617
ssI133
(dp546
g8
F0.6288778781890869
sg268
S'./stimfiles/scenes/533.jpg'
p547
sg270
F334.0
sg271
g300
sg273
I13
sg274
I1
sg275
F1.0
sg263
g276
sg277
I0
sg278
F334.01944518089294
ssI134
(dp548
g8
F0.5311298370361328
sg268
S'./stimfiles/scenes/1488.jpg'
p549
sg270
F336.0
sg271
g300
sg273
I13
sg274
I1
sg275
F1.0
sg263
g276
sg277
I3
sg278
F336.02022314071655
ssI135
(dp550
g8
F0.6274759769439697
sg268
S'./stimfiles/scenes/1666.jpg'
p551
sg270
F338.0
sg271
g300
sg273
I13
sg274
I1
sg275
F1.0
sg263
g276
sg277
I0
sg278
F338.0209879875183
ssI136
(dp552
g8
F0.8037540912628174
sg268
S'./stimfiles/scenes/533.jpg'
p553
sg270
F340.0
sg271
g300
sg273
I13
sg274
I1
sg275
F1.0
sg263
g276
sg277
I3
sg278
F340.021821975708
ssI137
(dp554
g8
F0.6928479671478271
sg268
S'./stimfiles/scenes/917.jpg'
p555
sg270
F342.0
sg271
g300
sg273
I13
sg274
I1
sg275
F1.0
sg263
g276
sg277
I0
sg278
F342.02270102500916
ssI138
(dp556
g8
F0.7658319473266602
sg268
S'./stimfiles/scenes/533.jpg'
p557
sg270
F344.0
sg271
g300
sg273
I13
sg274
I1
sg275
F1.0
sg263
g276
sg277
I2
sg278
F344.00686717033386
ssI139
(dp558
g8
F0.7090070247650146
sg268
S'./stimfiles/scenes/1365.jpg'
p559
sg270
F346.0
sg271
g300
sg273
I13
sg274
I1
sg275
F1.0
sg263
g276
sg277
I0
sg278
F346.0076789855957
ssI140
(dp560
g8
F0.5658309459686279
sg268
S'./stimfiles/chinese_characters/24971.jpg'
p561
sg270
F350.0
sg271
g321
sg273
I14
sg274
I2
sg275
F1.0
sg263
g276
sg277
I0
sg278
F350.0259921550751
ssI141
(dp562
g8
F0.7789549827575684
sg268
S'./stimfiles/chinese_characters/25720.jpg'
p563
sg270
F352.0
sg271
g321
sg273
I14
sg274
I2
sg275
F1.0
sg263
g276
sg277
I0
sg278
F352.02683305740356
ssI142
(dp564
g8
F0.7160038948059082
sg268
S'./stimfiles/chinese_characters/24971.jpg'
p565
sg270
F354.0
sg271
g321
sg273
I14
sg274
I2
sg275
F1.0
sg263
g291
sg277
I2
sg278
F354.010929107666
ssI143
(dp566
g8
F0.6892051696777344
sg268
S'./stimfiles/chinese_characters/26517.jpg'
p567
sg270
F356.0
sg271
g321
sg273
I14
sg274
I2
sg275
F1.0
sg263
g276
sg277
I0
sg278
F356.01181197166443
ssI144
(dp568
g268
S'./stimfiles/chinese_characters/26517.jpg'
p569
sg270
F358.0
sg271
g321
sg273
I14
sg274
I2
sg275
F1.0
sg277
I1
sg278
F358.0125379562378
ssI145
(dp570
g8
F0.74468994140625
sg268
S'./stimfiles/chinese_characters/29914.jpg'
p571
sg270
F360.0
sg271
g321
sg273
I14
sg274
I2
sg275
F1.0
sg263
g276
sg277
I0
sg278
F360.0133831501007
ssI146
(dp572
g8
F0.8839309215545654
sg268
S'./stimfiles/chinese_characters/29729.jpg'
p573
sg270
F362.0
sg271
g321
sg273
I14
sg274
I2
sg275
F1.0
sg263
g276
sg277
I0
sg278
F362.0142080783844
ssI147
(dp574
g268
S'./stimfiles/chinese_characters/24904.jpg'
p575
sg270
F364.0
sg271
g321
sg273
I14
sg274
I2
sg275
F1.0
sg277
I0
sg278
F364.0150740146637
ssI148
(dp576
g8
F0.7263078689575195
sg268
S'./stimfiles/chinese_characters/20608.jpg'
p577
sg270
F366.0
sg271
g321
sg273
I14
sg274
I2
sg275
F1.0
sg263
g291
sg277
I0
sg278
F366.01589012145996
ssI149
(dp578
g8
F0.7995970249176025
sg268
S'./stimfiles/chinese_characters/24904.jpg'
p579
sg270
F368.0
sg271
g321
sg273
I14
sg274
I2
sg275
F1.0
sg263
g291
sg277
I2
sg278
F368.0167090892792
ssI150
(dp580
g8
F0.7082021236419678
sg268
S'./stimfiles/scenes/936.jpg'
p581
sg270
F372.0
sg271
g300
sg273
I15
sg274
I2
sg275
F1.0
sg263
g276
sg277
I0
sg278
F372.01828598976135
ssI151
(dp582
g8
F0.6424927711486816
sg268
S'./stimfiles/scenes/554.jpg'
p583
sg270
F374.0
sg271
g300
sg273
I15
sg274
I2
sg275
F1.0
sg263
g276
sg277
I0
sg278
F374.01913118362427
ssI152
(dp584
g8
F0.621649980545044
sg268
S'./stimfiles/scenes/1061.jpg'
p585
sg270
F376.0
sg271
g300
sg273
I15
sg274
I2
sg275
F1.0
sg263
g276
sg277
I0
sg278
F376.01993703842163
ssI153
(dp586
g8
F0.7137730121612549
sg268
S'./stimfiles/scenes/1035.jpg'
p587
sg270
F378.0
sg271
g300
sg273
I15
sg274
I2
sg275
F1.0
sg263
g276
sg277
I0
sg278
F378.0208179950714
ssI154
(dp588
g8
F0.8401439189910889
sg268
S'./stimfiles/scenes/1288.jpg'
p589
sg270
F380.0
sg271
g300
sg273
I15
sg274
I2
sg275
F1.0
sg263
g276
sg277
I0
sg278
F380.0215861797333
ssI155
(dp590
g268
S'./stimfiles/scenes/1035.jpg'
p591
sg270
F382.0
sg271
g300
sg273
I15
sg274
I2
sg275
F1.0
sg277
I2
sg278
F382.02243399620056
ssI156
(dp592
g8
F0.6625220775604248
sg268
S'./stimfiles/scenes/1035.jpg'
p593
sg270
F384.0
sg271
g300
sg273
I15
sg274
I2
sg275
F1.0
sg263
g276
sg277
I1
sg278
F384.0232479572296
ssI157
(dp594
g8
F0.7684519290924072
sg268
S'./stimfiles/scenes/1846.jpg'
p595
sg270
F386.0
sg271
g300
sg273
I15
sg274
I2
sg275
F1.0
sg263
g276
sg277
I0
sg278
F386.0073790550232
ssI158
(dp596
g8
F0.414700984954834
sg268
S'./stimfiles/scenes/1035.jpg'
p597
sg270
F388.0
sg271
g300
sg273
I15
sg274
I2
sg275
F1.0
sg263
g291
sg277
I2
sg278
F388.00822401046753
ssI159
(dp598
g8
F0.5199110507965088
sg268
S'./stimfiles/scenes/1220.jpg'
p599
sg270
F390.0
sg271
g300
sg273
I15
sg274
I2
sg275
F1.0
sg263
g276
sg277
I0
sg278
F390.0090570449829
ssI160
(dp600
g8
F0.49665379524230957
sg268
S'./stimfiles/chinese_characters/25415.jpg'
p601
sg270
F394.0
sg271
g321
sg273
I16
sg274
I1
sg275
F1.0
sg263
g276
sg277
I0
sg278
F394.02737617492676
ssI161
(dp602
g8
F0.6416268348693848
sg268
S'./stimfiles/chinese_characters/25902.jpg'
p603
sg270
F396.0
sg271
g321
sg273
I16
sg274
I1
sg275
F1.0
sg263
g276
sg277
I0
sg278
F396.0115201473236
ssI162
(dp604
g8
F0.5858697891235352
sg268
S'./stimfiles/chinese_characters/25709.jpg'
p605
sg270
F398.0
sg271
g321
sg273
I16
sg274
I1
sg275
F1.0
sg263
g276
sg277
I0
sg278
F398.0123071670532
ssI163
(dp606
g8
F0.5770688056945801
sg268
S'./stimfiles/chinese_characters/25902.jpg'
p607
sg270
F400.0
sg271
g321
sg273
I16
sg274
I1
sg275
F1.0
sg263
g276
sg277
I2
sg278
F400.01316118240356
ssI164
(dp608
g8
F0.7193548679351807
sg268
S'./stimfiles/chinese_characters/25169.jpg'
p609
sg270
F402.0
sg271
g321
sg273
I16
sg274
I1
sg275
F1.0
sg263
g276
sg277
I0
sg278
F402.0139350891113
ssI165
(dp610
g8
F0.6816179752349854
sg268
S'./stimfiles/chinese_characters/25129.jpg'
p611
sg270
F404.0
sg271
g321
sg273
I16
sg274
I1
sg275
F1.0
sg263
g276
sg277
I0
sg278
F404.01476407051086
ssI166
(dp612
g8
F0.6818599700927734
sg268
S'./stimfiles/chinese_characters/25902.jpg'
p613
sg270
F406.0
sg271
g321
sg273
I16
sg274
I1
sg275
F1.0
sg263
g276
sg277
I3
sg278
F406.0156571865082
ssI167
(dp614
g8
F0.6500411033630371
sg268
S'./stimfiles/chinese_characters/20638.jpg'
p615
sg270
F408.0
sg271
g321
sg273
I16
sg274
I1
sg275
F1.0
sg263
g276
sg277
I0
sg278
F408.01642298698425
ssI168
(dp616
g8
F0.5552740097045898
sg268
S'./stimfiles/chinese_characters/26869.jpg'
p617
sg270
F410.0
sg271
g321
sg273
I16
sg274
I1
sg275
F1.0
sg263
g276
sg277
I0
sg278
F410.01724004745483
ssI169
(dp618
g8
F0.707495927810669
sg268
S'./stimfiles/chinese_characters/20638.jpg'
p619
sg270
F412.0
sg271
g321
sg273
I16
sg274
I1
sg275
F1.0
sg263
g276
sg277
I2
sg278
F412.0180661678314
ssI170
(dp620
g8
F0.7518429756164551
sg268
S'./stimfiles/faces/cropped_i086qa-fn.png'
p621
sg270
F416.0
sg271
g272
sg273
I17
sg274
I2
sg275
F1.0
sg263
g276
sg277
I0
sg278
F416.0197870731354
ssI171
(dp622
g8
F0.726146936416626
sg268
S'./stimfiles/faces/cropped_300.png'
p623
sg270
F418.0
sg271
g272
sg273
I17
sg274
I2
sg275
F1.0
sg263
g276
sg277
I0
sg278
F418.0206060409546
ssI172
(dp624
g8
F0.793463945388794
sg268
S'./stimfiles/faces/cropped_i233ua-fn.png'
p625
sg270
F420.0
sg271
g272
sg273
I17
sg274
I2
sg275
F1.0
sg263
g276
sg277
I0
sg278
F420.02137517929077
ssI173
(dp626
g8
F0.9155938625335693
sg268
S'./stimfiles/faces/cropped_99a.png'
p627
sg270
F422.0
sg271
g272
sg273
I17
sg274
I2
sg275
F1.0
sg263
g276
sg277
I0
sg278
F422.02224016189575
ssI174
(dp628
g8
F0.8718070983886719
sg268
S'./stimfiles/faces/cropped_300.png'
p629
sg270
F424.0
sg271
g272
sg273
I17
sg274
I2
sg275
F1.0
sg263
g276
sg277
I3
sg278
F424.02299904823303
ssI175
(dp630
g8
F0.8353080749511719
sg268
S'./stimfiles/faces/cropped_f-032-01.png'
p631
sg270
F426.0
sg271
g272
sg273
I17
sg274
I2
sg275
F1.0
sg263
g276
sg277
I0
sg278
F426.02387499809265
ssI176
(dp632
g8
F0.8382828235626221
sg268
S'./stimfiles/faces/cropped_99a.png'
p633
sg270
F428.0
sg271
g272
sg273
I17
sg274
I2
sg275
F1.0
sg263
g276
sg277
I3
sg278
F428.0247311592102
ssI177
(dp634
g8
F0.5945508480072021
sg268
S'./stimfiles/faces/cropped_54.png'
p635
sg270
F430.0
sg271
g272
sg273
I17
sg274
I2
sg275
F1.0
sg263
g276
sg277
I0
sg278
F430.02553510665894
ssI178
(dp636
g8
F0.7058091163635254
sg268
S'./stimfiles/faces/cropped_f-032-01.png'
p637
sg270
F432.0
sg271
g272
sg273
I17
sg274
I2
sg275
F1.0
sg263
g276
sg277
I3
sg278
F432.02630496025085
ssI179
(dp638
g8
F0.6510519981384277
sg268
S'./stimfiles/faces/cropped_54.png'
p639
sg270
F434.0
sg271
g272
sg273
I17
sg274
I2
sg275
F1.0
sg263
g291
sg277
I2
sg278
F434.02715706825256
sssS'stim_log'
p640
(dp641
sS'nstims'
p642
I5
sS'inter_stim_int'
p643
F1.0
sS'SS'
p644
(dp645
sS'inst_time'
p646
F1.0
sS'broke_on_trial'
p647
(dp648
sS'events'
p649
(lp650
(lp651
F0.0
aI0
aI1
aI0
aS'inst'
p652
aa(lp653
F2.0
aI0
aI1
aI0
ag269
aa(lp654
F4.0
aI0
aI1
aI0
ag280
aa(lp655
F6.0
aI0
aI1
aI0
ag282
aa(lp656
F8.0
aI0
aI1
aI0
ag284
aa(lp657
F10.0
aI0
aI1
aI3
ag286
aa(lp658
F12.0
aI0
aI1
aI0
ag288
aa(lp659
F14.0
aI0
aI1
aI1
ag290
aa(lp660
F16.0
aI0
aI1
aI0
ag293
aa(lp661
F18.0
aI0
aI1
aI1
ag295
aa(lp662
F20.0
aI0
aI1
aI0
ag297
aa(lp663
F22.0
aI1
aI1
aI0
aS'inst'
p664
aa(lp665
F24.0
aI1
aI1
aI0
ag299
aa(lp666
F26.0
aI1
aI1
aI1
ag302
aa(lp667
F28.0
aI1
aI1
aI0
ag304
aa(lp668
F30.0
aI1
aI1
aI0
ag306
aa(lp669
F32.0
aI1
aI1
aI1
ag308
aa(lp670
F34.0
aI1
aI1
aI3
ag310
aa(lp671
F36.0
aI1
aI1
aI0
ag312
aa(lp672
F38.0
aI1
aI1
aI0
ag314
aa(lp673
F40.0
aI1
aI1
aI1
ag316
aa(lp674
F42.0
aI1
aI1
aI0
ag318
aa(lp675
F44.0
aI2
aI2
aI0
aS'inst'
p676
aa(lp677
F46.0
aI2
aI2
aI0
ag320
aa(lp678
F48.0
aI2
aI2
aI0
ag323
aa(lp679
F50.0
aI2
aI2
aI1
ag325
aa(lp680
F52.0
aI2
aI2
aI1
ag327
aa(lp681
F54.0
aI2
aI2
aI3
ag329
aa(lp682
F56.0
aI2
aI2
aI3
ag331
aa(lp683
F58.0
aI2
aI2
aI3
ag333
aa(lp684
F60.0
aI2
aI2
aI2
ag335
aa(lp685
F62.0
aI2
aI2
aI0
ag337
aa(lp686
F64.0
aI2
aI2
aI0
ag339
aa(lp687
F66.0
aI3
aI2
aI0
aS'inst'
p688
aa(lp689
F68.0
aI3
aI2
aI0
ag341
aa(lp690
F70.0
aI3
aI2
aI0
ag343
aa(lp691
F72.0
aI3
aI2
aI2
ag345
aa(lp692
F74.0
aI3
aI2
aI0
ag347
aa(lp693
F76.0
aI3
aI2
aI3
ag349
aa(lp694
F78.0
aI3
aI2
aI1
ag351
aa(lp695
F80.0
aI3
aI2
aI0
ag353
aa(lp696
F82.0
aI3
aI2
aI0
ag355
aa(lp697
F84.0
aI3
aI2
aI3
ag357
aa(lp698
F86.0
aI3
aI2
aI2
ag359
aa(lp699
F88.0
aI4
aI1
aI0
aS'inst'
p700
aa(lp701
F90.0
aI4
aI1
aI0
ag361
aa(lp702
F92.0
aI4
aI1
aI0
ag363
aa(lp703
F94.0
aI4
aI1
aI0
ag365
aa(lp704
F96.0
aI4
aI1
aI0
ag367
aa(lp705
F98.0
aI4
aI1
aI0
ag369
aa(lp706
F100.0
aI4
aI1
aI0
ag371
aa(lp707
F102.0
aI4
aI1
aI2
ag373
aa(lp708
F104.0
aI4
aI1
aI1
ag375
aa(lp709
F106.0
aI4
aI1
aI1
ag377
aa(lp710
F108.0
aI4
aI1
aI1
ag379
aa(lp711
F110.0
aI5
aI2
aI0
aS'inst'
p712
aa(lp713
F112.0
aI5
aI2
aI0
ag381
aa(lp714
F114.0
aI5
aI2
aI0
ag383
aa(lp715
F116.0
aI5
aI2
aI2
ag385
aa(lp716
F118.0
aI5
aI2
aI2
ag387
aa(lp717
F120.0
aI5
aI2
aI0
ag389
aa(lp718
F122.0
aI5
aI2
aI1
ag391
aa(lp719
F124.0
aI5
aI2
aI0
ag393
aa(lp720
F126.0
aI5
aI2
aI2
ag395
aa(lp721
F128.0
aI5
aI2
aI0
ag397
aa(lp722
F130.0
aI5
aI2
aI2
ag399
aa(lp723
F152.0
aI0
aI1
aI0
aS'inst'
p724
aa(lp725
F154.0
aI6
aI1
aI0
ag401
aa(lp726
F156.0
aI6
aI1
aI0
ag403
aa(lp727
F158.0
aI6
aI1
aI1
ag405
aa(lp728
F160.0
aI6
aI1
aI0
ag407
aa(lp729
F162.0
aI6
aI1
aI0
ag409
aa(lp730
F164.0
aI6
aI1
aI0
ag411
aa(lp731
F166.0
aI6
aI1
aI2
ag413
aa(lp732
F168.0
aI6
aI1
aI1
ag415
aa(lp733
F170.0
aI6
aI1
aI0
ag417
aa(lp734
F172.0
aI6
aI1
aI3
ag419
aa(lp735
F174.0
aI1
aI1
aI0
aS'inst'
p736
aa(lp737
F176.0
aI7
aI1
aI0
ag421
aa(lp738
F178.0
aI7
aI1
aI1
ag423
aa(lp739
F180.0
aI7
aI1
aI0
ag425
aa(lp740
F182.0
aI7
aI1
aI0
ag427
aa(lp741
F184.0
aI7
aI1
aI2
ag429
aa(lp742
F186.0
aI7
aI1
aI2
ag431
aa(lp743
F188.0
aI7
aI1
aI0
ag433
aa(lp744
F190.0
aI7
aI1
aI0
ag435
aa(lp745
F192.0
aI7
aI1
aI1
ag437
aa(lp746
F194.0
aI7
aI1
aI1
ag439
aa(lp747
F196.0
aI2
aI2
aI0
aS'inst'
p748
aa(lp749
F198.0
aI8
aI2
aI0
ag441
aa(lp750
F200.0
aI8
aI2
aI0
ag443
aa(lp751
F202.0
aI8
aI2
aI2
ag445
aa(lp752
F204.0
aI8
aI2
aI0
ag447
aa(lp753
F206.0
aI8
aI2
aI0
ag449
aa(lp754
F208.0
aI8
aI2
aI0
ag451
aa(lp755
F210.0
aI8
aI2
aI2
ag453
aa(lp756
F212.0
aI8
aI2
aI0
ag455
aa(lp757
F214.0
aI8
aI2
aI0
ag457
aa(lp758
F216.0
aI8
aI2
aI2
ag459
aa(lp759
F218.0
aI3
aI2
aI0
aS'inst'
p760
aa(lp761
F220.0
aI9
aI2
aI0
ag461
aa(lp762
F222.0
aI9
aI2
aI0
ag463
aa(lp763
F224.0
aI9
aI2
aI2
ag465
aa(lp764
F226.0
aI9
aI2
aI0
ag467
aa(lp765
F228.0
aI9
aI2
aI0
ag469
aa(lp766
F230.0
aI9
aI2
aI0
ag471
aa(lp767
F232.0
aI9
aI2
aI2
ag473
aa(lp768
F234.0
aI9
aI2
aI1
ag475
aa(lp769
F236.0
aI9
aI2
aI0
ag477
aa(lp770
F238.0
aI9
aI2
aI3
ag479
aa(lp771
F240.0
aI4
aI1
aI0
aS'inst'
p772
aa(lp773
F242.0
aI10
aI1
aI0
ag481
aa(lp774
F244.0
aI10
aI1
aI0
ag483
aa(lp775
F246.0
aI10
aI1
aI1
ag485
aa(lp776
F248.0
aI10
aI1
aI3
ag487
aa(lp777
F250.0
aI10
aI1
aI1
ag489
aa(lp778
F252.0
aI10
aI1
aI0
ag491
aa(lp779
F254.0
aI10
aI1
aI0
ag493
aa(lp780
F256.0
aI10
aI1
aI0
ag495
aa(lp781
F258.0
aI10
aI1
aI1
ag497
aa(lp782
F260.0
aI10
aI1
aI3
ag499
aa(lp783
F262.0
aI5
aI2
aI0
aS'inst'
p784
aa(lp785
F264.0
aI11
aI2
aI0
ag501
aa(lp786
F266.0
aI11
aI2
aI0
ag503
aa(lp787
F268.0
aI11
aI2
aI0
ag505
aa(lp788
F270.0
aI11
aI2
aI1
ag507
aa(lp789
F272.0
aI11
aI2
aI0
ag509
aa(lp790
F274.0
aI11
aI2
aI0
ag511
aa(lp791
F276.0
aI11
aI2
aI0
ag513
aa(lp792
F278.0
aI11
aI2
aI2
ag515
aa(lp793
F280.0
aI11
aI2
aI1
ag517
aa(lp794
F282.0
aI11
aI2
aI0
ag519
aa(lp795
F304.0
aI0
aI1
aI0
aS'inst'
p796
aa(lp797
F306.0
aI12
aI1
aI0
ag521
aa(lp798
F308.0
aI12
aI1
aI1
ag523
aa(lp799
F310.0
aI12
aI1
aI0
ag525
aa(lp800
F312.0
aI12
aI1
aI2
ag527
aa(lp801
F314.0
aI12
aI1
aI0
ag529
aa(lp802
F316.0
aI12
aI1
aI3
ag531
aa(lp803
F318.0
aI12
aI1
aI2
ag533
aa(lp804
F320.0
aI12
aI1
aI1
ag535
aa(lp805
F322.0
aI12
aI1
aI0
ag537
aa(lp806
F324.0
aI12
aI1
aI0
ag539
aa(lp807
F326.0
aI1
aI1
aI0
aS'inst'
p808
aa(lp809
F328.0
aI13
aI1
aI0
ag541
aa(lp810
F330.0
aI13
aI1
aI0
ag543
aa(lp811
F332.0
aI13
aI1
aI0
ag545
aa(lp812
F334.0
aI13
aI1
aI0
ag547
aa(lp813
F336.0
aI13
aI1
aI3
ag549
aa(lp814
F338.0
aI13
aI1
aI0
ag551
aa(lp815
F340.0
aI13
aI1
aI3
ag553
aa(lp816
F342.0
aI13
aI1
aI0
ag555
aa(lp817
F344.0
aI13
aI1
aI2
ag557
aa(lp818
F346.0
aI13
aI1
aI0
ag559
aa(lp819
F348.0
aI2
aI2
aI0
aS'inst'
p820
aa(lp821
F350.0
aI14
aI2
aI0
ag561
aa(lp822
F352.0
aI14
aI2
aI0
ag563
aa(lp823
F354.0
aI14
aI2
aI2
ag565
aa(lp824
F356.0
aI14
aI2
aI0
ag567
aa(lp825
F358.0
aI14
aI2
aI1
ag569
aa(lp826
F360.0
aI14
aI2
aI0
ag571
aa(lp827
F362.0
aI14
aI2
aI0
ag573
aa(lp828
F364.0
aI14
aI2
aI0
ag575
aa(lp829
F366.0
aI14
aI2
aI0
ag577
aa(lp830
F368.0
aI14
aI2
aI2
ag579
aa(lp831
F370.0
aI3
aI2
aI0
aS'inst'
p832
aa(lp833
F372.0
aI15
aI2
aI0
ag581
aa(lp834
F374.0
aI15
aI2
aI0
ag583
aa(lp835
F376.0
aI15
aI2
aI0
ag585
aa(lp836
F378.0
aI15
aI2
aI0
ag587
aa(lp837
F380.0
aI15
aI2
aI0
ag589
aa(lp838
F382.0
aI15
aI2
aI2
ag591
aa(lp839
F384.0
aI15
aI2
aI1
ag593
aa(lp840
F386.0
aI15
aI2
aI0
ag595
aa(lp841
F388.0
aI15
aI2
aI2
ag597
aa(lp842
F390.0
aI15
aI2
aI0
ag599
aa(lp843
F392.0
aI4
aI1
aI0
aS'inst'
p844
aa(lp845
F394.0
aI16
aI1
aI0
ag601
aa(lp846
F396.0
aI16
aI1
aI0
ag603
aa(lp847
F398.0
aI16
aI1
aI0
ag605
aa(lp848
F400.0
aI16
aI1
aI2
ag607
aa(lp849
F402.0
aI16
aI1
aI0
ag609
aa(lp850
F404.0
aI16
aI1
aI0
ag611
aa(lp851
F406.0
aI16
aI1
aI3
ag613
aa(lp852
F408.0
aI16
aI1
aI0
ag615
aa(lp853
F410.0
aI16
aI1
aI0
ag617
aa(lp854
F412.0
aI16
aI1
aI2
ag619
aa(lp855
F414.0
aI5
aI2
aI0
aS'inst'
p856
aa(lp857
F416.0
aI17
aI2
aI0
ag621
aa(lp858
F418.0
aI17
aI2
aI0
ag623
aa(lp859
F420.0
aI17
aI2
aI0
ag625
aa(lp860
F422.0
aI17
aI2
aI0
ag627
aa(lp861
F424.0
aI17
aI2
aI3
ag629
aa(lp862
F426.0
aI17
aI2
aI0
ag631
aa(lp863
F428.0
aI17
aI2
aI3
ag633
aa(lp864
F430.0
aI17
aI2
aI0
ag635
aa(lp865
F432.0
aI17
aI2
aI3
ag637
aa(lp866
F434.0
aI17
aI2
aI2
ag639
aasS'is_this_SS_trial'
p867
(dp868
sS'subcode'
p869
S'self_tracking_0051'
p870
sS'start_key'
p871
S'5'
p872
s.