(dp0
S'stim_onset_time'
p1
(dp2
sS'datestamp'
p3
S'2012-12-13-07_42_05'
p4
sS'ntrials_per_block'
p5
I6
sS'expt_title'
p6
S'Self_Tracking'
p7
sS'rt'
p8
(dp9
sS'simulated_response'
p10
I00
sS'script'
p11
(lp12
S'#!/usr/bin/env python\n'
p13
aS'\n'
p14
aS'import psychopy\n'
p15
aS'from psychopy import visual, core, event, logging, data, misc, sound\n'
p16
aS'import numpy as N\n'
p17
aS'import pickle,csv\n'
p18
aS'import datetime\n'
p19
aS'import sys\n'
p20
aS'import os, socket, random\n'
p21
aS'import inspect\n'
p22
aS'import hashlib\n'
p23
aS'from socket import gethostname\n'
p24
aS'import exptutils\n'
p25
aS'from exptutils import *\n'
p26
aS'from pylab import imread\n'
p27
ag14
aS'try:\n'
p28
aS'    from save_data_to_db import *\n'
p29
aS'    save_data=1\n'
p30
aS'except:\n'
p31
aS"    print 'cannnot import save_data_to_db'\n"
p32
aS'    save_data=0\n'
p33
ag14
aS'def store_scriptfile():\n'
p34
aS'    scriptfile= inspect.getfile(inspect.currentframe())# save a copy of the script in the data file\n'
p35
aS'    f=open(scriptfile)\n'
p36
aS'    script=f.readlines()\n'
p37
aS'    f.close()\n'
p38
aS'    return script\n'
p39
ag14
aS'#\n'
p40
aS'#- - - - - - - - - - - - - - - - - - - - - - - - - - - - - - - - - - - - - - - - - - - - - - - - - - - - - - - - - - - - - - - - - - - - - - - - - - - - - -\n'
p41
aS'#define functions for awaiting keyboard input & displaying initial instructions\n'
p42
aS'#these functions will be called prior to the stim_block() function (at bottom)\n'
p43
ag14
aS'def wait_for_trigger():\n'
p44
aS'    event.clearEvents()\n'
p45
aS"    if subdata['simulated_response']:\n"
p46
aS'        msg="SIMULATION MODE"\n'
p47
aS'    else:\n'
p48
aS"        msg=''\n"
p49
aS"    message=visual.TextStim(win, text='%s Waiting for start key (or press %s)'%(msg,subdata['start_key']),\n"
p50
aS"    font='BiauKai', height=1,color=u'white', colorSpace=u'rgb', opacity=1,depth=0.0,\n"
p51
aS"    alignHoriz='center',wrapWidth=50)\n"
p52
aS'    message.setAutoDraw(True) #automatically draw every frame\n'
p53
aS'    win.flip()\n'
p54
aS'    start=False\n'
p55
aS'    while start==False:\n'
p56
aS'        k=event.waitKeys()\n'
p57
aS"        if k.count(subdata['start_key'])>0:#as soon as subdata['start_key'] is pressed...\n"
p58
aS'            start=True\n'
p59
aS"            message.setText('')#this clears the screen\n"
p60
aS'            win.flip()\n'
p61
aS"        if k.count(subdata['quit_key']) >0:# if subdata['quit_key'] is pressed...\n"
p62
aS'            exptutils.shut_down_cleanly(subdata,win)\n'
p63
aS'            return subdata\n'
p64
aS'            \n'
p65
aS"def instructions(n,duration):#n here changes depending on the n-back level; yes/no will also switch between 'u' & 'i' keys depending on the Order number selected\n"
p66
aS'    event.clearEvents()\n'
p67
aS"    instructions=visual.TextStim(win=win, ori=0, name='instructions',font='BiauKai',\n"
p68
aS"        text='%d back'%n,\n"
p69
aS"        height=2,color=u'white', colorSpace=u'rgb', alignHoriz='center',wrapWidth=50)\n"
p70
aS'    instructions.setAutoDraw(True)\n'
p71
aS'    win.flip()\n'
p72
aS'    core.wait(duration)#currently it is set up to keep instructions on screen the designated amt of time; a button press will not end these instructions sooner\n'
p73
aS"    instructions.setText('')\n"
p74
aS'    win.flip()\n'
p75
ag14
aS'#- - - - - - - - - - - - - - - - - - - - - - - - - - - - - - - - - - - - - - - - - - - - - - - - - - - - - - - - - - - - - - - - - - - - - - - - \n'
p76
ag14
ag14
aS'#define function for displaying visual stims for each trial on n-back task\n'
p77
ag14
aS'def draw_stim(win,event_info,subdata,visual_stim):\n'
p78
aS'    trialdata={}\n'
p79
aS"    trialdata['duration']=subdata['stim_dur']\n"
p80
aS"    trialdata['onset'],trialdata['block'],trialdata['nback'],trialdata['match'],trialdata['stim']=event_info\n"
p81
aS'    # NB: I removed a lot of data handling stuff from within this function\n'
p82
aS'    # instead, the data get returned and handled at the calling level\n'
p83
aS"    print trialdata['stim']\n"
p84
aS"    if trialdata['stim'].find('faces')>-1:#if it is a face image, display vertically\n"
p85
aS"        stim_type='faces'\n"
p86
aS"    elif trialdata['stim'].find('scenes')>-1:#\n"
p87
aS"        stim_type='scenes'\n"
p88
aS'    else:#if it is a character, display as text\n'
p89
aS"        stim_type='chinese_characters'\n"
p90
aS'        \n'
p91
aS"    visual_stim.setImage(trialdata['stim'])\n"
p92
aS"    trialdata['stim_type']=stim_type\n"
p93
aS'    \n'
p94
aS'        #visual_stim[stim_type].setAutoDraw(True)#get the image ready to display\n'
p95
aS'    visual_stim.draw()\n'
p96
aS"    while clock.getTime()<trialdata['onset']:#wait until the specified onset time to display image_file\n"
p97
aS'        pass\n'
p98
aS'    win.flip()\n'
p99
aS"    trialdata['actual_onset_time']=clock.getTime()\n"
p100
aS'    event.clearEvents()#clear all button presses\n'
p101
aS'    thisResp=None\n'
p102
aS'    simulated_rt=0.5 + N.random.rand()*0.1\n'
p103
aS"    while clock.getTime() < (trialdata['actual_onset_time'] + trialdata['duration']):#before the subdata['stim_dur'] time is exceeded, do this stuff...\n"
p104
aS'            key_response=event.getKeys()#look for yes,no, and quit commands\n'
p105
aS"            if subdata['simulated_response']:\n"
p106
aS"                if clock.getTime()> trialdata['actual_onset_time'] + simulated_rt:\n"
p107
aS'                    thisResp=1\n'
p108
aS"                    trialdata['rt']=clock.getTime() - trialdata['actual_onset_time'] #collect rt\n"
p109
aS"                    if trialdata['match']==trialdata['nback']:\n"
p110
aS"                        trialdata['response']='4'\n"
p111
aS'                    else:\n'
p112
aS"                        trialdata['response']='1'\n"
p113
ag14
aS'            elif key_response:#if they press any button\n'
p114
aS"                if key_response.count(subdata['quit_key'])>0:#if subj hits subdata['quit_key']...\n"
p115
aS'                    keep_going=0\n'
p116
aS"                    #subdata['broke_on_trial'][which_block]=trial_num\n"
p117
aS'                    #shut_down_cleanly(subdata,win)\n'
p118
aS'                    return None\n'
p119
aS"                elif key_response.count('5')>0:\n"
p120
aS"                    subdata['trigger_times'].append(clock.getTime())\n"
p121
aS'                else:\n'
p122
aS'                    thisResp=1\n'
p123
aS"                    trialdata['rt']=clock.getTime() - trialdata['actual_onset_time'] #collect rt\n"
p124
aS"                    trialdata['response']=key_response[0]#collect response\n"
p125
ag14
aS'    visual_stim.clearTextures()\n'
p126
ag14
aS'    win.flip()\n'
p127
ag14
aS'    #del visual_stim\n'
p128
aS'    return trialdata\n'
p129
aS'    \n'
p130
ag14
ag14
aS'#Text saying the task has finished. Disappears with key press\n'
p131
ag14
aS'def display_finished_text():#finished with experiment\n'
p132
aS'    event.clearEvents()\n'
p133
aS'    message=visual.TextStim(win=win, ori=0,\n'
p134
aS"    text='All finished! Thanks  :) \\n Press any key to clear the screen.',\n"
p135
aS"    font=u'BiauKai',pos=[0, 0], height=2,color=u'white', colorSpace=u'rgb', opacity=1,depth=0.0,alignHoriz='center',wrapWidth=50)\n"
p136
aS'    message.setAutoDraw(True) \n'
p137
aS'    win.flip()\n'
p138
aS'    start=False\n'
p139
aS'    while start==False:\n'
p140
aS'        key_response=event.getKeys()\n'
p141
aS'        if len(key_response)>0:\n'
p142
aS'            start=True\n'
p143
aS"            message.setText('')#this clears the screen\n"
p144
aS'            win.flip()\n'
p145
aS'    return start\n'
p146
aS'#- - - - - - - - - - - - - - - - - - - - - - - - - - - - - - - - - - - - - - - - - - - - - - - - - - - - - - - - - - - - - - - - - - - - - - \n'
p147
ag14
aS'    \n'
p148
aS'#set-up some variables\n'
p149
ag14
aS'verbose=True\n'
p150
aS'fullscr=False  # change to True for full screen display\n'
p151
ag14
aS"stim_types=['faces','scenes','chinese_characters']\n"
p152
aS'subdata={}\n'
p153
aS'finish_time=440\n'
p154
ag14
aS"subdata['start_key']='5'\n"
p155
aS"subdata['quit_key']='q'\n"
p156
aS"subdata['discard_time_to_wait']=0.0\n"
p157
aS"subdata['expt_title']='Self_Tracking'\n"
p158
aS"subdata['stim_dur']=1.0\n"
p159
aS"subdata['inter_stim_int']=1.0\n"
p160
aS"subdata['inst_time']=1.0\n"
p161
aS"subdata['rest_time']=10.0\n"
p162
aS"subdata['ExpVersion']=0.1\n"
p163
aS"subdata['nstims']=5\n"
p164
aS"subdata['ntrials_per_block']=6\n"
p165
aS"subdata['simulated_response']=False\n"
p166
aS"subdata['trigger_times']=[]\n"
p167
ag14
aS'if len(sys.argv)<2:\n'
p168
aS"    print 'USAGE: self_tracking.py <stimlist> <session code>'\n"
p169
aS'    sys.exit()\n'
p170
aS"    #subdata['onsetfile']='/Users/poldrack/Dropbox/Documents/Projects/self-tracking/task/onsetlists/stimlist_000.txt'\n"
p171
aS'else:\n'
p172
aS"    subdata['onsetfile']=sys.argv[1]\n"
p173
aS"    subdata['subcode']=sys.argv[2]\n"
p174
ag14
ag14
aS'# initialize subdata dictionary to store info about the study\n'
p175
aS"subdata['completed']=0\n"
p176
aS"subdata['cwd']=os.getcwd()\n"
p177
aS"subdata['hostname']=socket.gethostname()\n"
p178
aS'clock=core.Clock()\n'
p179
aS'datestamp=datetime.datetime.now().strftime("%Y-%m-%d-%H_%M_%S")\n'
p180
aS"subdata['datestamp']=datestamp\n"
p181
aS"subdata['expt_title']=subdata['expt_title']\n"
p182
aS"subdata['script']=store_scriptfile()\n"
p183
aS"subdata['onsets']=subdata['onsetfile']\n"
p184
ag14
aS'#these are all sub-dictionaries which will be appended w/separate info for each block & each trial\n'
p185
aS"#i.e., the 'response' dictionary will contain the following dictionaries: face_1, face_2, scenes_1, scenes_2, whose keys are trial_num and values are the responses on that trial\n"
p186
aS"subdata['response']={}\n"
p187
aS"subdata['score']={}\n"
p188
aS"subdata['rt']={}\n"
p189
aS"subdata['stim_onset_time']={}\n"
p190
aS"subdata['stim_log']={}\n"
p191
aS"subdata['is_this_SS_trial']={}\n"
p192
aS"subdata['SS']={}\n"
p193
aS"subdata['broke_on_trial']={}\n"
p194
ag14
aS'# set up logging information & create Output directories\n'
p195
aS"if not os.path.isdir('Output'):#make an Output directory if necessary\n"
p196
aS"    os.makedirs('Output') \n"
p197
ag14
aS"dataFileName='Output/%s_%s_subdata.log'%(subdata['subcode'],subdata['datestamp'])\n"
p198
aS'logging.console.setLevel(logging.INFO)\n'
p199
aS'logfile=logging.LogFile(dataFileName,level=logging.INFO)\n'
p200
ag14
aS'# load stimulus file\n'
p201
ag14
aS'def load_stimulus_file(onsfile):\n'
p202
aS'    events=[]\n'
p203
aS'    f=open(onsfile)\n'
p204
aS'    l=f.readlines()\n'
p205
aS'    for line in l:\n'
p206
aS"        l_s=line.strip('\\n').split('\\t')\n"
p207
aS'        events.append([float(l_s[0]),int(l_s[1]),int(l_s[2]),int(l_s[3]),l_s[4]])\n'
p208
aS'    f.close()\n'
p209
aS'    return events\n'
p210
ag14
aS"events=load_stimulus_file(subdata['onsetfile'])\n"
p211
ag14
aS'# set up the window \n'
p212
aS"win = visual.Window([800,600],allowGUI=True, fullscr=True, monitor='testMonitor', units='deg')\n"
p213
aS"win.setColor('black')\n"
p214
aS'win.flip()\n'
p215
aS'win.flip()\n'
p216
ag14
aS'#integrating everything together\n'
p217
ag14
aS"subdata['trialdata']={}\n"
p218
aS'#chardict=create_characters_dict()\n'
p219
ag14
aS"wait_for_trigger()#wait for subdata['start_key'] to be pressed\n"
p220
ag14
aS'visual_stim={}\n'
p221
aS"visual_stim=visual.ImageStim(win, image=N.zeros((10,10)), size=(0.75,0.75),units='height')\n"
p222
ag14
aS'# set clock to zero\n'
p223
aS'clock.reset()\n'
p224
aS'trialctr=0\n'
p225
aS'for i in range(len(events)):\n'
p226
aS"    if events[i][4]=='inst':\n"
p227
aS'        while clock.getTime() < events[i][0]:\n'
p228
aS'            pass\n'
p229
aS"        instructions(events[i][2],subdata['inst_time'])\n"
p230
aS'    else:\n'
p231
aS"        subdata['trialdata'][trialctr]=draw_stim(win,events[i],subdata,visual_stim)\n"
p232
aS"        if subdata['trialdata'][trialctr]==None:\n"
p233
aS'            break\n'
p234
aS'        trialctr+=1\n'
p235
aS"        print 'return time:',clock.getTime()\n"
p236
ag14
aS'#display_finished_text()\n'
p237
aS'while clock.getTime()<finish_time:\n'
p238
aS'\tpass\n'
p239
aS'\t\n'
p240
aS"subdata['events']=events\n"
p241
aS'if save_data==1:\n'
p242
aS"    docId,docRev=save_data_to_db(subdata,'selftracking-taskdata')\n"
p243
ag14
aS'shut_down_cleanly(subdata,win)\n'
p244
asS'onsets'
p245
S'onsetlists/stimlist_003.txt'
p246
sS'hostname'
p247
S'IRC-arizona'
p248
sS'score'
p249
(dp250
sS'rest_time'
p251
F10.0
sS'cwd'
p252
S'/Users/rap2623/Dropbox/Documents/Projects/self-tracking/task'
p253
sS'trigger_times'
p254
(lp255
F2.2849879264831543
aF4.604924917221069
aF6.925139904022217
aF8.085376024246216
aF10.405253887176514
aF12.725328922271729
aF16.204483032226562
aF18.524329900741577
aF20.84456992149353
aF24.32475185394287
aF26.644788026809692
aF28.964810848236084
aF30.12501883506775
aF32.44500184059143
aF34.76490783691406
aF38.24517583847046
aF40.56519293785095
aF42.885257959365845
aF46.36537003517151
aF48.68544101715088
aF51.00547480583191
aF52.165607929229736
aF54.48561382293701
aF56.805646896362305
aF60.285789012908936
aF62.60587000846863
aF64.92583394050598
aF68.40504693984985
aF70.72510385513306
aF74.20530796051025
aF76.52526497840881
aF78.84547281265259
aF82.32549500465393
aF84.64568781852722
aF86.96561098098755
aF90.44563889503479
aF92.76579880714417
aF96.24596786499023
aF98.56598496437073
aF100.88601493835449
aF102.0462589263916
aF104.36616396903992
aF106.68623089790344
aF109.0062780380249
aF112.48635601997375
aF114.80659699440002
aF118.28562688827515
aF120.60559582710266
aF122.92569398880005
aF124.0858838558197
aF126.40582489967346
aF128.72574281692505
aF154.24668884277344
aF156.56674885749817
aF158.8868010044098
aF160.04696083068848
aF162.36690187454224
aF164.68691682815552
aF167.00700998306274
aF168.166100025177
aF170.48610186576843
aF172.8062288761139
aF176.28639888763428
aF178.60639786720276
aF180.92642498016357
aF182.0866048336029
aF184.40657091140747
aF186.7265968322754
aF190.20682382583618
aF192.52680802345276
aF194.84684491157532
aF198.32701802253723
aF200.6470968723297
aF202.96708393096924
aF204.12730193138123
aF206.447331905365
aF208.76731991767883
aF212.24733090400696
aF214.5675070285797
aF216.8865578174591
aF220.36667680740356
aF222.68671083450317
aF225.00680494308472
aF226.16694903373718
aF228.48678183555603
aF230.80695295333862
aF234.2871448993683
aF236.60724401474
aF238.9271879196167
aF242.40733098983765
aF244.72738599777222
aF248.207515001297
aF250.5275800228119
aF252.84761691093445
aF256.32779598236084
aF258.64786100387573
aF260.96796798706055
aF264.4479718208313
aF266.7680809497833
aF270.2472689151764
aF272.56726598739624
aF274.8873059749603
aF276.0473139286041
aF278.36735582351685
aF280.68750190734863
aF283.0074918270111
aF306.20841693878174
aF308.5283570289612
aF310.8483989238739
aF314.32840299606323
aF316.64858293533325
aF318.968722820282
aF320.1278488636017
aF322.44756984710693
aF324.76780796051025
aF328.24802589416504
aF330.5680158138275
aF332.8880479335785
aF334.04825091362
aF336.36818981170654
aF338.688423871994
aF341.00831604003906
aF342.16849088668823
aF344.4884808063507
aF346.8085458278656
aF350.2885899543762
aF352.60866594314575
aF354.9287989139557
aF356.0889539718628
aF358.4088718891144
aF360.72892689704895
aF364.2090759277344
aF366.529070854187
aF368.8491508960724
aF372.3282890319824
aF374.6483359336853
aF376.9683790206909
aF378.1285328865051
aF380.4485249519348
aF382.76856088638306
aF386.2487540245056
aF388.56871581077576
aF390.8887858390808
aF394.36896300315857
aF396.6889679431915
aF399.00905203819275
aF400.16914892196655
aF402.4891879558563
aF404.80915904045105
aF408.28935384750366
aF410.60942101478577
aF412.9295120239258
aF416.4096188545227
aF418.7296109199524
aF422.2088098526001
aF424.52882981300354
aF426.8488428592682
aF430.32900881767273
aF432.64906001091003
aF434.96931195259094
asS'ExpVersion'
p256
F0.1
sS'completed'
p257
I0
sS'stim_dur'
p258
F1.0
sS'quit_key'
p259
S'q'
p260
sS'onsetfile'
p261
g246
sS'discard_time_to_wait'
p262
F0.0
sS'response'
p263
(dp264
sS'trialdata'
p265
(dp266
I0
(dp267
g8
F0.8656890392303467
sS'stim'
p268
S'./stimfiles/scenes/1763.jpg'
p269
sS'onset'
p270
F2.0
sS'stim_type'
p271
S'scenes'
p272
sS'block'
p273
I0
sS'nback'
p274
I1
sS'duration'
p275
F1.0
sg263
S'1'
p276
sS'match'
p277
I0
sS'actual_onset_time'
p278
F2.0163769721984863
ssI1
(dp279
g8
F0.6868658065795898
sg268
S'./stimfiles/scenes/1763.jpg'
p280
sg270
F4.0
sg271
g272
sg273
I0
sg274
I1
sg275
F1.0
sg263
S'4'
p281
sg277
I1
sg278
F4.0171990394592285
ssI2
(dp282
g8
F0.793032169342041
sg268
S'./stimfiles/scenes/1763.jpg'
p283
sg270
F6.0
sg271
g272
sg273
I0
sg274
I1
sg275
F1.0
sg263
g281
sg277
I1
sg278
F6.018082857131958
ssI3
(dp284
g8
F0.5470199584960938
sg268
S'./stimfiles/scenes/612.jpg'
p285
sg270
F8.0
sg271
g272
sg273
I0
sg274
I1
sg275
F1.0
sg263
g276
sg277
I0
sg278
F8.018898963928223
ssI4
(dp286
g8
F0.9275860786437988
sg268
S'./stimfiles/scenes/1763.jpg'
p287
sg270
F10.0
sg271
g272
sg273
I0
sg274
I1
sg275
F1.0
sg263
g281
sg277
I3
sg278
F10.019676923751831
ssI5
(dp288
g8
F0.718897819519043
sg268
S'./stimfiles/scenes/1818.jpg'
p289
sg270
F12.0
sg271
g272
sg273
I0
sg274
I1
sg275
F1.0
sg263
g276
sg277
I0
sg278
F12.020539999008179
ssI6
(dp290
g8
F0.5968220233917236
sg268
S'./stimfiles/scenes/612.jpg'
p291
sg270
F14.0
sg271
g272
sg273
I0
sg274
I1
sg275
F1.0
sg263
g276
sg277
I3
sg278
F14.00461483001709
ssI7
(dp292
g8
F0.7918441295623779
sg268
S'./stimfiles/scenes/1818.jpg'
p293
sg270
F16.0
sg271
g272
sg273
I0
sg274
I1
sg275
F1.0
sg263
g276
sg277
I2
sg278
F16.005520820617676
ssI8
(dp294
g8
F0.5452048778533936
sg268
S'./stimfiles/scenes/1531.jpg'
p295
sg270
F18.0
sg271
g272
sg273
I0
sg274
I1
sg275
F1.0
sg263
g276
sg277
I0
sg278
F18.006319999694824
ssI9
(dp296
g8
F0.551163911819458
sg268
S'./stimfiles/scenes/632.jpg'
p297
sg270
F20.0
sg271
g272
sg273
I0
sg274
I1
sg275
F1.0
sg263
g276
sg277
I0
sg278
F20.007179021835327
ssI10
(dp298
g8
F0.799429178237915
sg268
S'./stimfiles/chinese_characters/37248.jpg'
p299
sg270
F24.0
sg271
S'chinese_characters'
p300
sg273
I1
sg274
I1
sg275
F1.0
sg263
g276
sg277
I0
sg278
F24.025437831878662
ssI11
(dp301
g8
F0.7281777858734131
sg268
S'./stimfiles/chinese_characters/37248.jpg'
p302
sg270
F26.0
sg271
g300
sg273
I1
sg274
I1
sg275
F1.0
sg263
g281
sg277
I1
sg278
F26.00956702232361
ssI12
(dp303
g8
F0.940410852432251
sg268
S'./stimfiles/chinese_characters/20653.jpg'
p304
sg270
F28.0
sg271
g300
sg273
I1
sg274
I1
sg275
F1.0
sg263
g281
sg277
I0
sg278
F28.010427951812744
ssI13
(dp305
g8
F0.6475908756256104
sg268
S'./stimfiles/chinese_characters/20653.jpg'
p306
sg270
F30.0
sg271
g300
sg273
I1
sg274
I1
sg275
F1.0
sg263
g281
sg277
I1
sg278
F30.011270999908447
ssI14
(dp307
g8
F0.4509398937225342
sg268
S'./stimfiles/chinese_characters/24756.jpg'
p308
sg270
F32.0
sg271
g300
sg273
I1
sg274
I1
sg275
F1.0
sg263
g276
sg277
I0
sg278
F32.01210594177246
ssI15
(dp309
g8
F0.6580588817596436
sg268
S'./stimfiles/chinese_characters/26408.jpg'
p310
sg270
F34.0
sg271
g300
sg273
I1
sg274
I1
sg275
F1.0
sg263
g276
sg277
I0
sg278
F34.01295495033264
ssI16
(dp311
g8
F0.7713809013366699
sg268
S'./stimfiles/chinese_characters/25560.jpg'
p312
sg270
F36.0
sg271
g300
sg273
I1
sg274
I1
sg275
F1.0
sg263
g276
sg277
I0
sg278
F36.01378297805786
ssI17
(dp313
g8
F0.5435101985931396
sg268
S'./stimfiles/chinese_characters/24756.jpg'
p314
sg270
F38.0
sg271
g300
sg273
I1
sg274
I1
sg275
F1.0
sg263
g276
sg277
I3
sg278
F38.014604806900024
ssI18
(dp315
g8
F0.5377590656280518
sg268
S'./stimfiles/chinese_characters/24756.jpg'
p316
sg270
F40.0
sg271
g300
sg273
I1
sg274
I1
sg275
F1.0
sg263
g281
sg277
I1
sg278
F40.01542592048645
ssI19
(dp317
g8
F0.5581049919128418
sg268
S'./stimfiles/chinese_characters/24756.jpg'
p318
sg270
F42.0
sg271
g300
sg273
I1
sg274
I1
sg275
F1.0
sg263
g281
sg277
I1
sg278
F42.01616883277893
ssI20
(dp319
g8
F0.5084478855133057
sg268
S'./stimfiles/scenes/1072.jpg'
p320
sg270
F46.0
sg271
g272
sg273
I2
sg274
I2
sg275
F1.0
sg263
g276
sg277
I0
sg278
F46.01790499687195
ssI21
(dp321
g8
F0.6297528743743896
sg268
S'./stimfiles/scenes/610.jpg'
p322
sg270
F48.0
sg271
g272
sg273
I2
sg274
I2
sg275
F1.0
sg263
g276
sg277
I0
sg278
F48.01869297027588
ssI22
(dp323
g8
F0.9019851684570312
sg268
S'./stimfiles/scenes/459.jpg'
p324
sg270
F50.0
sg271
g272
sg273
I2
sg274
I2
sg275
F1.0
sg263
g276
sg277
I0
sg278
F50.0195198059082
ssI23
(dp325
g8
F0.8693151473999023
sg268
S'./stimfiles/scenes/459.jpg'
p326
sg270
F52.0
sg271
g272
sg273
I2
sg274
I2
sg275
F1.0
sg263
g276
sg277
I1
sg278
F52.02027988433838
ssI24
(dp327
g8
F0.664618968963623
sg268
S'./stimfiles/scenes/610.jpg'
p328
sg270
F54.0
sg271
g272
sg273
I2
sg274
I2
sg275
F1.0
sg263
g276
sg277
I3
sg278
F54.02117085456848
ssI25
(dp329
g8
F0.6753389835357666
sg268
S'./stimfiles/scenes/345.jpg'
p330
sg270
F56.0
sg271
g272
sg273
I2
sg274
I2
sg275
F1.0
sg263
g276
sg277
I0
sg278
F56.00533103942871
ssI26
(dp331
g8
F0.7116050720214844
sg268
S'./stimfiles/scenes/610.jpg'
p332
sg270
F58.0
sg271
g272
sg273
I2
sg274
I2
sg275
F1.0
sg263
g281
sg277
I2
sg278
F58.00612783432007
ssI27
(dp333
g8
F0.8608088493347168
sg268
S'./stimfiles/scenes/345.jpg'
p334
sg270
F60.0
sg271
g272
sg273
I2
sg274
I2
sg275
F1.0
sg263
g281
sg277
I2
sg278
F60.006999015808105
ssI28
(dp335
g8
F0.7120740413665771
sg268
S'./stimfiles/scenes/773.jpg'
p336
sg270
F62.0
sg271
g272
sg273
I2
sg274
I2
sg275
F1.0
sg263
g276
sg277
I0
sg278
F62.0077908039093
ssI29
(dp337
g268
S'./stimfiles/scenes/610.jpg'
p338
sg270
F64.0
sg271
g272
sg273
I2
sg274
I2
sg275
F1.0
sg277
I3
sg278
F64.00860500335693
ssI30
(dp339
g8
F0.657181978225708
sg268
S'./stimfiles/faces/cropped_906.png'
p340
sg270
F68.0
sg271
S'faces'
p341
sg273
I3
sg274
I2
sg275
F1.0
sg263
g276
sg277
I0
sg278
F68.0268759727478
ssI31
(dp342
g8
F0.6780929565429688
sg268
S'./stimfiles/faces/cropped_906.png'
p343
sg270
F70.0
sg271
g341
sg273
I3
sg274
I2
sg275
F1.0
sg263
g276
sg277
I1
sg278
F70.01101803779602
ssI32
(dp344
g8
F0.5703089237213135
sg268
S'./stimfiles/faces/cropped_283.png'
p345
sg270
F72.0
sg271
g341
sg273
I3
sg274
I2
sg275
F1.0
sg263
g276
sg277
I0
sg278
F72.01187896728516
ssI33
(dp346
g8
F0.7983219623565674
sg268
S'./stimfiles/faces/cropped_189.png'
p347
sg270
F74.0
sg271
g341
sg273
I3
sg274
I2
sg275
F1.0
sg263
g276
sg277
I0
sg278
F74.01274800300598
ssI34
(dp348
g8
F0.6186001300811768
sg268
S'./stimfiles/faces/cropped_283.png'
p349
sg270
F76.0
sg271
g341
sg273
I3
sg274
I2
sg275
F1.0
sg263
g281
sg277
I2
sg278
F76.0137128829956
ssI35
(dp350
g8
F0.7500481605529785
sg268
S'./stimfiles/faces/cropped_930.png'
p351
sg270
F78.0
sg271
g341
sg273
I3
sg274
I2
sg275
F1.0
sg263
g276
sg277
I0
sg278
F78.01433181762695
ssI36
(dp352
g8
F0.7561748027801514
sg268
S'./stimfiles/faces/cropped_930.png'
p353
sg270
F80.0
sg271
g341
sg273
I3
sg274
I2
sg275
F1.0
sg263
g276
sg277
I1
sg278
F80.01520800590515
ssI37
(dp354
g268
S'./stimfiles/faces/cropped_283.png'
p355
sg270
F82.0
sg271
g341
sg273
I3
sg274
I2
sg275
F1.0
sg277
I3
sg278
F82.01604390144348
ssI38
(dp356
g8
F0.890639066696167
sg268
S'./stimfiles/faces/cropped_283.png'
p357
sg270
F84.0
sg271
g341
sg273
I3
sg274
I2
sg275
F1.0
sg263
g276
sg277
I1
sg278
F84.0168719291687
ssI39
(dp358
g8
F0.7249429225921631
sg268
S'./stimfiles/faces/cropped_m4017.png'
p359
sg270
F86.0
sg271
g341
sg273
I3
sg274
I2
sg275
F1.0
sg263
g276
sg277
I0
sg278
F86.01765990257263
ssI40
(dp360
g8
F0.5762019157409668
sg268
S'./stimfiles/chinese_characters/20491.jpg'
p361
sg270
F90.0
sg271
g300
sg273
I4
sg274
I2
sg275
F1.0
sg263
g276
sg277
I0
sg278
F90.01953196525574
ssI41
(dp362
g8
F0.46859312057495117
sg268
S'./stimfiles/chinese_characters/20491.jpg'
p363
sg270
F92.0
sg271
g300
sg273
I4
sg274
I2
sg275
F1.0
sg263
g276
sg277
I1
sg278
F92.02019691467285
ssI42
(dp364
g8
F0.5528411865234375
sg268
S'./stimfiles/chinese_characters/24822.jpg'
p365
sg270
F94.0
sg271
g300
sg273
I4
sg274
I2
sg275
F1.0
sg263
g276
sg277
I0
sg278
F94.02102184295654
ssI43
(dp366
g8
F0.499021053314209
sg268
S'./stimfiles/chinese_characters/20491.jpg'
p367
sg270
F96.0
sg271
g300
sg273
I4
sg274
I2
sg275
F1.0
sg263
g281
sg277
I3
sg278
F96.0219099521637
ssI44
(dp368
g8
F0.6102750301361084
sg268
S'./stimfiles/chinese_characters/33331.jpg'
p369
sg270
F98.0
sg271
g300
sg273
I4
sg274
I2
sg275
F1.0
sg263
g276
sg277
I0
sg278
F98.02268385887146
ssI45
(dp370
g8
F0.6284871101379395
sg268
S'./stimfiles/chinese_characters/25865.jpg'
p371
sg270
F100.0
sg271
g300
sg273
I4
sg274
I2
sg275
F1.0
sg263
g276
sg277
I0
sg278
F100.02346992492676
ssI46
(dp372
g8
F0.6217730045318604
sg268
S'./stimfiles/chinese_characters/20611.jpg'
p373
sg270
F102.0
sg271
g300
sg273
I4
sg274
I2
sg275
F1.0
sg263
g276
sg277
I0
sg278
F102.02430987358093
ssI47
(dp374
g8
F0.7407820224761963
sg268
S'./stimfiles/chinese_characters/29847.jpg'
p375
sg270
F104.0
sg271
g300
sg273
I4
sg274
I2
sg275
F1.0
sg263
g276
sg277
I0
sg278
F104.02526688575745
ssI48
(dp376
g8
F0.7709901332855225
sg268
S'./stimfiles/chinese_characters/25276.jpg'
p377
sg270
F106.0
sg271
g300
sg273
I4
sg274
I2
sg275
F1.0
sg263
g276
sg277
I0
sg278
F106.00920581817627
ssI49
(dp378
g8
F0.6751880645751953
sg268
S'./stimfiles/chinese_characters/29847.jpg'
p379
sg270
F108.0
sg271
g300
sg273
I4
sg274
I2
sg275
F1.0
sg263
g281
sg277
I2
sg278
F108.01009488105774
ssI50
(dp380
g8
F0.578665018081665
sg268
S'./stimfiles/faces/cropped_f14v1e1.png'
p381
sg270
F112.0
sg271
g341
sg273
I5
sg274
I1
sg275
F1.0
sg263
g276
sg277
I0
sg278
F112.01173996925354
ssI51
(dp382
g8
F0.538093090057373
sg268
S'./stimfiles/faces/cropped_266.png'
p383
sg270
F114.0
sg271
g341
sg273
I5
sg274
I1
sg275
F1.0
sg263
g276
sg277
I0
sg278
F114.01252889633179
ssI52
(dp384
g8
F0.5261790752410889
sg268
S'./stimfiles/faces/cropped_f1n1.png'
p385
sg270
F116.0
sg271
g341
sg273
I5
sg274
I1
sg275
F1.0
sg263
g276
sg277
I0
sg278
F116.013347864151
ssI53
(dp386
g8
F0.4851830005645752
sg268
S'./stimfiles/faces/cropped_21a.png'
p387
sg270
F118.0
sg271
g341
sg273
I5
sg274
I1
sg275
F1.0
sg263
g276
sg277
I0
sg278
F118.01438283920288
ssI54
(dp388
g8
F0.5395989418029785
sg268
S'./stimfiles/faces/cropped_m1-036-01.png'
p389
sg270
F120.0
sg271
g341
sg273
I5
sg274
I1
sg275
F1.0
sg263
g276
sg277
I0
sg278
F120.01504397392273
ssI55
(dp390
g8
F0.6198921203613281
sg268
S'./stimfiles/faces/cropped_21a.png'
p391
sg270
F122.0
sg271
g341
sg273
I5
sg274
I1
sg275
F1.0
sg263
g276
sg277
I2
sg278
F122.01586890220642
ssI56
(dp392
g8
F0.5220551490783691
sg268
S'./stimfiles/faces/cropped_21a.png'
p393
sg270
F124.0
sg271
g341
sg273
I5
sg274
I1
sg275
F1.0
sg263
g281
sg277
I1
sg278
F124.01667380332947
ssI57
(dp394
g8
F0.4643089771270752
sg268
S'./stimfiles/faces/cropped_m1-036-01.png'
p395
sg270
F126.0
sg271
g341
sg273
I5
sg274
I1
sg275
F1.0
sg263
g276
sg277
I3
sg278
F126.01752400398254
ssI58
(dp396
g8
F0.7055342197418213
sg268
S'./stimfiles/faces/cropped_21a.png'
p397
sg270
F128.0
sg271
g341
sg273
I5
sg274
I1
sg275
F1.0
sg263
g276
sg277
I2
sg278
F128.01833581924438
ssI59
(dp398
g8
F0.8897368907928467
sg268
S'./stimfiles/faces/cropped_i041ra-mn.png'
p399
sg270
F130.0
sg271
g341
sg273
I5
sg274
I1
sg275
F1.0
sg263
g276
sg277
I0
sg278
F130.0191569328308
ssI60
(dp400
g8
F0.4552891254425049
sg268
S'./stimfiles/scenes/3078.jpg'
p401
sg270
F154.0
sg271
g272
sg273
I6
sg274
I1
sg275
F1.0
sg263
g276
sg277
I0
sg278
F154.0123918056488
ssI61
(dp402
g8
F0.7313880920410156
sg268
S'./stimfiles/scenes/991.jpg'
p403
sg270
F156.0
sg271
g272
sg273
I6
sg274
I1
sg275
F1.0
sg263
g276
sg277
I0
sg278
F156.01316690444946
ssI62
(dp404
g8
F0.6157610416412354
sg268
S'./stimfiles/scenes/3078.jpg'
p405
sg270
F158.0
sg271
g272
sg273
I6
sg274
I1
sg275
F1.0
sg263
g276
sg277
I2
sg278
F158.01404094696045
ssI63
(dp406
g8
F0.5509378910064697
sg268
S'./stimfiles/scenes/1236.jpg'
p407
sg270
F160.0
sg271
g272
sg273
I6
sg274
I1
sg275
F1.0
sg263
g276
sg277
I0
sg278
F160.0148890018463
ssI64
(dp408
g8
F0.656174898147583
sg268
S'./stimfiles/scenes/1236.jpg'
p409
sg270
F162.0
sg271
g272
sg273
I6
sg274
I1
sg275
F1.0
sg263
g281
sg277
I1
sg278
F162.01571893692017
ssI65
(dp410
g8
F0.5724802017211914
sg268
S'./stimfiles/scenes/3078.jpg'
p411
sg270
F164.0
sg271
g272
sg273
I6
sg274
I1
sg275
F1.0
sg263
g276
sg277
I3
sg278
F164.01650381088257
ssI66
(dp412
g8
F0.679563045501709
sg268
S'./stimfiles/scenes/1236.jpg'
p413
sg270
F166.0
sg271
g272
sg273
I6
sg274
I1
sg275
F1.0
sg263
g276
sg277
I2
sg278
F166.01734280586243
ssI67
(dp414
g8
F0.5439660549163818
sg268
S'./stimfiles/scenes/1236.jpg'
p415
sg270
F168.0
sg271
g272
sg273
I6
sg274
I1
sg275
F1.0
sg263
g281
sg277
I1
sg278
F168.01811385154724
ssI68
(dp416
g8
F0.604193925857544
sg268
S'./stimfiles/scenes/1236.jpg'
p417
sg270
F170.0
sg271
g272
sg273
I6
sg274
I1
sg275
F1.0
sg263
g281
sg277
I1
sg278
F170.01893496513367
ssI69
(dp418
g8
F0.6225590705871582
sg268
S'./stimfiles/scenes/88.jpg'
p419
sg270
F172.0
sg271
g272
sg273
I6
sg274
I1
sg275
F1.0
sg263
g276
sg277
I0
sg278
F172.01974081993103
ssI70
(dp420
g8
F0.6068511009216309
sg268
S'./stimfiles/chinese_characters/26107.jpg'
p421
sg270
F176.0
sg271
g300
sg273
I7
sg274
I1
sg275
F1.0
sg263
g276
sg277
I0
sg278
F176.0214068889618
ssI71
(dp422
g8
F0.5281310081481934
sg268
S'./stimfiles/chinese_characters/29749.jpg'
p423
sg270
F178.0
sg271
g300
sg273
I7
sg274
I1
sg275
F1.0
sg263
g276
sg277
I0
sg278
F178.02227091789246
ssI72
(dp424
g8
F0.6553280353546143
sg268
S'./stimfiles/chinese_characters/25943.jpg'
p425
sg270
F180.0
sg271
g300
sg273
I7
sg274
I1
sg275
F1.0
sg263
g276
sg277
I0
sg278
F180.02312684059143
ssI73
(dp426
g8
F0.7855410575866699
sg268
S'./stimfiles/chinese_characters/26107.jpg'
p427
sg270
F182.0
sg271
g300
sg273
I7
sg274
I1
sg275
F1.0
sg263
g276
sg277
I3
sg278
F182.02387285232544
ssI74
(dp428
g8
F0.5858030319213867
sg268
S'./stimfiles/chinese_characters/26107.jpg'
p429
sg270
F184.0
sg271
g300
sg273
I7
sg274
I1
sg275
F1.0
sg263
g281
sg277
I1
sg278
F184.02474880218506
ssI75
(dp430
g8
F0.47105908393859863
sg268
S'./stimfiles/chinese_characters/24875.jpg'
p431
sg270
F186.0
sg271
g300
sg273
I7
sg274
I1
sg275
F1.0
sg263
g276
sg277
I0
sg278
F186.02557682991028
ssI76
(dp432
g8
F0.6960721015930176
sg268
S'./stimfiles/chinese_characters/26107.jpg'
p433
sg270
F188.0
sg271
g300
sg273
I7
sg274
I1
sg275
F1.0
sg263
g276
sg277
I2
sg278
F188.0096538066864
ssI77
(dp434
g268
S'./stimfiles/chinese_characters/26000.jpg'
p435
sg270
F190.0
sg271
g300
sg273
I7
sg274
I1
sg275
F1.0
sg277
I0
sg278
F190.01052594184875
ssI78
(dp436
g268
S'./stimfiles/chinese_characters/26107.jpg'
p437
sg270
F192.0
sg271
g300
sg273
I7
sg274
I1
sg275
F1.0
sg277
I2
sg278
F192.01131796836853
ssI79
(dp438
g8
F0.7524538040161133
sg268
S'./stimfiles/chinese_characters/20544.jpg'
p439
sg270
F194.0
sg271
g300
sg273
I7
sg274
I1
sg275
F1.0
sg263
g276
sg277
I0
sg278
F194.01228404045105
ssI80
(dp440
g8
F0.6831619739532471
sg268
S'./stimfiles/scenes/732.jpg'
p441
sg270
F198.0
sg271
g272
sg273
I8
sg274
I2
sg275
F1.0
sg263
g276
sg277
I0
sg278
F198.0138590335846
ssI81
(dp442
g8
F0.6013689041137695
sg268
S'./stimfiles/scenes/693.jpg'
p443
sg270
F200.0
sg271
g272
sg273
I8
sg274
I2
sg275
F1.0
sg263
g276
sg277
I0
sg278
F200.0146520137787
ssI82
(dp444
g8
F0.6316089630126953
sg268
S'./stimfiles/scenes/1828.jpg'
p445
sg270
F202.0
sg271
g272
sg273
I8
sg274
I2
sg275
F1.0
sg263
g276
sg277
I0
sg278
F202.01551985740662
ssI83
(dp446
g8
F0.6178679466247559
sg268
S'./stimfiles/scenes/748.jpg'
p447
sg270
F204.0
sg271
g272
sg273
I8
sg274
I2
sg275
F1.0
sg263
g276
sg277
I0
sg278
F204.01630091667175
ssI84
(dp448
g8
F0.6520979404449463
sg268
S'./stimfiles/scenes/1828.jpg'
p449
sg270
F206.0
sg271
g272
sg273
I8
sg274
I2
sg275
F1.0
sg263
g281
sg277
I2
sg278
F206.01712703704834
ssI85
(dp450
g8
F0.6274459362030029
sg268
S'./stimfiles/scenes/748.jpg'
p451
sg270
F208.0
sg271
g272
sg273
I8
sg274
I2
sg275
F1.0
sg263
g281
sg277
I2
sg278
F208.01793789863586
ssI86
(dp452
g8
F0.6335470676422119
sg268
S'./stimfiles/scenes/1828.jpg'
p453
sg270
F210.0
sg271
g272
sg273
I8
sg274
I2
sg275
F1.0
sg263
g276
sg277
I2
sg278
F210.0187509059906
ssI87
(dp454
g8
F0.91680908203125
sg268
S'./stimfiles/scenes/1828.jpg'
p455
sg270
F212.0
sg271
g272
sg273
I8
sg274
I2
sg275
F1.0
sg263
g276
sg277
I1
sg278
F212.0195848941803
ssI88
(dp456
g8
F0.6549849510192871
sg268
S'./stimfiles/scenes/876.jpg'
p457
sg270
F214.0
sg271
g272
sg273
I8
sg274
I2
sg275
F1.0
sg263
g276
sg277
I0
sg278
F214.02048301696777
ssI89
(dp458
g8
F0.5562329292297363
sg268
S'./stimfiles/scenes/1828.jpg'
p459
sg270
F216.0
sg271
g272
sg273
I8
sg274
I2
sg275
F1.0
sg263
g281
sg277
I2
sg278
F216.02131700515747
ssI90
(dp460
g8
F0.44475293159484863
sg268
S'./stimfiles/faces/cropped_220.png'
p461
sg270
F220.0
sg271
g341
sg273
I9
sg274
I2
sg275
F1.0
sg263
g276
sg277
I0
sg278
F220.02291989326477
ssI91
(dp462
g8
F0.6219780445098877
sg268
S'./stimfiles/faces/cropped_694.png'
p463
sg270
F222.0
sg271
g341
sg273
I9
sg274
I2
sg275
F1.0
sg263
g276
sg277
I0
sg278
F222.02375888824463
ssI92
(dp464
g8
F0.6682860851287842
sg268
S'./stimfiles/faces/cropped_f17v1e1.png'
p465
sg270
F224.0
sg271
g341
sg273
I9
sg274
I2
sg275
F1.0
sg263
g276
sg277
I0
sg278
F224.0245258808136
ssI93
(dp466
g8
F0.6643750667572021
sg268
S'./stimfiles/faces/cropped_s50_13.png'
p467
sg270
F226.0
sg271
g341
sg273
I9
sg274
I2
sg275
F1.0
sg263
g276
sg277
I0
sg278
F226.0254349708557
ssI94
(dp468
g8
F0.7446930408477783
sg268
S'./stimfiles/faces/cropped_m3v1e1.png'
p469
sg270
F228.0
sg271
g341
sg273
I9
sg274
I2
sg275
F1.0
sg263
g276
sg277
I0
sg278
F228.02619791030884
ssI95
(dp470
g8
F0.6236739158630371
sg268
S'./stimfiles/faces/cropped_80MVC-003F.png'
p471
sg270
F230.0
sg271
g341
sg273
I9
sg274
I2
sg275
F1.0
sg263
g276
sg277
I0
sg278
F230.01031494140625
ssI96
(dp472
g8
F0.8068399429321289
sg268
S'./stimfiles/faces/cropped_m3v1e1.png'
p473
sg270
F232.0
sg271
g341
sg273
I9
sg274
I2
sg275
F1.0
sg263
g281
sg277
I2
sg278
F232.01119899749756
ssI97
(dp474
g8
F0.6930370330810547
sg268
S'./stimfiles/faces/cropped_80MVC-003F.png'
p475
sg270
F234.0
sg271
g341
sg273
I9
sg274
I2
sg275
F1.0
sg263
g281
sg277
I2
sg278
F234.01196694374084
ssI98
(dp476
g8
F0.7202789783477783
sg268
S'./stimfiles/faces/cropped_m3v1e1.png'
p477
sg270
F236.0
sg271
g341
sg273
I9
sg274
I2
sg275
F1.0
sg263
g281
sg277
I2
sg278
F236.01285791397095
ssI99
(dp478
g8
F0.6634769439697266
sg268
S'./stimfiles/faces/cropped_528.png'
p479
sg270
F238.0
sg271
g341
sg273
I9
sg274
I2
sg275
F1.0
sg263
g276
sg277
I0
sg278
F238.01375889778137
ssI100
(dp480
g8
F0.7200009822845459
sg268
S'./stimfiles/chinese_characters/29848.jpg'
p481
sg270
F242.0
sg271
g300
sg273
I10
sg274
I2
sg275
F1.0
sg263
g276
sg277
I0
sg278
F242.01531386375427
ssI101
(dp482
g8
F0.6373181343078613
sg268
S'./stimfiles/chinese_characters/31435.jpg'
p483
sg270
F244.0
sg271
g300
sg273
I10
sg274
I2
sg275
F1.0
sg263
g276
sg277
I0
sg278
F244.01612281799316
ssI102
(dp484
g8
F0.5354890823364258
sg268
S'./stimfiles/chinese_characters/29848.jpg'
p485
sg270
F246.0
sg271
g300
sg273
I10
sg274
I2
sg275
F1.0
sg263
g281
sg277
I2
sg278
F246.0169608592987
ssI103
(dp486
g8
F0.7747340202331543
sg268
S'./stimfiles/chinese_characters/24733.jpg'
p487
sg270
F248.0
sg271
g300
sg273
I10
sg274
I2
sg275
F1.0
sg263
g276
sg277
I0
sg278
F248.01778984069824
ssI104
(dp488
g8
F0.7417569160461426
sg268
S'./stimfiles/chinese_characters/29848.jpg'
p489
sg270
F250.0
sg271
g300
sg273
I10
sg274
I2
sg275
F1.0
sg263
g276
sg277
I2
sg278
F250.01862597465515
ssI105
(dp490
g8
F0.8253340721130371
sg268
S'./stimfiles/chinese_characters/24733.jpg'
p491
sg270
F252.0
sg271
g300
sg273
I10
sg274
I2
sg275
F1.0
sg263
g276
sg277
I2
sg278
F252.01946687698364
ssI106
(dp492
g8
F0.9494490623474121
sg268
S'./stimfiles/chinese_characters/37249.jpg'
p493
sg270
F254.0
sg271
g300
sg273
I10
sg274
I2
sg275
F1.0
sg263
g276
sg277
I0
sg278
F254.02027583122253
ssI107
(dp494
g8
F0.6185760498046875
sg268
S'./stimfiles/chinese_characters/32034.jpg'
p495
sg270
F256.0
sg271
g300
sg273
I10
sg274
I2
sg275
F1.0
sg263
g276
sg277
I0
sg278
F256.0211799144745
ssI108
(dp496
g8
F0.6849110126495361
sg268
S'./stimfiles/chinese_characters/37249.jpg'
p497
sg270
F258.0
sg271
g300
sg273
I10
sg274
I2
sg275
F1.0
sg263
g281
sg277
I2
sg278
F258.0218918323517
ssI109
(dp498
g8
F0.6251511573791504
sg268
S'./stimfiles/chinese_characters/24797.jpg'
p499
sg270
F260.0
sg271
g300
sg273
I10
sg274
I2
sg275
F1.0
sg263
g276
sg277
I0
sg278
F260.02275586128235
ssI110
(dp500
g8
F0.519597053527832
sg268
S'./stimfiles/faces/cropped_f1-009-01.png'
p501
sg270
F264.0
sg271
g341
sg273
I11
sg274
I1
sg275
F1.0
sg263
g276
sg277
I0
sg278
F264.02440786361694
ssI111
(dp502
g8
F0.6718800067901611
sg268
S'./stimfiles/faces/cropped_233.png'
p503
sg270
F266.0
sg271
g341
sg273
I11
sg274
I1
sg275
F1.0
sg263
g276
sg277
I0
sg278
F266.0251929759979
ssI112
(dp504
g268
S'./stimfiles/faces/cropped_m-084-01.png'
p505
sg270
F268.0
sg271
g341
sg273
I11
sg274
I1
sg275
F1.0
sg277
I0
sg278
F268.02606081962585
ssI113
(dp506
g8
F0.9043970108032227
sg268
S'./stimfiles/faces/cropped_f1-009-01.png'
p507
sg270
F270.0
sg271
g341
sg273
I11
sg274
I1
sg275
F1.0
sg263
g276
sg277
I3
sg278
F270.0268008708954
ssI114
(dp508
g8
F0.8521909713745117
sg268
S'./stimfiles/faces/cropped_f11v1e1.png'
p509
sg270
F272.0
sg271
g341
sg273
I11
sg274
I1
sg275
F1.0
sg263
g276
sg277
I0
sg278
F272.0110549926758
ssI115
(dp510
g268
S'./stimfiles/faces/cropped_andrew1.png'
p511
sg270
F274.0
sg271
g341
sg273
I11
sg274
I1
sg275
F1.0
sg277
I0
sg278
F274.01182103157043
ssI116
(dp512
g8
F0.7497649192810059
sg268
S'./stimfiles/faces/cropped_f1-007-01.png'
p513
sg270
F276.0
sg271
g341
sg273
I11
sg274
I1
sg275
F1.0
sg263
g276
sg277
I0
sg278
F276.01262402534485
ssI117
(dp514
g8
F0.9919381141662598
sg268
S'./stimfiles/faces/cropped_f11v1e1.png'
p515
sg270
F278.0
sg271
g341
sg273
I11
sg274
I1
sg275
F1.0
sg263
g276
sg277
I3
sg278
F278.0134708881378
ssI118
(dp516
g8
F0.9711208343505859
sg268
S'./stimfiles/faces/cropped_657.png'
p517
sg270
F280.0
sg271
g341
sg273
I11
sg274
I1
sg275
F1.0
sg263
g276
sg277
I0
sg278
F280.0143539905548
ssI119
(dp518
g8
F0.8593959808349609
sg268
S'./stimfiles/faces/cropped_441.png'
p519
sg270
F282.0
sg271
g341
sg273
I11
sg274
I1
sg275
F1.0
sg263
g276
sg277
I0
sg278
F282.0151288509369
ssI120
(dp520
g8
F0.6199169158935547
sg268
S'./stimfiles/scenes/849.jpg'
p521
sg270
F306.0
sg271
g272
sg273
I12
sg274
I1
sg275
F1.0
sg263
g276
sg277
I0
sg278
F306.0083589553833
ssI121
(dp522
g8
F0.575214147567749
sg268
S'./stimfiles/scenes/1814.jpg'
p523
sg270
F308.0
sg271
g272
sg273
I12
sg274
I1
sg275
F1.0
sg263
g276
sg277
I0
sg278
F308.009174823761
ssI122
(dp524
g8
F0.522454023361206
sg268
S'./stimfiles/scenes/1814.jpg'
p525
sg270
F310.0
sg271
g272
sg273
I12
sg274
I1
sg275
F1.0
sg263
g281
sg277
I1
sg278
F310.00999093055725
ssI123
(dp526
g8
F0.6466870307922363
sg268
S'./stimfiles/scenes/797.jpg'
p527
sg270
F312.0
sg271
g272
sg273
I12
sg274
I1
sg275
F1.0
sg263
g276
sg277
I0
sg278
F312.0107979774475
ssI124
(dp528
g8
F0.6248579025268555
sg268
S'./stimfiles/scenes/1592.jpg'
p529
sg270
F314.0
sg271
g272
sg273
I12
sg274
I1
sg275
F1.0
sg263
g276
sg277
I0
sg278
F314.0116410255432
ssI125
(dp530
g8
F0.5961430072784424
sg268
S'./stimfiles/scenes/3051.jpg'
p531
sg270
F316.0
sg271
g272
sg273
I12
sg274
I1
sg275
F1.0
sg263
g276
sg277
I0
sg278
F316.0124759674072
ssI126
(dp532
g8
F0.9113469123840332
sg268
S'./stimfiles/scenes/739.jpg'
p533
sg270
F318.0
sg271
g272
sg273
I12
sg274
I1
sg275
F1.0
sg263
g276
sg277
I0
sg278
F318.0133059024811
ssI127
(dp534
g8
F0.6395251750946045
sg268
S'./stimfiles/scenes/1404.jpg'
p535
sg270
F320.0
sg271
g272
sg273
I12
sg274
I1
sg275
F1.0
sg263
g276
sg277
I0
sg278
F320.0141568183899
ssI128
(dp536
g8
F0.4697880744934082
sg268
S'./stimfiles/scenes/1432.jpg'
p537
sg270
F322.0
sg271
g272
sg273
I12
sg274
I1
sg275
F1.0
sg263
g276
sg277
I0
sg278
F322.0149528980255
ssI129
(dp538
g8
F0.4520070552825928
sg268
S'./stimfiles/scenes/1290.jpg'
p539
sg270
F324.0
sg271
g272
sg273
I12
sg274
I1
sg275
F1.0
sg263
g276
sg277
I0
sg278
F324.0158188343048
ssI130
(dp540
g8
F0.4805760383605957
sg268
S'./stimfiles/chinese_characters/30230.jpg'
p541
sg270
F328.0
sg271
g300
sg273
I13
sg274
I1
sg275
F1.0
sg263
g276
sg277
I0
sg278
F328.01736998558044
ssI131
(dp542
g8
F0.5206902027130127
sg268
S'./stimfiles/chinese_characters/29439.jpg'
p543
sg270
F330.0
sg271
g300
sg273
I13
sg274
I1
sg275
F1.0
sg263
g276
sg277
I0
sg278
F330.0182948112488
ssI132
(dp544
g8
F0.5488770008087158
sg268
S'./stimfiles/chinese_characters/26384.jpg'
p545
sg270
F332.0
sg271
g300
sg273
I13
sg274
I1
sg275
F1.0
sg263
g276
sg277
I0
sg278
F332.0191059112549
ssI133
(dp546
g8
F0.5051689147949219
sg268
S'./stimfiles/chinese_characters/30230.jpg'
p547
sg270
F334.0
sg271
g300
sg273
I13
sg274
I1
sg275
F1.0
sg263
g276
sg277
I3
sg278
F334.0199398994446
ssI134
(dp548
g8
F0.6104469299316406
sg268
S'./stimfiles/chinese_characters/29302.jpg'
p549
sg270
F336.0
sg271
g300
sg273
I13
sg274
I1
sg275
F1.0
sg263
g276
sg277
I0
sg278
F336.02073097229004
ssI135
(dp550
g8
F0.6237740516662598
sg268
S'./stimfiles/chinese_characters/30230.jpg'
p551
sg270
F338.0
sg271
g300
sg273
I13
sg274
I1
sg275
F1.0
sg263
g276
sg277
I2
sg278
F338.02150893211365
ssI136
(dp552
g8
F0.5350019931793213
sg268
S'./stimfiles/chinese_characters/25008.jpg'
p553
sg270
F340.0
sg271
g300
sg273
I13
sg274
I1
sg275
F1.0
sg263
g276
sg277
I0
sg278
F340.02233600616455
ssI137
(dp554
g8
F0.5701229572296143
sg268
S'./stimfiles/chinese_characters/35602.jpg'
p555
sg270
F342.0
sg271
g300
sg273
I13
sg274
I1
sg275
F1.0
sg263
g276
sg277
I0
sg278
F342.0232479572296
ssI138
(dp556
g8
F0.595430850982666
sg268
S'./stimfiles/chinese_characters/35602.jpg'
p557
sg270
F344.0
sg271
g300
sg273
I13
sg274
I1
sg275
F1.0
sg263
g281
sg277
I1
sg278
F344.0239670276642
ssI139
(dp558
g8
F0.6816840171813965
sg268
S'./stimfiles/chinese_characters/26296.jpg'
p559
sg270
F346.0
sg271
g300
sg273
I13
sg274
I1
sg275
F1.0
sg263
g276
sg277
I0
sg278
F346.02482295036316
ssI140
(dp560
g8
F0.5647969245910645
sg268
S'./stimfiles/scenes/137.jpg'
p561
sg270
F350.0
sg271
g272
sg273
I14
sg274
I2
sg275
F1.0
sg263
g276
sg277
I0
sg278
F350.0098190307617
ssI141
(dp562
g8
F0.4390602111816406
sg268
S'./stimfiles/scenes/1430.jpg'
p563
sg270
F352.0
sg271
g272
sg273
I14
sg274
I2
sg275
F1.0
sg263
g276
sg277
I0
sg278
F352.0106418132782
ssI142
(dp564
g8
F0.5322661399841309
sg268
S'./stimfiles/scenes/765.jpg'
p565
sg270
F354.0
sg271
g272
sg273
I14
sg274
I2
sg275
F1.0
sg263
g276
sg277
I0
sg278
F354.0114998817444
ssI143
(dp566
g8
F0.6174960136413574
sg268
S'./stimfiles/scenes/1923.jpg'
p567
sg270
F356.0
sg271
g272
sg273
I14
sg274
I2
sg275
F1.0
sg263
g276
sg277
I0
sg278
F356.0123088359833
ssI144
(dp568
g8
F0.5317389965057373
sg268
S'./stimfiles/scenes/3011.jpg'
p569
sg270
F358.0
sg271
g272
sg273
I14
sg274
I2
sg275
F1.0
sg263
g276
sg277
I0
sg278
F358.0131230354309
ssI145
(dp570
g8
F0.6830360889434814
sg268
S'./stimfiles/scenes/285.jpg'
p571
sg270
F360.0
sg271
g272
sg273
I14
sg274
I2
sg275
F1.0
sg263
g276
sg277
I0
sg278
F360.01386189460754
ssI146
(dp572
g8
F0.6970429420471191
sg268
S'./stimfiles/scenes/704.jpg'
p573
sg270
F362.0
sg271
g272
sg273
I14
sg274
I2
sg275
F1.0
sg263
g276
sg277
I0
sg278
F362.01477694511414
ssI147
(dp574
g8
F0.6444351673126221
sg268
S'./stimfiles/scenes/352.jpg'
p575
sg270
F364.0
sg271
g272
sg273
I14
sg274
I2
sg275
F1.0
sg263
g276
sg277
I0
sg278
F364.015576839447
ssI148
(dp576
g8
F0.7286090850830078
sg268
S'./stimfiles/scenes/352.jpg'
p577
sg270
F366.0
sg271
g272
sg273
I14
sg274
I2
sg275
F1.0
sg263
g276
sg277
I1
sg278
F366.01645588874817
ssI149
(dp578
g8
F0.7259390354156494
sg268
S'./stimfiles/scenes/704.jpg'
p579
sg270
F368.0
sg271
g272
sg273
I14
sg274
I2
sg275
F1.0
sg263
g276
sg277
I3
sg278
F368.0172028541565
ssI150
(dp580
g8
F0.4413950443267822
sg268
S'./stimfiles/faces/cropped_1023.png'
p581
sg270
F372.0
sg271
g341
sg273
I15
sg274
I2
sg275
F1.0
sg263
g276
sg277
I0
sg278
F372.01885986328125
ssI151
(dp582
g8
F0.442673921585083
sg268
S'./stimfiles/faces/cropped_94.png'
p583
sg270
F374.0
sg271
g341
sg273
I15
sg274
I2
sg275
F1.0
sg263
g276
sg277
I0
sg278
F374.0196650028229
ssI152
(dp584
g8
F0.5668690204620361
sg268
S'./stimfiles/faces/cropped_m4079.png'
p585
sg270
F376.0
sg271
g341
sg273
I15
sg274
I2
sg275
F1.0
sg263
g276
sg277
I0
sg278
F376.02049589157104
ssI153
(dp586
g8
F0.7231240272521973
sg268
S'./stimfiles/faces/cropped_1023.png'
p587
sg270
F378.0
sg271
g341
sg273
I15
sg274
I2
sg275
F1.0
sg263
g276
sg277
I3
sg278
F378.02131485939026
ssI154
(dp588
g8
F0.9993510246276855
sg268
S'./stimfiles/faces/cropped_94.png'
p589
sg270
F380.0
sg271
g341
sg273
I15
sg274
I2
sg275
F1.0
sg263
g276
sg277
I3
sg278
F380.0222268104553
ssI155
(dp590
g8
F0.9454739093780518
sg268
S'./stimfiles/faces/cropped_1023.png'
p591
sg270
F382.0
sg271
g341
sg273
I15
sg274
I2
sg275
F1.0
sg263
g281
sg277
I2
sg278
F382.023010969162
ssI156
(dp592
g268
S'./stimfiles/faces/cropped_94.png'
p593
sg270
F384.0
sg271
g341
sg273
I15
sg274
I2
sg275
F1.0
sg277
I2
sg278
F384.0239589214325
ssI157
(dp594
g8
F0.6339898109436035
sg268
S'./stimfiles/faces/cropped_kay1.png'
p595
sg270
F386.0
sg271
g341
sg273
I15
sg274
I2
sg275
F1.0
sg263
g276
sg277
I0
sg278
F386.02467799186707
ssI158
(dp596
g8
F0.6963050365447998
sg268
S'./stimfiles/faces/cropped_m1-001-01.png'
p597
sg270
F388.0
sg271
g341
sg273
I15
sg274
I2
sg275
F1.0
sg263
g276
sg277
I0
sg278
F388.0254158973694
ssI159
(dp598
g8
F0.7745068073272705
sg268
S'./stimfiles/faces/cropped_555.png'
p599
sg270
F390.0
sg271
g341
sg273
I15
sg274
I2
sg275
F1.0
sg263
g276
sg277
I0
sg278
F390.02631402015686
ssI160
(dp600
g8
F0.6286661624908447
sg268
S'./stimfiles/chinese_characters/37236.jpg'
p601
sg270
F394.0
sg271
g300
sg273
I16
sg274
I2
sg275
F1.0
sg263
g276
sg277
I0
sg278
F394.01123881340027
ssI161
(dp602
g8
F0.5028891563415527
sg268
S'./stimfiles/chinese_characters/25187.jpg'
p603
sg270
F396.0
sg271
g300
sg273
I16
sg274
I2
sg275
F1.0
sg263
g276
sg277
I0
sg278
F396.0121178627014
ssI162
(dp604
g8
F0.7501540184020996
sg268
S'./stimfiles/chinese_characters/25187.jpg'
p605
sg270
F398.0
sg271
g300
sg273
I16
sg274
I2
sg275
F1.0
sg263
g276
sg277
I1
sg278
F398.0129008293152
ssI163
(dp606
g8
F0.6423549652099609
sg268
S'./stimfiles/chinese_characters/37236.jpg'
p607
sg270
F400.0
sg271
g300
sg273
I16
sg274
I2
sg275
F1.0
sg263
g276
sg277
I3
sg278
F400.0137288570404
ssI164
(dp608
g8
F0.7175490856170654
sg268
S'./stimfiles/chinese_characters/24915.jpg'
p609
sg270
F402.0
sg271
g300
sg273
I16
sg274
I2
sg275
F1.0
sg263
g276
sg277
I0
sg278
F402.0146098136902
ssI165
(dp610
g8
F0.7328150272369385
sg268
S'./stimfiles/chinese_characters/24933.jpg'
p611
sg270
F404.0
sg271
g300
sg273
I16
sg274
I2
sg275
F1.0
sg263
g276
sg277
I0
sg278
F404.01540088653564
ssI166
(dp612
g8
F0.727200984954834
sg268
S'./stimfiles/chinese_characters/26527.jpg'
p613
sg270
F406.0
sg271
g300
sg273
I16
sg274
I2
sg275
F1.0
sg263
g276
sg277
I0
sg278
F406.01616883277893
ssI167
(dp614
g8
F0.8153388500213623
sg268
S'./stimfiles/chinese_characters/26527.jpg'
p615
sg270
F408.0
sg271
g300
sg273
I16
sg274
I2
sg275
F1.0
sg263
g276
sg277
I1
sg278
F408.0169789791107
ssI168
(dp616
g8
F0.9935691356658936
sg268
S'./stimfiles/chinese_characters/24933.jpg'
p617
sg270
F410.0
sg271
g300
sg273
I16
sg274
I2
sg275
F1.0
sg263
g276
sg277
I3
sg278
F410.0178098678589
ssI169
(dp618
g8
F0.7987890243530273
sg268
S'./stimfiles/chinese_characters/26527.jpg'
p619
sg270
F412.0
sg271
g300
sg273
I16
sg274
I2
sg275
F1.0
sg263
g281
sg277
I2
sg278
F412.01868081092834
ssI170
(dp620
g8
F0.5752921104431152
sg268
S'./stimfiles/faces/cropped_668.png'
p621
sg270
F416.0
sg271
g341
sg273
I17
sg274
I1
sg275
F1.0
sg263
g276
sg277
I0
sg278
F416.02030086517334
ssI171
(dp622
g8
F0.6205868721008301
sg268
S'./stimfiles/faces/cropped_668.png'
p623
sg270
F418.0
sg271
g341
sg273
I17
sg274
I1
sg275
F1.0
sg263
g281
sg277
I1
sg278
F418.0210919380188
ssI172
(dp624
g8
F0.5157639980316162
sg268
S'./stimfiles/faces/cropped_m-092-01.png'
p625
sg270
F420.0
sg271
g341
sg273
I17
sg274
I1
sg275
F1.0
sg263
g276
sg277
I0
sg278
F420.0219428539276
ssI173
(dp626
g8
F0.7499539852142334
sg268
S'./stimfiles/faces/cropped_668.png'
p627
sg270
F422.0
sg271
g341
sg273
I17
sg274
I1
sg275
F1.0
sg263
g276
sg277
I2
sg278
F422.0227859020233
ssI174
(dp628
g8
F0.6642019748687744
sg268
S'./stimfiles/faces/cropped_george1.png'
p629
sg270
F424.0
sg271
g341
sg273
I17
sg274
I1
sg275
F1.0
sg263
g276
sg277
I0
sg278
F424.02358889579773
ssI175
(dp630
g8
F0.5933868885040283
sg268
S'./stimfiles/faces/cropped_george1.png'
p631
sg270
F426.0
sg271
g341
sg273
I17
sg274
I1
sg275
F1.0
sg263
g281
sg277
I1
sg278
F426.0244779586792
ssI176
(dp632
g8
F0.6427347660064697
sg268
S'./stimfiles/faces/cropped_george1.png'
p633
sg270
F428.0
sg271
g341
sg273
I17
sg274
I1
sg275
F1.0
sg263
g276
sg277
I1
sg278
F428.0252740383148
ssI177
(dp634
g8
F0.7079048156738281
sg268
S'./stimfiles/faces/cropped_george1.png'
p635
sg270
F430.0
sg271
g341
sg273
I17
sg274
I1
sg275
F1.0
sg263
g281
sg277
I1
sg278
F430.0260570049286
ssI178
(dp636
g8
F0.5781979560852051
sg268
S'./stimfiles/faces/cropped_892.png'
p637
sg270
F432.0
sg271
g341
sg273
I17
sg274
I1
sg275
F1.0
sg263
g276
sg277
I0
sg278
F432.0269248485565
ssI179
(dp638
g8
F0.7743408679962158
sg268
S'./stimfiles/faces/cropped_892.png'
p639
sg270
F434.0
sg271
g341
sg273
I17
sg274
I1
sg275
F1.0
sg263
g281
sg277
I1
sg278
F434.02768301963806
sssS'stim_log'
p640
(dp641
sS'nstims'
p642
I5
sS'inter_stim_int'
p643
F1.0
sS'SS'
p644
(dp645
sS'inst_time'
p646
F1.0
sS'broke_on_trial'
p647
(dp648
sS'events'
p649
(lp650
(lp651
F0.0
aI0
aI1
aI0
aS'inst'
p652
aa(lp653
F2.0
aI0
aI1
aI0
ag269
aa(lp654
F4.0
aI0
aI1
aI1
ag280
aa(lp655
F6.0
aI0
aI1
aI1
ag283
aa(lp656
F8.0
aI0
aI1
aI0
ag285
aa(lp657
F10.0
aI0
aI1
aI3
ag287
aa(lp658
F12.0
aI0
aI1
aI0
ag289
aa(lp659
F14.0
aI0
aI1
aI3
ag291
aa(lp660
F16.0
aI0
aI1
aI2
ag293
aa(lp661
F18.0
aI0
aI1
aI0
ag295
aa(lp662
F20.0
aI0
aI1
aI0
ag297
aa(lp663
F22.0
aI1
aI1
aI0
aS'inst'
p664
aa(lp665
F24.0
aI1
aI1
aI0
ag299
aa(lp666
F26.0
aI1
aI1
aI1
ag302
aa(lp667
F28.0
aI1
aI1
aI0
ag304
aa(lp668
F30.0
aI1
aI1
aI1
ag306
aa(lp669
F32.0
aI1
aI1
aI0
ag308
aa(lp670
F34.0
aI1
aI1
aI0
ag310
aa(lp671
F36.0
aI1
aI1
aI0
ag312
aa(lp672
F38.0
aI1
aI1
aI3
ag314
aa(lp673
F40.0
aI1
aI1
aI1
ag316
aa(lp674
F42.0
aI1
aI1
aI1
ag318
aa(lp675
F44.0
aI2
aI2
aI0
aS'inst'
p676
aa(lp677
F46.0
aI2
aI2
aI0
ag320
aa(lp678
F48.0
aI2
aI2
aI0
ag322
aa(lp679
F50.0
aI2
aI2
aI0
ag324
aa(lp680
F52.0
aI2
aI2
aI1
ag326
aa(lp681
F54.0
aI2
aI2
aI3
ag328
aa(lp682
F56.0
aI2
aI2
aI0
ag330
aa(lp683
F58.0
aI2
aI2
aI2
ag332
aa(lp684
F60.0
aI2
aI2
aI2
ag334
aa(lp685
F62.0
aI2
aI2
aI0
ag336
aa(lp686
F64.0
aI2
aI2
aI3
ag338
aa(lp687
F66.0
aI3
aI2
aI0
aS'inst'
p688
aa(lp689
F68.0
aI3
aI2
aI0
ag340
aa(lp690
F70.0
aI3
aI2
aI1
ag343
aa(lp691
F72.0
aI3
aI2
aI0
ag345
aa(lp692
F74.0
aI3
aI2
aI0
ag347
aa(lp693
F76.0
aI3
aI2
aI2
ag349
aa(lp694
F78.0
aI3
aI2
aI0
ag351
aa(lp695
F80.0
aI3
aI2
aI1
ag353
aa(lp696
F82.0
aI3
aI2
aI3
ag355
aa(lp697
F84.0
aI3
aI2
aI1
ag357
aa(lp698
F86.0
aI3
aI2
aI0
ag359
aa(lp699
F88.0
aI4
aI2
aI0
aS'inst'
p700
aa(lp701
F90.0
aI4
aI2
aI0
ag361
aa(lp702
F92.0
aI4
aI2
aI1
ag363
aa(lp703
F94.0
aI4
aI2
aI0
ag365
aa(lp704
F96.0
aI4
aI2
aI3
ag367
aa(lp705
F98.0
aI4
aI2
aI0
ag369
aa(lp706
F100.0
aI4
aI2
aI0
ag371
aa(lp707
F102.0
aI4
aI2
aI0
ag373
aa(lp708
F104.0
aI4
aI2
aI0
ag375
aa(lp709
F106.0
aI4
aI2
aI0
ag377
aa(lp710
F108.0
aI4
aI2
aI2
ag379
aa(lp711
F110.0
aI5
aI1
aI0
aS'inst'
p712
aa(lp713
F112.0
aI5
aI1
aI0
ag381
aa(lp714
F114.0
aI5
aI1
aI0
ag383
aa(lp715
F116.0
aI5
aI1
aI0
ag385
aa(lp716
F118.0
aI5
aI1
aI0
ag387
aa(lp717
F120.0
aI5
aI1
aI0
ag389
aa(lp718
F122.0
aI5
aI1
aI2
ag391
aa(lp719
F124.0
aI5
aI1
aI1
ag393
aa(lp720
F126.0
aI5
aI1
aI3
ag395
aa(lp721
F128.0
aI5
aI1
aI2
ag397
aa(lp722
F130.0
aI5
aI1
aI0
ag399
aa(lp723
F152.0
aI0
aI1
aI0
aS'inst'
p724
aa(lp725
F154.0
aI6
aI1
aI0
ag401
aa(lp726
F156.0
aI6
aI1
aI0
ag403
aa(lp727
F158.0
aI6
aI1
aI2
ag405
aa(lp728
F160.0
aI6
aI1
aI0
ag407
aa(lp729
F162.0
aI6
aI1
aI1
ag409
aa(lp730
F164.0
aI6
aI1
aI3
ag411
aa(lp731
F166.0
aI6
aI1
aI2
ag413
aa(lp732
F168.0
aI6
aI1
aI1
ag415
aa(lp733
F170.0
aI6
aI1
aI1
ag417
aa(lp734
F172.0
aI6
aI1
aI0
ag419
aa(lp735
F174.0
aI1
aI1
aI0
aS'inst'
p736
aa(lp737
F176.0
aI7
aI1
aI0
ag421
aa(lp738
F178.0
aI7
aI1
aI0
ag423
aa(lp739
F180.0
aI7
aI1
aI0
ag425
aa(lp740
F182.0
aI7
aI1
aI3
ag427
aa(lp741
F184.0
aI7
aI1
aI1
ag429
aa(lp742
F186.0
aI7
aI1
aI0
ag431
aa(lp743
F188.0
aI7
aI1
aI2
ag433
aa(lp744
F190.0
aI7
aI1
aI0
ag435
aa(lp745
F192.0
aI7
aI1
aI2
ag437
aa(lp746
F194.0
aI7
aI1
aI0
ag439
aa(lp747
F196.0
aI2
aI2
aI0
aS'inst'
p748
aa(lp749
F198.0
aI8
aI2
aI0
ag441
aa(lp750
F200.0
aI8
aI2
aI0
ag443
aa(lp751
F202.0
aI8
aI2
aI0
ag445
aa(lp752
F204.0
aI8
aI2
aI0
ag447
aa(lp753
F206.0
aI8
aI2
aI2
ag449
aa(lp754
F208.0
aI8
aI2
aI2
ag451
aa(lp755
F210.0
aI8
aI2
aI2
ag453
aa(lp756
F212.0
aI8
aI2
aI1
ag455
aa(lp757
F214.0
aI8
aI2
aI0
ag457
aa(lp758
F216.0
aI8
aI2
aI2
ag459
aa(lp759
F218.0
aI3
aI2
aI0
aS'inst'
p760
aa(lp761
F220.0
aI9
aI2
aI0
ag461
aa(lp762
F222.0
aI9
aI2
aI0
ag463
aa(lp763
F224.0
aI9
aI2
aI0
ag465
aa(lp764
F226.0
aI9
aI2
aI0
ag467
aa(lp765
F228.0
aI9
aI2
aI0
ag469
aa(lp766
F230.0
aI9
aI2
aI0
ag471
aa(lp767
F232.0
aI9
aI2
aI2
ag473
aa(lp768
F234.0
aI9
aI2
aI2
ag475
aa(lp769
F236.0
aI9
aI2
aI2
ag477
aa(lp770
F238.0
aI9
aI2
aI0
ag479
aa(lp771
F240.0
aI4
aI2
aI0
aS'inst'
p772
aa(lp773
F242.0
aI10
aI2
aI0
ag481
aa(lp774
F244.0
aI10
aI2
aI0
ag483
aa(lp775
F246.0
aI10
aI2
aI2
ag485
aa(lp776
F248.0
aI10
aI2
aI0
ag487
aa(lp777
F250.0
aI10
aI2
aI2
ag489
aa(lp778
F252.0
aI10
aI2
aI2
ag491
aa(lp779
F254.0
aI10
aI2
aI0
ag493
aa(lp780
F256.0
aI10
aI2
aI0
ag495
aa(lp781
F258.0
aI10
aI2
aI2
ag497
aa(lp782
F260.0
aI10
aI2
aI0
ag499
aa(lp783
F262.0
aI5
aI1
aI0
aS'inst'
p784
aa(lp785
F264.0
aI11
aI1
aI0
ag501
aa(lp786
F266.0
aI11
aI1
aI0
ag503
aa(lp787
F268.0
aI11
aI1
aI0
ag505
aa(lp788
F270.0
aI11
aI1
aI3
ag507
aa(lp789
F272.0
aI11
aI1
aI0
ag509
aa(lp790
F274.0
aI11
aI1
aI0
ag511
aa(lp791
F276.0
aI11
aI1
aI0
ag513
aa(lp792
F278.0
aI11
aI1
aI3
ag515
aa(lp793
F280.0
aI11
aI1
aI0
ag517
aa(lp794
F282.0
aI11
aI1
aI0
ag519
aa(lp795
F304.0
aI0
aI1
aI0
aS'inst'
p796
aa(lp797
F306.0
aI12
aI1
aI0
ag521
aa(lp798
F308.0
aI12
aI1
aI0
ag523
aa(lp799
F310.0
aI12
aI1
aI1
ag525
aa(lp800
F312.0
aI12
aI1
aI0
ag527
aa(lp801
F314.0
aI12
aI1
aI0
ag529
aa(lp802
F316.0
aI12
aI1
aI0
ag531
aa(lp803
F318.0
aI12
aI1
aI0
ag533
aa(lp804
F320.0
aI12
aI1
aI0
ag535
aa(lp805
F322.0
aI12
aI1
aI0
ag537
aa(lp806
F324.0
aI12
aI1
aI0
ag539
aa(lp807
F326.0
aI1
aI1
aI0
aS'inst'
p808
aa(lp809
F328.0
aI13
aI1
aI0
ag541
aa(lp810
F330.0
aI13
aI1
aI0
ag543
aa(lp811
F332.0
aI13
aI1
aI0
ag545
aa(lp812
F334.0
aI13
aI1
aI3
ag547
aa(lp813
F336.0
aI13
aI1
aI0
ag549
aa(lp814
F338.0
aI13
aI1
aI2
ag551
aa(lp815
F340.0
aI13
aI1
aI0
ag553
aa(lp816
F342.0
aI13
aI1
aI0
ag555
aa(lp817
F344.0
aI13
aI1
aI1
ag557
aa(lp818
F346.0
aI13
aI1
aI0
ag559
aa(lp819
F348.0
aI2
aI2
aI0
aS'inst'
p820
aa(lp821
F350.0
aI14
aI2
aI0
ag561
aa(lp822
F352.0
aI14
aI2
aI0
ag563
aa(lp823
F354.0
aI14
aI2
aI0
ag565
aa(lp824
F356.0
aI14
aI2
aI0
ag567
aa(lp825
F358.0
aI14
aI2
aI0
ag569
aa(lp826
F360.0
aI14
aI2
aI0
ag571
aa(lp827
F362.0
aI14
aI2
aI0
ag573
aa(lp828
F364.0
aI14
aI2
aI0
ag575
aa(lp829
F366.0
aI14
aI2
aI1
ag577
aa(lp830
F368.0
aI14
aI2
aI3
ag579
aa(lp831
F370.0
aI3
aI2
aI0
aS'inst'
p832
aa(lp833
F372.0
aI15
aI2
aI0
ag581
aa(lp834
F374.0
aI15
aI2
aI0
ag583
aa(lp835
F376.0
aI15
aI2
aI0
ag585
aa(lp836
F378.0
aI15
aI2
aI3
ag587
aa(lp837
F380.0
aI15
aI2
aI3
ag589
aa(lp838
F382.0
aI15
aI2
aI2
ag591
aa(lp839
F384.0
aI15
aI2
aI2
ag593
aa(lp840
F386.0
aI15
aI2
aI0
ag595
aa(lp841
F388.0
aI15
aI2
aI0
ag597
aa(lp842
F390.0
aI15
aI2
aI0
ag599
aa(lp843
F392.0
aI4
aI2
aI0
aS'inst'
p844
aa(lp845
F394.0
aI16
aI2
aI0
ag601
aa(lp846
F396.0
aI16
aI2
aI0
ag603
aa(lp847
F398.0
aI16
aI2
aI1
ag605
aa(lp848
F400.0
aI16
aI2
aI3
ag607
aa(lp849
F402.0
aI16
aI2
aI0
ag609
aa(lp850
F404.0
aI16
aI2
aI0
ag611
aa(lp851
F406.0
aI16
aI2
aI0
ag613
aa(lp852
F408.0
aI16
aI2
aI1
ag615
aa(lp853
F410.0
aI16
aI2
aI3
ag617
aa(lp854
F412.0
aI16
aI2
aI2
ag619
aa(lp855
F414.0
aI5
aI1
aI0
aS'inst'
p856
aa(lp857
F416.0
aI17
aI1
aI0
ag621
aa(lp858
F418.0
aI17
aI1
aI1
ag623
aa(lp859
F420.0
aI17
aI1
aI0
ag625
aa(lp860
F422.0
aI17
aI1
aI2
ag627
aa(lp861
F424.0
aI17
aI1
aI0
ag629
aa(lp862
F426.0
aI17
aI1
aI1
ag631
aa(lp863
F428.0
aI17
aI1
aI1
ag633
aa(lp864
F430.0
aI17
aI1
aI1
ag635
aa(lp865
F432.0
aI17
aI1
aI0
ag637
aa(lp866
F434.0
aI17
aI1
aI1
ag639
aasS'is_this_SS_trial'
p867
(dp868
sS'subcode'
p869
S'self_tracking_0032'
p870
sS'start_key'
p871
S'5'
p872
s.