(dp0
S'stim_onset_time'
p1
(dp2
sS'datestamp'
p3
S'2012-11-01-07_52_58'
p4
sS'ntrials_per_block'
p5
I6
sS'expt_title'
p6
S'Self_Tracking'
p7
sS'rt'
p8
(dp9
sS'simulated_response'
p10
I00
sS'script'
p11
(lp12
S'#!/usr/bin/env python\n'
p13
aS'\n'
p14
aS'import psychopy\n'
p15
aS'from psychopy import visual, core, event, logging, data, misc, sound\n'
p16
aS'import numpy as N\n'
p17
aS'import pickle,csv\n'
p18
aS'import datetime\n'
p19
aS'import sys\n'
p20
aS'import os, socket, random\n'
p21
aS'import inspect\n'
p22
aS'import hashlib\n'
p23
aS'from socket import gethostname\n'
p24
aS'import exptutils\n'
p25
aS'from exptutils import *\n'
p26
aS'from pylab import imread\n'
p27
ag14
aS'try:\n'
p28
aS'    from save_data_to_db import *\n'
p29
aS'    save_data=1\n'
p30
aS'except:\n'
p31
aS"    print 'cannnot import save_data_to_db'\n"
p32
aS'    save_data=0\n'
p33
ag14
aS'def store_scriptfile():\n'
p34
aS'    scriptfile= inspect.getfile(inspect.currentframe())# save a copy of the script in the data file\n'
p35
aS'    f=open(scriptfile)\n'
p36
aS'    script=f.readlines()\n'
p37
aS'    f.close()\n'
p38
aS'    return script\n'
p39
ag14
aS'#\n'
p40
aS'#- - - - - - - - - - - - - - - - - - - - - - - - - - - - - - - - - - - - - - - - - - - - - - - - - - - - - - - - - - - - - - - - - - - - - - - - - - - - - -\n'
p41
aS'#define functions for awaiting keyboard input & displaying initial instructions\n'
p42
aS'#these functions will be called prior to the stim_block() function (at bottom)\n'
p43
ag14
aS'def wait_for_trigger():\n'
p44
aS'    event.clearEvents()\n'
p45
aS"    if subdata['simulated_response']:\n"
p46
aS'        msg="SIMULATION MODE"\n'
p47
aS'    else:\n'
p48
aS"        msg=''\n"
p49
aS"    message=visual.TextStim(win, text='%s Waiting for start key (or press %s)'%(msg,subdata['start_key']),\n"
p50
aS"    font='BiauKai', height=1,color=u'white', colorSpace=u'rgb', opacity=1,depth=0.0,\n"
p51
aS"    alignHoriz='center',wrapWidth=50)\n"
p52
aS'    message.setAutoDraw(True) #automatically draw every frame\n'
p53
aS'    win.flip()\n'
p54
aS'    start=False\n'
p55
aS'    while start==False:\n'
p56
aS'        k=event.waitKeys()\n'
p57
aS"        if k.count(subdata['start_key'])>0:#as soon as subdata['start_key'] is pressed...\n"
p58
aS'            start=True\n'
p59
aS"            message.setText('')#this clears the screen\n"
p60
aS'            win.flip()\n'
p61
aS"        if k.count(subdata['quit_key']) >0:# if subdata['quit_key'] is pressed...\n"
p62
aS'            exptutils.shut_down_cleanly(subdata,win)\n'
p63
aS'            return subdata\n'
p64
aS'            \n'
p65
aS"def instructions(n,duration):#n here changes depending on the n-back level; yes/no will also switch between 'u' & 'i' keys depending on the Order number selected\n"
p66
aS'    event.clearEvents()\n'
p67
aS"    instructions=visual.TextStim(win=win, ori=0, name='instructions',font='BiauKai',\n"
p68
aS"        text='%d back'%n,\n"
p69
aS"        height=2,color=u'white', colorSpace=u'rgb', alignHoriz='center',wrapWidth=50)\n"
p70
aS'    instructions.setAutoDraw(True)\n'
p71
aS'    win.flip()\n'
p72
aS'    core.wait(duration)#currently it is set up to keep instructions on screen the designated amt of time; a button press will not end these instructions sooner\n'
p73
aS"    instructions.setText('')\n"
p74
aS'    win.flip()\n'
p75
ag14
aS'#- - - - - - - - - - - - - - - - - - - - - - - - - - - - - - - - - - - - - - - - - - - - - - - - - - - - - - - - - - - - - - - - - - - - - - - - \n'
p76
ag14
ag14
aS'#define function for displaying visual stims for each trial on n-back task\n'
p77
ag14
aS'def draw_stim(win,event_info,subdata,visual_stim):\n'
p78
aS'    trialdata={}\n'
p79
aS"    trialdata['duration']=subdata['stim_dur']\n"
p80
aS"    trialdata['onset'],trialdata['block'],trialdata['nback'],trialdata['match'],trialdata['stim']=event_info\n"
p81
aS'    # NB: I removed a lot of data handling stuff from within this function\n'
p82
aS'    # instead, the data get returned and handled at the calling level\n'
p83
aS"    print trialdata['stim']\n"
p84
aS"    if trialdata['stim'].find('faces')>-1:#if it is a face image, display vertically\n"
p85
aS"        stim_type='faces'\n"
p86
aS"    elif trialdata['stim'].find('scenes')>-1:#\n"
p87
aS"        stim_type='scenes'\n"
p88
aS'    else:#if it is a character, display as text\n'
p89
aS"        stim_type='chinese_characters'\n"
p90
aS'        \n'
p91
aS"    visual_stim.setImage(trialdata['stim'])\n"
p92
aS"    trialdata['stim_type']=stim_type\n"
p93
aS'    \n'
p94
aS'        #visual_stim[stim_type].setAutoDraw(True)#get the image ready to display\n'
p95
aS'    visual_stim.draw()\n'
p96
aS"    while clock.getTime()<trialdata['onset']:#wait until the specified onset time to display image_file\n"
p97
aS'        pass\n'
p98
aS'    win.flip()\n'
p99
aS"    trialdata['actual_onset_time']=clock.getTime()\n"
p100
aS'    event.clearEvents()#clear all button presses\n'
p101
aS'    thisResp=None\n'
p102
aS'    simulated_rt=0.5 + N.random.rand()*0.1\n'
p103
aS"    while clock.getTime() < (trialdata['actual_onset_time'] + trialdata['duration']) and  thisResp==None:#before the subdata['stim_dur'] time is exceeded, do this stuff...\n"
p104
aS'            key_response=event.getKeys()#look for yes,no, and quit commands\n'
p105
aS"            if subdata['simulated_response']:\n"
p106
aS"                if clock.getTime()> trialdata['actual_onset_time'] + simulated_rt:\n"
p107
aS'                    thisResp=1\n'
p108
aS"                    trialdata['rt']=clock.getTime() - trialdata['actual_onset_time'] #collect rt\n"
p109
aS"                    if trialdata['match']==trialdata['nback']:\n"
p110
aS"                        trialdata['response']='4'\n"
p111
aS'                    else:\n'
p112
aS"                        trialdata['response']='1'\n"
p113
ag14
aS'            elif key_response:#if they press any button\n'
p114
aS"                if key_response.count(subdata['quit_key'])>0:#if subj hits subdata['quit_key']...\n"
p115
aS'                    keep_going=0\n'
p116
aS"                    #subdata['broke_on_trial'][which_block]=trial_num\n"
p117
aS'                    #shut_down_cleanly(subdata,win)\n'
p118
aS'                    return None\n'
p119
aS"                elif key_response.count('5')>0:\n"
p120
aS"                    subdata['trigger_times'].append(clock.getTime())\n"
p121
aS'                else:\n'
p122
aS'                    thisResp=1\n'
p123
aS"                    trialdata['rt']=clock.getTime() - trialdata['actual_onset_time'] #collect rt\n"
p124
aS"                    trialdata['response']=key_response[0]#collect response\n"
p125
ag14
aS'    visual_stim.clearTextures()\n'
p126
ag14
aS'    win.flip()\n'
p127
ag14
aS'    #del visual_stim\n'
p128
aS'    return trialdata\n'
p129
aS'    \n'
p130
ag14
ag14
aS'#Text saying the task has finished. Disappears with key press\n'
p131
ag14
aS'def display_finished_text():#finished with experiment\n'
p132
aS'    event.clearEvents()\n'
p133
aS'    message=visual.TextStim(win=win, ori=0,\n'
p134
aS"    text='All finished! Thanks  :) \\n Press any key to clear the screen.',\n"
p135
aS"    font=u'BiauKai',pos=[0, 0], height=2,color=u'white', colorSpace=u'rgb', opacity=1,depth=0.0,alignHoriz='center',wrapWidth=50)\n"
p136
aS'    message.setAutoDraw(True) \n'
p137
aS'    win.flip()\n'
p138
aS'    start=False\n'
p139
aS'    while start==False:\n'
p140
aS'        key_response=event.getKeys()\n'
p141
aS'        if len(key_response)>0:\n'
p142
aS'            start=True\n'
p143
aS"            message.setText('')#this clears the screen\n"
p144
aS'            win.flip()\n'
p145
aS'    return start\n'
p146
aS'#- - - - - - - - - - - - - - - - - - - - - - - - - - - - - - - - - - - - - - - - - - - - - - - - - - - - - - - - - - - - - - - - - - - - - - \n'
p147
ag14
aS'    \n'
p148
aS'#set-up some variables\n'
p149
ag14
aS'verbose=True\n'
p150
aS'fullscr=False  # change to True for full screen display\n'
p151
ag14
aS"stim_types=['faces','scenes','chinese_characters']\n"
p152
aS'subdata={}\n'
p153
ag14
aS"subdata['start_key']='5'\n"
p154
aS"subdata['quit_key']='q'\n"
p155
aS"subdata['discard_time_to_wait']=0.0\n"
p156
aS"subdata['expt_title']='Self_Tracking'\n"
p157
aS"subdata['stim_dur']=1.5\n"
p158
aS"subdata['inter_stim_int']=1.0\n"
p159
aS"subdata['inst_time']=1.0\n"
p160
aS"subdata['rest_time']=10.0\n"
p161
aS"subdata['ExpVersion']=0.1\n"
p162
aS"subdata['nstims']=5\n"
p163
aS"subdata['ntrials_per_block']=6\n"
p164
aS"subdata['simulated_response']=False\n"
p165
aS"subdata['trigger_times']=[]\n"
p166
ag14
aS'if len(sys.argv)<2:\n'
p167
aS"    print 'USAGE: self_tracking.py <stimlist> <session code>'\n"
p168
aS'    sys.exit()\n'
p169
aS"    #subdata['onsetfile']='/Users/poldrack/Dropbox/Documents/Projects/self-tracking/task/onsetlists/stimlist_000.txt'\n"
p170
aS'else:\n'
p171
aS"    subdata['onsetfile']=sys.argv[1]\n"
p172
aS"    subdata['subcode']=sys.argv[2]\n"
p173
ag14
ag14
aS'# initialize subdata dictionary to store info about the study\n'
p174
aS"subdata['completed']=0\n"
p175
aS"subdata['cwd']=os.getcwd()\n"
p176
aS"subdata['hostname']=socket.gethostname()\n"
p177
aS'clock=core.Clock()\n'
p178
aS'datestamp=datetime.datetime.now().strftime("%Y-%m-%d-%H_%M_%S")\n'
p179
aS"subdata['datestamp']=datestamp\n"
p180
aS"subdata['expt_title']=subdata['expt_title']\n"
p181
aS"subdata['script']=store_scriptfile()\n"
p182
aS"subdata['onsets']=subdata['onsetfile']\n"
p183
ag14
aS'#these are all sub-dictionaries which will be appended w/separate info for each block & each trial\n'
p184
aS"#i.e., the 'response' dictionary will contain the following dictionaries: face_1, face_2, scenes_1, scenes_2, whose keys are trial_num and values are the responses on that trial\n"
p185
aS"subdata['response']={}\n"
p186
aS"subdata['score']={}\n"
p187
aS"subdata['rt']={}\n"
p188
aS"subdata['stim_onset_time']={}\n"
p189
aS"subdata['stim_log']={}\n"
p190
aS"subdata['is_this_SS_trial']={}\n"
p191
aS"subdata['SS']={}\n"
p192
aS"subdata['broke_on_trial']={}\n"
p193
ag14
aS'# set up logging information & create Output directories\n'
p194
aS"if not os.path.isdir('Output'):#make an Output directory if necessary\n"
p195
aS"    os.makedirs('Output') \n"
p196
ag14
aS"dataFileName='Output/%s_%s_subdata.log'%(subdata['subcode'],subdata['datestamp'])\n"
p197
aS'logging.console.setLevel(logging.INFO)\n'
p198
aS'logfile=logging.LogFile(dataFileName,level=logging.INFO)\n'
p199
ag14
aS'# load stimulus file\n'
p200
ag14
aS'def load_stimulus_file(onsfile):\n'
p201
aS'    events=[]\n'
p202
aS'    f=open(onsfile)\n'
p203
aS'    l=f.readlines()\n'
p204
aS'    for line in l:\n'
p205
aS"        l_s=line.strip('\\n').split('\\t')\n"
p206
aS'        events.append([float(l_s[0]),int(l_s[1]),int(l_s[2]),int(l_s[3]),l_s[4]])\n'
p207
aS'    f.close()\n'
p208
aS'    return events\n'
p209
ag14
aS"events=load_stimulus_file(subdata['onsetfile'])\n"
p210
ag14
aS'# set up the window \n'
p211
aS"win = visual.Window([800,600],allowGUI=True, fullscr=True, monitor='testMonitor', units='deg')\n"
p212
aS"win.setColor('black')\n"
p213
aS'win.flip()\n'
p214
aS'win.flip()\n'
p215
ag14
aS'#integrating everything together\n'
p216
ag14
aS"subdata['trialdata']={}\n"
p217
aS'#chardict=create_characters_dict()\n'
p218
ag14
aS"wait_for_trigger()#wait for subdata['start_key'] to be pressed\n"
p219
ag14
aS'visual_stim={}\n'
p220
aS"visual_stim=visual.ImageStim(win, image=N.zeros((10,10)), size=(0.75,0.75),units='height')\n"
p221
ag14
aS'# set clock to zero\n'
p222
aS'clock.reset()\n'
p223
aS'trialctr=0\n'
p224
aS'for i in range(len(events)):\n'
p225
aS"    if events[i][4]=='inst':\n"
p226
aS'        while clock.getTime() < events[i][0]:\n'
p227
aS'            pass\n'
p228
aS"        instructions(events[i][2],subdata['inst_time'])\n"
p229
aS'    else:\n'
p230
aS"        subdata['trialdata'][trialctr]=draw_stim(win,events[i],subdata,visual_stim)\n"
p231
aS"        if subdata['trialdata'][trialctr]==None:\n"
p232
aS'            break\n'
p233
aS'        trialctr+=1\n'
p234
aS"        print 'return time:',clock.getTime()\n"
p235
ag14
aS'#display_finished_text()\n'
p236
ag14
aS"subdata['events']=events\n"
p237
aS'if save_data==1:\n'
p238
aS"    docId,docRev=save_data_to_db(subdata,'selftracking-taskdata')\n"
p239
ag14
aS'shut_down_cleanly(subdata,win)\n'
p240
asS'onsets'
p241
S'onsetlists/stimlist_001.txt'
p242
sS'hostname'
p243
S'IRC-arizona'
p244
sS'score'
p245
(dp246
sS'rest_time'
p247
F10.0
sS'cwd'
p248
S'/Users/rap2623/Dropbox/Documents/Projects/self-tracking/task'
p249
sS'trigger_times'
p250
(lp251
sS'ExpVersion'
p252
F0.1
sS'completed'
p253
I0
sS'stim_dur'
p254
F1.5
sS'quit_key'
p255
S'q'
p256
sS'onsetfile'
p257
g242
sS'discard_time_to_wait'
p258
F0.0
sS'response'
p259
(dp260
sS'trialdata'
p261
(dp262
I0
(dp263
S'stim'
p264
S'stimfiles/chinese_characters/25805.jpg'
p265
sS'onset'
p266
F2.0
sS'stim_type'
p267
S'chinese_characters'
p268
sS'block'
p269
I0
sS'nback'
p270
I1
sS'duration'
p271
F1.5
sS'match'
p272
I0
sS'actual_onset_time'
p273
F2.0163960456848145
ssI1
NssS'stim_log'
p274
(dp275
sS'nstims'
p276
I5
sS'inter_stim_int'
p277
F1.0
sS'SS'
p278
(dp279
sS'inst_time'
p280
F1.0
sS'broke_on_trial'
p281
(dp282
sS'events'
p283
(lp284
(lp285
F0.0
aI0
aI1
aI0
aS'inst'
p286
aa(lp287
F2.0
aI0
aI1
aI0
ag265
aa(lp288
F4.0
aI0
aI1
aI0
aS'stimfiles/chinese_characters/33327.jpg'
p289
aa(lp290
F6.0
aI0
aI1
aI0
aS'stimfiles/chinese_characters/24679.jpg'
p291
aa(lp292
F8.0
aI0
aI1
aI0
aS'stimfiles/chinese_characters/26155.jpg'
p293
aa(lp294
F10.0
aI0
aI1
aI2
aS'stimfiles/chinese_characters/24679.jpg'
p295
aa(lp296
F12.0
aI0
aI1
aI1
aS'stimfiles/chinese_characters/24679.jpg'
p297
aa(lp298
F14.0
aI0
aI1
aI0
aS'stimfiles/chinese_characters/26574.jpg'
p299
aa(lp300
F16.0
aI0
aI1
aI3
aS'stimfiles/chinese_characters/24679.jpg'
p301
aa(lp302
F18.0
aI0
aI1
aI0
aS'stimfiles/chinese_characters/29317.jpg'
p303
aa(lp304
F20.0
aI0
aI1
aI0
aS'stimfiles/chinese_characters/25852.jpg'
p305
aa(lp306
F22.0
aI1
aI1
aI0
aS'inst'
p307
aa(lp308
F24.0
aI1
aI1
aI0
aS'stimfiles/faces/764.png'
p309
aa(lp310
F26.0
aI1
aI1
aI0
aS'stimfiles/faces/446.png'
p311
aa(lp312
F28.0
aI1
aI1
aI2
aS'stimfiles/faces/764.png'
p313
aa(lp314
F30.0
aI1
aI1
aI0
aS'stimfiles/faces/320.png'
p315
aa(lp316
F32.0
aI1
aI1
aI0
aS'stimfiles/faces/83.png'
p317
aa(lp318
F34.0
aI1
aI1
aI3
aS'stimfiles/faces/764.png'
p319
aa(lp320
F36.0
aI1
aI1
aI1
aS'stimfiles/faces/764.png'
p321
aa(lp322
F38.0
aI1
aI1
aI0
aS'stimfiles/faces/803.png'
p323
aa(lp324
F40.0
aI1
aI1
aI2
aS'stimfiles/faces/764.png'
p325
aa(lp326
F42.0
aI1
aI1
aI1
aS'stimfiles/faces/764.png'
p327
aa(lp328
F44.0
aI2
aI1
aI0
aS'inst'
p329
aa(lp330
F46.0
aI2
aI1
aI0
aS'stimfiles/scenes/1711.jpg'
p331
aa(lp332
F48.0
aI2
aI1
aI0
aS'stimfiles/scenes/1548.jpg'
p333
aa(lp334
F50.0
aI2
aI1
aI1
aS'stimfiles/scenes/1548.jpg'
p335
aa(lp336
F52.0
aI2
aI1
aI1
aS'stimfiles/scenes/1548.jpg'
p337
aa(lp338
F54.0
aI2
aI1
aI3
aS'stimfiles/scenes/1548.jpg'
p339
aa(lp340
F56.0
aI2
aI1
aI0
aS'stimfiles/scenes/663.jpg'
p341
aa(lp342
F58.0
aI2
aI1
aI3
aS'stimfiles/scenes/1548.jpg'
p343
aa(lp344
F60.0
aI2
aI1
aI0
aS'stimfiles/scenes/1249.jpg'
p345
aa(lp346
F62.0
aI2
aI1
aI0
aS'stimfiles/scenes/1452.jpg'
p347
aa(lp348
F64.0
aI2
aI1
aI0
aS'stimfiles/scenes/757.jpg'
p349
aa(lp350
F66.0
aI3
aI2
aI0
aS'inst'
p351
aa(lp352
F68.0
aI3
aI2
aI0
aS'stimfiles/chinese_characters/29734.jpg'
p353
aa(lp354
F70.0
aI3
aI2
aI0
aS'stimfiles/chinese_characters/37203.jpg'
p355
aa(lp356
F72.0
aI3
aI2
aI0
aS'stimfiles/chinese_characters/24845.jpg'
p357
aa(lp358
F74.0
aI3
aI2
aI0
aS'stimfiles/chinese_characters/26216.jpg'
p359
aa(lp360
F76.0
aI3
aI2
aI0
aS'stimfiles/chinese_characters/35510.jpg'
p361
aa(lp362
F78.0
aI3
aI2
aI0
aS'stimfiles/chinese_characters/25391.jpg'
p363
aa(lp364
F80.0
aI3
aI2
aI0
aS'stimfiles/chinese_characters/24821.jpg'
p365
aa(lp366
F82.0
aI3
aI2
aI2
aS'stimfiles/chinese_characters/25391.jpg'
p367
aa(lp368
F84.0
aI3
aI2
aI2
aS'stimfiles/chinese_characters/24821.jpg'
p369
aa(lp370
F86.0
aI3
aI2
aI2
aS'stimfiles/chinese_characters/25391.jpg'
p371
aa(lp372
F88.0
aI4
aI2
aI0
aS'inst'
p373
aa(lp374
F90.0
aI4
aI2
aI0
aS'stimfiles/faces/373.png'
p375
aa(lp376
F92.0
aI4
aI2
aI0
aS'stimfiles/faces/325.png'
p377
aa(lp378
F94.0
aI4
aI2
aI0
aS'stimfiles/faces/328.png'
p379
aa(lp380
F96.0
aI4
aI2
aI2
aS'stimfiles/faces/325.png'
p381
aa(lp382
F98.0
aI4
aI2
aI0
aS'stimfiles/faces/811.png'
p383
aa(lp384
F100.0
aI4
aI2
aI0
aS'stimfiles/faces/336.png'
p385
aa(lp386
F102.0
aI4
aI2
aI1
aS'stimfiles/faces/336.png'
p387
aa(lp388
F104.0
aI4
aI2
aI3
aS'stimfiles/faces/811.png'
p389
aa(lp390
F106.0
aI4
aI2
aI0
aS'stimfiles/faces/749.png'
p391
aa(lp392
F108.0
aI4
aI2
aI0
aS'stimfiles/faces/436.png'
p393
aa(lp394
F110.0
aI5
aI2
aI0
aS'inst'
p395
aa(lp396
F112.0
aI5
aI2
aI0
aS'stimfiles/scenes/448.jpg'
p397
aa(lp398
F114.0
aI5
aI2
aI0
aS'stimfiles/scenes/531.jpg'
p399
aa(lp400
F116.0
aI5
aI2
aI0
aS'stimfiles/scenes/1118.jpg'
p401
aa(lp402
F118.0
aI5
aI2
aI3
aS'stimfiles/scenes/448.jpg'
p403
aa(lp404
F120.0
aI5
aI2
aI0
aS'stimfiles/scenes/205.jpg'
p405
aa(lp406
F122.0
aI5
aI2
aI1
aS'stimfiles/scenes/205.jpg'
p407
aa(lp408
F124.0
aI5
aI2
aI1
aS'stimfiles/scenes/205.jpg'
p409
aa(lp410
F126.0
aI5
aI2
aI0
aS'stimfiles/scenes/1231.jpg'
p411
aa(lp412
F128.0
aI5
aI2
aI0
aS'stimfiles/scenes/1404.jpg'
p413
aa(lp414
F130.0
aI5
aI2
aI0
aS'stimfiles/scenes/88.jpg'
p415
aa(lp416
F152.0
aI0
aI1
aI0
aS'inst'
p417
aa(lp418
F154.0
aI6
aI1
aI0
aS'stimfiles/chinese_characters/25860.jpg'
p419
aa(lp420
F156.0
aI6
aI1
aI0
aS'stimfiles/chinese_characters/25773.jpg'
p421
aa(lp422
F158.0
aI6
aI1
aI0
aS'stimfiles/chinese_characters/26387.jpg'
p423
aa(lp424
F160.0
aI6
aI1
aI0
aS'stimfiles/chinese_characters/25797.jpg'
p425
aa(lp426
F162.0
aI6
aI1
aI1
aS'stimfiles/chinese_characters/25797.jpg'
p427
aa(lp428
F164.0
aI6
aI1
aI0
aS'stimfiles/chinese_characters/25457.jpg'
p429
aa(lp430
F166.0
aI6
aI1
aI1
aS'stimfiles/chinese_characters/25457.jpg'
p431
aa(lp432
F168.0
aI6
aI1
aI0
aS'stimfiles/chinese_characters/25549.jpg'
p433
aa(lp434
F170.0
aI6
aI1
aI3
aS'stimfiles/chinese_characters/25457.jpg'
p435
aa(lp436
F172.0
aI6
aI1
aI1
aS'stimfiles/chinese_characters/25457.jpg'
p437
aa(lp438
F174.0
aI1
aI1
aI0
aS'inst'
p439
aa(lp440
F176.0
aI7
aI1
aI0
aS'stimfiles/faces/352.png'
p441
aa(lp442
F178.0
aI7
aI1
aI1
aS'stimfiles/faces/352.png'
p443
aa(lp444
F180.0
aI7
aI1
aI0
aS'stimfiles/faces/388.png'
p445
aa(lp446
F182.0
aI7
aI1
aI0
aS'stimfiles/faces/752.png'
p447
aa(lp448
F184.0
aI7
aI1
aI0
aS'stimfiles/faces/356.png'
p449
aa(lp450
F186.0
aI7
aI1
aI0
aS'stimfiles/faces/372.png'
p451
aa(lp452
F188.0
aI7
aI1
aI3
aS'stimfiles/faces/752.png'
p453
aa(lp454
F190.0
aI7
aI1
aI1
aS'stimfiles/faces/752.png'
p455
aa(lp456
F192.0
aI7
aI1
aI1
aS'stimfiles/faces/752.png'
p457
aa(lp458
F194.0
aI7
aI1
aI0
aS'stimfiles/faces/374.png'
p459
aa(lp460
F196.0
aI2
aI1
aI0
aS'inst'
p461
aa(lp462
F198.0
aI8
aI1
aI0
aS'stimfiles/scenes/1106.jpg'
p463
aa(lp464
F200.0
aI8
aI1
aI0
aS'stimfiles/scenes/301.jpg'
p465
aa(lp466
F202.0
aI8
aI1
aI0
aS'stimfiles/scenes/716.jpg'
p467
aa(lp468
F204.0
aI8
aI1
aI1
aS'stimfiles/scenes/716.jpg'
p469
aa(lp470
F206.0
aI8
aI1
aI1
aS'stimfiles/scenes/716.jpg'
p471
aa(lp472
F208.0
aI8
aI1
aI3
aS'stimfiles/scenes/716.jpg'
p473
aa(lp474
F210.0
aI8
aI1
aI2
aS'stimfiles/scenes/716.jpg'
p475
aa(lp476
F212.0
aI8
aI1
aI0
aS'stimfiles/scenes/1818.jpg'
p477
aa(lp478
F214.0
aI8
aI1
aI2
aS'stimfiles/scenes/716.jpg'
p479
aa(lp480
F216.0
aI8
aI1
aI0
aS'stimfiles/scenes/990.jpg'
p481
aa(lp482
F218.0
aI3
aI2
aI0
aS'inst'
p483
aa(lp484
F220.0
aI9
aI2
aI0
aS'stimfiles/chinese_characters/26152.jpg'
p485
aa(lp486
F222.0
aI9
aI2
aI0
aS'stimfiles/chinese_characters/25046.jpg'
p487
aa(lp488
F224.0
aI9
aI2
aI1
aS'stimfiles/chinese_characters/25046.jpg'
p489
aa(lp490
F226.0
aI9
aI2
aI1
aS'stimfiles/chinese_characters/25046.jpg'
p491
aa(lp492
F228.0
aI9
aI2
aI1
aS'stimfiles/chinese_characters/25046.jpg'
p493
aa(lp494
F230.0
aI9
aI2
aI3
aS'stimfiles/chinese_characters/25046.jpg'
p495
aa(lp496
F232.0
aI9
aI2
aI0
aS'stimfiles/chinese_characters/24591.jpg'
p497
aa(lp498
F234.0
aI9
aI2
aI3
aS'stimfiles/chinese_characters/25046.jpg'
p499
aa(lp500
F236.0
aI9
aI2
aI2
aS'stimfiles/chinese_characters/24591.jpg'
p501
aa(lp502
F238.0
aI9
aI2
aI2
aS'stimfiles/chinese_characters/25046.jpg'
p503
aa(lp504
F240.0
aI4
aI2
aI0
aS'inst'
p505
aa(lp506
F242.0
aI10
aI2
aI0
aS'stimfiles/faces/397.png'
p507
aa(lp508
F244.0
aI10
aI2
aI0
aS'stimfiles/faces/76.png'
p509
aa(lp510
F246.0
aI10
aI2
aI2
aS'stimfiles/faces/397.png'
p511
aa(lp512
F248.0
aI10
aI2
aI0
aS'stimfiles/faces/35.png'
p513
aa(lp514
F250.0
aI10
aI2
aI0
aS'stimfiles/faces/150.png'
p515
aa(lp516
F252.0
aI10
aI2
aI0
aS'stimfiles/faces/839.png'
p517
aa(lp518
F254.0
aI10
aI2
aI0
aS'stimfiles/faces/428.png'
p519
aa(lp520
F256.0
aI10
aI2
aI3
aS'stimfiles/faces/150.png'
p521
aa(lp522
F258.0
aI10
aI2
aI2
aS'stimfiles/faces/428.png'
p523
aa(lp524
F260.0
aI10
aI2
aI2
aS'stimfiles/faces/150.png'
p525
aa(lp526
F262.0
aI5
aI2
aI0
aS'inst'
p527
aa(lp528
F264.0
aI11
aI2
aI0
aS'stimfiles/scenes/3008.jpg'
p529
aa(lp530
F266.0
aI11
aI2
aI0
aS'stimfiles/scenes/462.jpg'
p531
aa(lp532
F268.0
aI11
aI2
aI0
aS'stimfiles/scenes/493.jpg'
p533
aa(lp534
F270.0
aI11
aI2
aI2
aS'stimfiles/scenes/462.jpg'
p535
aa(lp536
F272.0
aI11
aI2
aI0
aS'stimfiles/scenes/868.jpg'
p537
aa(lp538
F274.0
aI11
aI2
aI2
aS'stimfiles/scenes/462.jpg'
p539
aa(lp540
F276.0
aI11
aI2
aI2
aS'stimfiles/scenes/868.jpg'
p541
aa(lp542
F278.0
aI11
aI2
aI2
aS'stimfiles/scenes/462.jpg'
p543
aa(lp544
F280.0
aI11
aI2
aI0
aS'stimfiles/scenes/656.jpg'
p545
aa(lp546
F282.0
aI11
aI2
aI2
aS'stimfiles/scenes/462.jpg'
p547
aa(lp548
F304.0
aI0
aI1
aI0
aS'inst'
p549
aa(lp550
F306.0
aI12
aI1
aI0
aS'stimfiles/chinese_characters/26212.jpg'
p551
aa(lp552
F308.0
aI12
aI1
aI0
aS'stimfiles/chinese_characters/35578.jpg'
p553
aa(lp554
F310.0
aI12
aI1
aI1
aS'stimfiles/chinese_characters/35578.jpg'
p555
aa(lp556
F312.0
aI12
aI1
aI1
aS'stimfiles/chinese_characters/35578.jpg'
p557
aa(lp558
F314.0
aI12
aI1
aI0
aS'stimfiles/chinese_characters/26568.jpg'
p559
aa(lp560
F316.0
aI12
aI1
aI2
aS'stimfiles/chinese_characters/35578.jpg'
p561
aa(lp562
F318.0
aI12
aI1
aI2
aS'stimfiles/chinese_characters/26568.jpg'
p563
aa(lp564
F320.0
aI12
aI1
aI0
aS'stimfiles/chinese_characters/29282.jpg'
p565
aa(lp566
F322.0
aI12
aI1
aI3
aS'stimfiles/chinese_characters/35578.jpg'
p567
aa(lp568
F324.0
aI12
aI1
aI0
aS'stimfiles/chinese_characters/31639.jpg'
p569
aa(lp570
F326.0
aI1
aI1
aI0
aS'inst'
p571
aa(lp572
F328.0
aI13
aI1
aI0
aS'stimfiles/faces/364.png'
p573
aa(lp574
F330.0
aI13
aI1
aI0
aS'stimfiles/faces/427.png'
p575
aa(lp576
F332.0
aI13
aI1
aI2
aS'stimfiles/faces/364.png'
p577
aa(lp578
F334.0
aI13
aI1
aI0
aS'stimfiles/faces/753.png'
p579
aa(lp580
F336.0
aI13
aI1
aI0
aS'stimfiles/faces/339.png'
p581
aa(lp582
F338.0
aI13
aI1
aI0
aS'stimfiles/faces/767.png'
p583
aa(lp584
F340.0
aI13
aI1
aI3
aS'stimfiles/faces/753.png'
p585
aa(lp586
F342.0
aI13
aI1
aI0
aS'stimfiles/faces/409.png'
p587
aa(lp588
F344.0
aI13
aI1
aI1
aS'stimfiles/faces/409.png'
p589
aa(lp590
F346.0
aI13
aI1
aI0
aS'stimfiles/faces/776.png'
p591
aa(lp592
F348.0
aI2
aI1
aI0
aS'inst'
p593
aa(lp594
F350.0
aI14
aI1
aI0
aS'stimfiles/scenes/330.jpg'
p595
aa(lp596
F352.0
aI14
aI1
aI0
aS'stimfiles/scenes/548.jpg'
p597
aa(lp598
F354.0
aI14
aI1
aI0
aS'stimfiles/scenes/666.jpg'
p599
aa(lp600
F356.0
aI14
aI1
aI0
aS'stimfiles/scenes/546.jpg'
p601
aa(lp602
F358.0
aI14
aI1
aI1
aS'stimfiles/scenes/546.jpg'
p603
aa(lp604
F360.0
aI14
aI1
aI1
aS'stimfiles/scenes/546.jpg'
p605
aa(lp606
F362.0
aI14
aI1
aI0
aS'stimfiles/scenes/1625.jpg'
p607
aa(lp608
F364.0
aI14
aI1
aI0
aS'stimfiles/scenes/468.jpg'
p609
aa(lp610
F366.0
aI14
aI1
aI2
aS'stimfiles/scenes/1625.jpg'
p611
aa(lp612
F368.0
aI14
aI1
aI0
aS'stimfiles/scenes/1613.jpg'
p613
aa(lp614
F370.0
aI3
aI2
aI0
aS'inst'
p615
aa(lp616
F372.0
aI15
aI2
aI0
aS'stimfiles/chinese_characters/26045.jpg'
p617
aa(lp618
F374.0
aI15
aI2
aI0
aS'stimfiles/chinese_characters/20638.jpg'
p619
aa(lp620
F376.0
aI15
aI2
aI0
aS'stimfiles/chinese_characters/35606.jpg'
p621
aa(lp622
F378.0
aI15
aI2
aI0
aS'stimfiles/chinese_characters/20710.jpg'
p623
aa(lp624
F380.0
aI15
aI2
aI0
aS'stimfiles/chinese_characters/30274.jpg'
p625
aa(lp626
F382.0
aI15
aI2
aI0
aS'stimfiles/chinese_characters/29820.jpg'
p627
aa(lp628
F384.0
aI15
aI2
aI3
aS'stimfiles/chinese_characters/20710.jpg'
p629
aa(lp630
F386.0
aI15
aI2
aI0
aS'stimfiles/chinese_characters/37300.jpg'
p631
aa(lp632
F388.0
aI15
aI2
aI0
aS'stimfiles/chinese_characters/32033.jpg'
p633
aa(lp634
F390.0
aI15
aI2
aI2
aS'stimfiles/chinese_characters/37300.jpg'
p635
aa(lp636
F392.0
aI4
aI2
aI0
aS'inst'
p637
aa(lp638
F394.0
aI16
aI2
aI0
aS'stimfiles/faces/303.png'
p639
aa(lp640
F396.0
aI16
aI2
aI1
aS'stimfiles/faces/303.png'
p641
aa(lp642
F398.0
aI16
aI2
aI0
aS'stimfiles/faces/359.png'
p643
aa(lp644
F400.0
aI16
aI2
aI2
aS'stimfiles/faces/303.png'
p645
aa(lp646
F402.0
aI16
aI2
aI0
aS'stimfiles/faces/416.png'
p647
aa(lp648
F404.0
aI16
aI2
aI0
aS'stimfiles/faces/324.png'
p649
aa(lp650
F406.0
aI16
aI2
aI0
aS'stimfiles/faces/290.png'
p651
aa(lp652
F408.0
aI16
aI2
aI1
aS'stimfiles/faces/290.png'
p653
aa(lp654
F410.0
aI16
aI2
aI3
aS'stimfiles/faces/324.png'
p655
aa(lp656
F412.0
aI16
aI2
aI2
aS'stimfiles/faces/290.png'
p657
aa(lp658
F414.0
aI5
aI2
aI0
aS'inst'
p659
aa(lp660
F416.0
aI17
aI2
aI0
aS'stimfiles/scenes/1428.jpg'
p661
aa(lp662
F418.0
aI17
aI2
aI0
aS'stimfiles/scenes/1004.jpg'
p663
aa(lp664
F420.0
aI17
aI2
aI0
aS'stimfiles/scenes/817.jpg'
p665
aa(lp666
F422.0
aI17
aI2
aI3
aS'stimfiles/scenes/1428.jpg'
p667
aa(lp668
F424.0
aI17
aI2
aI3
aS'stimfiles/scenes/1004.jpg'
p669
aa(lp670
F426.0
aI17
aI2
aI0
aS'stimfiles/scenes/1041.jpg'
p671
aa(lp672
F428.0
aI17
aI2
aI2
aS'stimfiles/scenes/1004.jpg'
p673
aa(lp674
F430.0
aI17
aI2
aI0
aS'stimfiles/scenes/257.jpg'
p675
aa(lp676
F432.0
aI17
aI2
aI1
aS'stimfiles/scenes/257.jpg'
p677
aa(lp678
F434.0
aI17
aI2
aI0
aS'stimfiles/scenes/1080.jpg'
p679
aasS'is_this_SS_trial'
p680
(dp681
sS'subcode'
p682
S'self-tracking_0017'
p683
sS'start_key'
p684
S'5'
p685
s.