(dp0
S'stim_onset_time'
p1
(dp2
sS'datestamp'
p3
S'2012-11-01-07_55_12'
p4
sS'ntrials_per_block'
p5
I6
sS'expt_title'
p6
S'Self_Tracking'
p7
sS'rt'
p8
(dp9
sS'simulated_response'
p10
I00
sS'script'
p11
(lp12
S'#!/usr/bin/env python\n'
p13
aS'\n'
p14
aS'import psychopy\n'
p15
aS'from psychopy import visual, core, event, logging, data, misc, sound\n'
p16
aS'import numpy as N\n'
p17
aS'import pickle,csv\n'
p18
aS'import datetime\n'
p19
aS'import sys\n'
p20
aS'import os, socket, random\n'
p21
aS'import inspect\n'
p22
aS'import hashlib\n'
p23
aS'from socket import gethostname\n'
p24
aS'import exptutils\n'
p25
aS'from exptutils import *\n'
p26
aS'from pylab import imread\n'
p27
ag14
aS'try:\n'
p28
aS'    from save_data_to_db import *\n'
p29
aS'    save_data=1\n'
p30
aS'except:\n'
p31
aS"    print 'cannnot import save_data_to_db'\n"
p32
aS'    save_data=0\n'
p33
ag14
aS'def store_scriptfile():\n'
p34
aS'    scriptfile= inspect.getfile(inspect.currentframe())# save a copy of the script in the data file\n'
p35
aS'    f=open(scriptfile)\n'
p36
aS'    script=f.readlines()\n'
p37
aS'    f.close()\n'
p38
aS'    return script\n'
p39
ag14
aS'#\n'
p40
aS'#- - - - - - - - - - - - - - - - - - - - - - - - - - - - - - - - - - - - - - - - - - - - - - - - - - - - - - - - - - - - - - - - - - - - - - - - - - - - - -\n'
p41
aS'#define functions for awaiting keyboard input & displaying initial instructions\n'
p42
aS'#these functions will be called prior to the stim_block() function (at bottom)\n'
p43
ag14
aS'def wait_for_trigger():\n'
p44
aS'    event.clearEvents()\n'
p45
aS"    if subdata['simulated_response']:\n"
p46
aS'        msg="SIMULATION MODE"\n'
p47
aS'    else:\n'
p48
aS"        msg=''\n"
p49
aS"    message=visual.TextStim(win, text='%s Waiting for start key (or press %s)'%(msg,subdata['start_key']),\n"
p50
aS"    font='BiauKai', height=1,color=u'white', colorSpace=u'rgb', opacity=1,depth=0.0,\n"
p51
aS"    alignHoriz='center',wrapWidth=50)\n"
p52
aS'    message.setAutoDraw(True) #automatically draw every frame\n'
p53
aS'    win.flip()\n'
p54
aS'    start=False\n'
p55
aS'    while start==False:\n'
p56
aS'        k=event.waitKeys()\n'
p57
aS"        if k.count(subdata['start_key'])>0:#as soon as subdata['start_key'] is pressed...\n"
p58
aS'            start=True\n'
p59
aS"            message.setText('')#this clears the screen\n"
p60
aS'            win.flip()\n'
p61
aS"        if k.count(subdata['quit_key']) >0:# if subdata['quit_key'] is pressed...\n"
p62
aS'            exptutils.shut_down_cleanly(subdata,win)\n'
p63
aS'            return subdata\n'
p64
aS'            \n'
p65
aS"def instructions(n,duration):#n here changes depending on the n-back level; yes/no will also switch between 'u' & 'i' keys depending on the Order number selected\n"
p66
aS'    event.clearEvents()\n'
p67
aS"    instructions=visual.TextStim(win=win, ori=0, name='instructions',font='BiauKai',\n"
p68
aS"        text='%d back'%n,\n"
p69
aS"        height=2,color=u'white', colorSpace=u'rgb', alignHoriz='center',wrapWidth=50)\n"
p70
aS'    instructions.setAutoDraw(True)\n'
p71
aS'    win.flip()\n'
p72
aS'    core.wait(duration)#currently it is set up to keep instructions on screen the designated amt of time; a button press will not end these instructions sooner\n'
p73
aS"    instructions.setText('')\n"
p74
aS'    win.flip()\n'
p75
ag14
aS'#- - - - - - - - - - - - - - - - - - - - - - - - - - - - - - - - - - - - - - - - - - - - - - - - - - - - - - - - - - - - - - - - - - - - - - - - \n'
p76
ag14
ag14
aS'#define function for displaying visual stims for each trial on n-back task\n'
p77
ag14
aS'def draw_stim(win,event_info,subdata,visual_stim):\n'
p78
aS'    trialdata={}\n'
p79
aS"    trialdata['duration']=subdata['stim_dur']\n"
p80
aS"    trialdata['onset'],trialdata['block'],trialdata['nback'],trialdata['match'],trialdata['stim']=event_info\n"
p81
aS'    # NB: I removed a lot of data handling stuff from within this function\n'
p82
aS'    # instead, the data get returned and handled at the calling level\n'
p83
aS"    print trialdata['stim']\n"
p84
aS"    if trialdata['stim'].find('faces')>-1:#if it is a face image, display vertically\n"
p85
aS"        stim_type='faces'\n"
p86
aS"    elif trialdata['stim'].find('scenes')>-1:#\n"
p87
aS"        stim_type='scenes'\n"
p88
aS'    else:#if it is a character, display as text\n'
p89
aS"        stim_type='chinese_characters'\n"
p90
aS'        \n'
p91
aS"    visual_stim.setImage(trialdata['stim'])\n"
p92
aS"    trialdata['stim_type']=stim_type\n"
p93
aS'    \n'
p94
aS'        #visual_stim[stim_type].setAutoDraw(True)#get the image ready to display\n'
p95
aS'    visual_stim.draw()\n'
p96
aS"    while clock.getTime()<trialdata['onset']:#wait until the specified onset time to display image_file\n"
p97
aS'        pass\n'
p98
aS'    win.flip()\n'
p99
aS"    trialdata['actual_onset_time']=clock.getTime()\n"
p100
aS'    event.clearEvents()#clear all button presses\n'
p101
aS'    thisResp=None\n'
p102
aS'    simulated_rt=0.5 + N.random.rand()*0.1\n'
p103
aS"    while clock.getTime() < (trialdata['actual_onset_time'] + trialdata['duration']) and  thisResp==None:#before the subdata['stim_dur'] time is exceeded, do this stuff...\n"
p104
aS'            key_response=event.getKeys()#look for yes,no, and quit commands\n'
p105
aS"            if subdata['simulated_response']:\n"
p106
aS"                if clock.getTime()> trialdata['actual_onset_time'] + simulated_rt:\n"
p107
aS'                    thisResp=1\n'
p108
aS"                    trialdata['rt']=clock.getTime() - trialdata['actual_onset_time'] #collect rt\n"
p109
aS"                    if trialdata['match']==trialdata['nback']:\n"
p110
aS"                        trialdata['response']='4'\n"
p111
aS'                    else:\n'
p112
aS"                        trialdata['response']='1'\n"
p113
ag14
aS'            elif key_response:#if they press any button\n'
p114
aS"                if key_response.count(subdata['quit_key'])>0:#if subj hits subdata['quit_key']...\n"
p115
aS'                    keep_going=0\n'
p116
aS"                    #subdata['broke_on_trial'][which_block]=trial_num\n"
p117
aS'                    #shut_down_cleanly(subdata,win)\n'
p118
aS'                    return None\n'
p119
aS"                elif key_response.count('5')>0:\n"
p120
aS"                    subdata['trigger_times'].append(clock.getTime())\n"
p121
aS'                else:\n'
p122
aS'                    thisResp=1\n'
p123
aS"                    trialdata['rt']=clock.getTime() - trialdata['actual_onset_time'] #collect rt\n"
p124
aS"                    trialdata['response']=key_response[0]#collect response\n"
p125
ag14
aS'    visual_stim.clearTextures()\n'
p126
ag14
aS'    win.flip()\n'
p127
ag14
aS'    #del visual_stim\n'
p128
aS'    return trialdata\n'
p129
aS'    \n'
p130
ag14
ag14
aS'#Text saying the task has finished. Disappears with key press\n'
p131
ag14
aS'def display_finished_text():#finished with experiment\n'
p132
aS'    event.clearEvents()\n'
p133
aS'    message=visual.TextStim(win=win, ori=0,\n'
p134
aS"    text='All finished! Thanks  :) \\n Press any key to clear the screen.',\n"
p135
aS"    font=u'BiauKai',pos=[0, 0], height=2,color=u'white', colorSpace=u'rgb', opacity=1,depth=0.0,alignHoriz='center',wrapWidth=50)\n"
p136
aS'    message.setAutoDraw(True) \n'
p137
aS'    win.flip()\n'
p138
aS'    start=False\n'
p139
aS'    while start==False:\n'
p140
aS'        key_response=event.getKeys()\n'
p141
aS'        if len(key_response)>0:\n'
p142
aS'            start=True\n'
p143
aS"            message.setText('')#this clears the screen\n"
p144
aS'            win.flip()\n'
p145
aS'    return start\n'
p146
aS'#- - - - - - - - - - - - - - - - - - - - - - - - - - - - - - - - - - - - - - - - - - - - - - - - - - - - - - - - - - - - - - - - - - - - - - \n'
p147
ag14
aS'    \n'
p148
aS'#set-up some variables\n'
p149
ag14
aS'verbose=True\n'
p150
aS'fullscr=False  # change to True for full screen display\n'
p151
ag14
aS"stim_types=['faces','scenes','chinese_characters']\n"
p152
aS'subdata={}\n'
p153
ag14
aS"subdata['start_key']='5'\n"
p154
aS"subdata['quit_key']='q'\n"
p155
aS"subdata['discard_time_to_wait']=0.0\n"
p156
aS"subdata['expt_title']='Self_Tracking'\n"
p157
aS"subdata['stim_dur']=1.5\n"
p158
aS"subdata['inter_stim_int']=1.0\n"
p159
aS"subdata['inst_time']=1.0\n"
p160
aS"subdata['rest_time']=10.0\n"
p161
aS"subdata['ExpVersion']=0.1\n"
p162
aS"subdata['nstims']=5\n"
p163
aS"subdata['ntrials_per_block']=6\n"
p164
aS"subdata['simulated_response']=False\n"
p165
aS"subdata['trigger_times']=[]\n"
p166
ag14
aS'if len(sys.argv)<2:\n'
p167
aS"    print 'USAGE: self_tracking.py <stimlist> <session code>'\n"
p168
aS'    sys.exit()\n'
p169
aS"    #subdata['onsetfile']='/Users/poldrack/Dropbox/Documents/Projects/self-tracking/task/onsetlists/stimlist_000.txt'\n"
p170
aS'else:\n'
p171
aS"    subdata['onsetfile']=sys.argv[1]\n"
p172
aS"    subdata['subcode']=sys.argv[2]\n"
p173
ag14
ag14
aS'# initialize subdata dictionary to store info about the study\n'
p174
aS"subdata['completed']=0\n"
p175
aS"subdata['cwd']=os.getcwd()\n"
p176
aS"subdata['hostname']=socket.gethostname()\n"
p177
aS'clock=core.Clock()\n'
p178
aS'datestamp=datetime.datetime.now().strftime("%Y-%m-%d-%H_%M_%S")\n'
p179
aS"subdata['datestamp']=datestamp\n"
p180
aS"subdata['expt_title']=subdata['expt_title']\n"
p181
aS"subdata['script']=store_scriptfile()\n"
p182
aS"subdata['onsets']=subdata['onsetfile']\n"
p183
ag14
aS'#these are all sub-dictionaries which will be appended w/separate info for each block & each trial\n'
p184
aS"#i.e., the 'response' dictionary will contain the following dictionaries: face_1, face_2, scenes_1, scenes_2, whose keys are trial_num and values are the responses on that trial\n"
p185
aS"subdata['response']={}\n"
p186
aS"subdata['score']={}\n"
p187
aS"subdata['rt']={}\n"
p188
aS"subdata['stim_onset_time']={}\n"
p189
aS"subdata['stim_log']={}\n"
p190
aS"subdata['is_this_SS_trial']={}\n"
p191
aS"subdata['SS']={}\n"
p192
aS"subdata['broke_on_trial']={}\n"
p193
ag14
aS'# set up logging information & create Output directories\n'
p194
aS"if not os.path.isdir('Output'):#make an Output directory if necessary\n"
p195
aS"    os.makedirs('Output') \n"
p196
ag14
aS"dataFileName='Output/%s_%s_subdata.log'%(subdata['subcode'],subdata['datestamp'])\n"
p197
aS'logging.console.setLevel(logging.INFO)\n'
p198
aS'logfile=logging.LogFile(dataFileName,level=logging.INFO)\n'
p199
ag14
aS'# load stimulus file\n'
p200
ag14
aS'def load_stimulus_file(onsfile):\n'
p201
aS'    events=[]\n'
p202
aS'    f=open(onsfile)\n'
p203
aS'    l=f.readlines()\n'
p204
aS'    for line in l:\n'
p205
aS"        l_s=line.strip('\\n').split('\\t')\n"
p206
aS'        events.append([float(l_s[0]),int(l_s[1]),int(l_s[2]),int(l_s[3]),l_s[4]])\n'
p207
aS'    f.close()\n'
p208
aS'    return events\n'
p209
ag14
aS"events=load_stimulus_file(subdata['onsetfile'])\n"
p210
ag14
aS'# set up the window \n'
p211
aS"win = visual.Window([800,600],allowGUI=True, fullscr=True, monitor='testMonitor', units='deg')\n"
p212
aS"win.setColor('black')\n"
p213
aS'win.flip()\n'
p214
aS'win.flip()\n'
p215
ag14
aS'#integrating everything together\n'
p216
ag14
aS"subdata['trialdata']={}\n"
p217
aS'#chardict=create_characters_dict()\n'
p218
ag14
aS"wait_for_trigger()#wait for subdata['start_key'] to be pressed\n"
p219
ag14
aS'visual_stim={}\n'
p220
aS"visual_stim=visual.ImageStim(win, image=N.zeros((10,10)), size=(0.75,0.75),units='height')\n"
p221
ag14
aS'# set clock to zero\n'
p222
aS'clock.reset()\n'
p223
aS'trialctr=0\n'
p224
aS'for i in range(len(events)):\n'
p225
aS"    if events[i][4]=='inst':\n"
p226
aS'        while clock.getTime() < events[i][0]:\n'
p227
aS'            pass\n'
p228
aS"        instructions(events[i][2],subdata['inst_time'])\n"
p229
aS'    else:\n'
p230
aS"        subdata['trialdata'][trialctr]=draw_stim(win,events[i],subdata,visual_stim)\n"
p231
aS"        if subdata['trialdata'][trialctr]==None:\n"
p232
aS'            break\n'
p233
aS'        trialctr+=1\n'
p234
aS"        print 'return time:',clock.getTime()\n"
p235
ag14
aS'#display_finished_text()\n'
p236
ag14
aS"subdata['events']=events\n"
p237
aS'if save_data==1:\n'
p238
aS"    docId,docRev=save_data_to_db(subdata,'selftracking-taskdata')\n"
p239
ag14
aS'shut_down_cleanly(subdata,win)\n'
p240
asS'onsets'
p241
S'onsetlists/stimlist_001.txt'
p242
sS'hostname'
p243
S'IRC-arizona'
p244
sS'score'
p245
(dp246
sS'rest_time'
p247
F10.0
sS'cwd'
p248
S'/Users/rap2623/Dropbox/Documents/Projects/self-tracking/task'
p249
sS'trigger_times'
p250
(lp251
F2.283561944961548
aF3.4436120986938477
aF4.603729963302612
aF8.084075927734375
aF10.40389895439148
aF16.204044103622437
aF18.524095058441162
aF24.324084043502808
aF26.644325017929077
aF30.124401092529297
aF32.443490982055664
aF34.763521909713745
aF38.24381399154663
aF40.5636830329895
aF46.36394000053406
aF48.684027910232544
aF52.16415190696716
aF54.484090089797974
aF56.804152965545654
aF60.28428411483765
aF68.40360403060913
aF74.20363903045654
aF76.52382612228394
aF78.84379005432129
aF82.3238890171051
aF84.64393210411072
aF90.44411993026733
aF92.7641499042511
aF96.24431490898132
aF98.56446194648743
aF100.88436889648438
aF102.04357409477234
aF103.20348501205444
aF104.36361694335938
aF106.68361210823059
aF109.00370001792908
aF112.48383498191833
aF114.80376291275024
aF118.28393411636353
aF120.6039810180664
aF122.92394208908081
aF124.08398103713989
aF126.40414500236511
aF128.72430109977722
aF131.04431700706482
aF154.2439830303192
aF156.5640230178833
aF160.04410600662231
aF162.36416006088257
aF164.68416500091553
aF168.16437792778015
aF170.48439002037048
aF176.28359293937683
aF178.60364508628845
aF182.08378410339355
aF184.40378594398499
aF186.72386002540588
aF190.20392394065857
aF192.5240080356598
aF198.3242130279541
aF200.64427590370178
aF204.12439608573914
aF206.44330596923828
aF208.76349091529846
aF212.2435700893402
aF214.5636339187622
aF216.88378596305847
aF220.36383605003357
aF222.68382000923157
aF225.003986120224
aF226.1640739440918
aF228.4840259552002
aF230.80419492721558
aF234.28426909446716
aF236.60427594184875
aF238.92441391944885
aF242.40444493293762
aF244.72352194786072
aF248.203684091568
aF250.52368807792664
aF256.3240370750427
aF258.64394211769104
aF260.9640529155731
aF264.44407892227173
aF270.24422097206116
aF272.5642991065979
aF274.88436007499695
aF276.0445330142975
aF278.3634009361267
aF280.6835560798645
aF283.00361704826355
aF306.20435190200806
aF308.52439308166504
aF314.3235080242157
aF316.6435890197754
aF318.9636199474335
aF320.1237919330597
aF322.4436559677124
aF324.7638020515442
aF328.24393105506897
aF330.56396198272705
aF334.0439670085907
aF336.3641369342804
aF338.68422508239746
aF342.16431403160095
aF344.48435711860657
aF346.8035159111023
aF350.2834520339966
aF352.60350799560547
aF356.08375906944275
aF358.4037539958954
aF360.7239260673523
aF364.20395398139954
aF366.5239779949188
aF368.84424209594727
aF372.32418608665466
aF374.64421105384827
aF376.964173078537
aF378.12443709373474
aF380.4444110393524
aF382.7634620666504
aF386.2434329986572
aF388.56363105773926
aF394.36379504203796
aF396.68391704559326
aF399.0041139125824
aF400.1640200614929
aF402.4840500354767
aF404.8040699958801
aF408.28424310684204
aF410.6042649745941
aF416.40444707870483
aF418.72346901893616
aF421.04351902008057
aF422.20367908477783
aF423.36358189582825
aF424.523521900177
aF426.84375
aF430.32386302948
aF432.64383912086487
aF434.96392798423767
asS'ExpVersion'
p252
F0.1
sS'completed'
p253
I0
sS'stim_dur'
p254
F1.5
sS'quit_key'
p255
S'q'
p256
sS'onsetfile'
p257
g242
sS'discard_time_to_wait'
p258
F0.0
sS'response'
p259
(dp260
sS'trialdata'
p261
(dp262
I0
(dp263
S'stim'
p264
S'stimfiles/chinese_characters/25805.jpg'
p265
sS'onset'
p266
F2.0
sS'stim_type'
p267
S'chinese_characters'
p268
sS'block'
p269
I0
sS'nback'
p270
I1
sS'duration'
p271
F1.5
sS'match'
p272
I0
sS'actual_onset_time'
p273
F2.0164780616760254
ssI1
(dp274
g8
F0.7853331565856934
sg264
S'stimfiles/chinese_characters/33327.jpg'
p275
sg266
F4.0
sg267
g268
sg269
I0
sg270
I1
sg271
F1.5
sg259
S'1'
p276
sg272
I0
sg273
F4.017319917678833
ssI2
(dp277
g8
F0.6856729984283447
sg264
S'stimfiles/chinese_characters/24679.jpg'
p278
sg266
F6.0
sg267
g268
sg269
I0
sg270
I1
sg271
F1.5
sg259
g276
sg272
I0
sg273
F6.018060922622681
ssI3
(dp279
g8
F0.5348601341247559
sg264
S'stimfiles/chinese_characters/26155.jpg'
p280
sg266
F8.0
sg267
g268
sg269
I0
sg270
I1
sg271
F1.5
sg259
g276
sg272
I0
sg273
F8.018955945968628
ssI4
(dp281
g8
F0.5579829216003418
sg264
S'stimfiles/chinese_characters/24679.jpg'
p282
sg266
F10.0
sg267
g268
sg269
I0
sg270
I1
sg271
F1.5
sg259
g276
sg272
I2
sg273
F10.01980710029602
ssI5
(dp283
g8
F0.4193110466003418
sg264
S'stimfiles/chinese_characters/24679.jpg'
p284
sg266
F12.0
sg267
g268
sg269
I0
sg270
I1
sg271
F1.5
sg259
S'4'
p285
sg272
I1
sg273
F12.020572900772095
ssI6
(dp286
g8
F0.7966811656951904
sg264
S'stimfiles/chinese_characters/26574.jpg'
p287
sg266
F14.0
sg267
g268
sg269
I0
sg270
I1
sg271
F1.5
sg259
g276
sg272
I0
sg273
F14.021359920501709
ssI7
(dp288
g8
F0.4937131404876709
sg264
S'stimfiles/chinese_characters/24679.jpg'
p289
sg266
F16.0
sg267
g268
sg269
I0
sg270
I1
sg271
F1.5
sg259
g285
sg272
I3
sg273
F16.022255897521973
ssI8
(dp290
g8
F0.8400259017944336
sg264
S'stimfiles/chinese_characters/29317.jpg'
p291
sg266
F18.0
sg267
g268
sg269
I0
sg270
I1
sg271
F1.5
sg259
g276
sg272
I0
sg273
F18.023019075393677
ssI9
(dp292
g8
F0.5572528839111328
sg264
S'stimfiles/chinese_characters/25852.jpg'
p293
sg266
F20.0
sg267
g268
sg269
I0
sg270
I1
sg271
F1.5
sg259
g276
sg272
I0
sg273
F20.02387309074402
ssI10
(dp294
g8
F0.5533349514007568
sg264
S'stimfiles/faces/764.png'
p295
sg266
F24.0
sg267
S'faces'
p296
sg269
I1
sg270
I1
sg271
F1.5
sg259
g276
sg272
I0
sg273
F24.00887107849121
ssI11
(dp297
g8
F0.6615490913391113
sg264
S'stimfiles/faces/446.png'
p298
sg266
F26.0
sg267
g296
sg269
I1
sg270
I1
sg271
F1.5
sg259
g276
sg272
I0
sg273
F26.009649991989136
ssI12
(dp299
g8
F0.748920202255249
sg264
S'stimfiles/faces/764.png'
p300
sg266
F28.0
sg267
g296
sg269
I1
sg270
I1
sg271
F1.5
sg259
g276
sg272
I2
sg273
F28.010459899902344
ssI13
(dp301
g8
F0.9350888729095459
sg264
S'stimfiles/faces/320.png'
p302
sg266
F30.0
sg267
g296
sg269
I1
sg270
I1
sg271
F1.5
sg259
g276
sg272
I0
sg273
F30.011280059814453
ssI14
(dp303
g8
F0.6733410358428955
sg264
S'stimfiles/faces/83.png'
p304
sg266
F32.0
sg267
g296
sg269
I1
sg270
I1
sg271
F1.5
sg259
g276
sg272
I0
sg273
F32.012075901031494
ssI15
(dp305
g8
F0.785506010055542
sg264
S'stimfiles/faces/764.png'
p306
sg266
F34.0
sg267
g296
sg269
I1
sg270
I1
sg271
F1.5
sg259
g276
sg272
I3
sg273
F34.01296401023865
ssI16
(dp307
g8
F0.5868620872497559
sg264
S'stimfiles/faces/764.png'
p308
sg266
F36.0
sg267
g296
sg269
I1
sg270
I1
sg271
F1.5
sg259
g285
sg272
I1
sg273
F36.01373291015625
ssI17
(dp309
g8
F0.739001989364624
sg264
S'stimfiles/faces/803.png'
p310
sg266
F38.0
sg267
g296
sg269
I1
sg270
I1
sg271
F1.5
sg259
g276
sg272
I0
sg273
F38.01462912559509
ssI18
(dp311
g8
F0.7332470417022705
sg264
S'stimfiles/faces/764.png'
p312
sg266
F40.0
sg267
g296
sg269
I1
sg270
I1
sg271
F1.5
sg259
g276
sg272
I2
sg273
F40.01539993286133
ssI19
(dp313
g8
F0.8495149612426758
sg264
S'stimfiles/faces/764.png'
p314
sg266
F42.0
sg267
g296
sg269
I1
sg270
I1
sg271
F1.5
sg259
g285
sg272
I1
sg273
F42.01622200012207
ssI20
(dp315
g8
F0.8079240322113037
sg264
S'stimfiles/scenes/1711.jpg'
p316
sg266
F46.0
sg267
S'scenes'
p317
sg269
I2
sg270
I1
sg271
F1.5
sg259
g276
sg272
I0
sg273
F46.01784300804138
ssI21
(dp318
g8
F0.730186939239502
sg264
S'stimfiles/scenes/1548.jpg'
p319
sg266
F48.0
sg267
g317
sg269
I2
sg270
I1
sg271
F1.5
sg259
g276
sg272
I0
sg273
F48.018723011016846
ssI22
(dp320
g8
F0.5505049228668213
sg264
S'stimfiles/scenes/1548.jpg'
p321
sg266
F50.0
sg267
g317
sg269
I2
sg270
I1
sg271
F1.5
sg259
g276
sg272
I1
sg273
F50.01945209503174
ssI23
(dp322
g8
F0.6056110858917236
sg264
S'stimfiles/scenes/1548.jpg'
p323
sg266
F52.0
sg267
g317
sg269
I2
sg270
I1
sg271
F1.5
sg259
g285
sg272
I1
sg273
F52.02031898498535
ssI24
(dp324
g8
F0.9579079151153564
sg264
S'stimfiles/scenes/1548.jpg'
p325
sg266
F54.0
sg267
g317
sg269
I2
sg270
I1
sg271
F1.5
sg259
g285
sg272
I3
sg273
F54.021162033081055
ssI25
(dp326
g8
F1.0218310356140137
sg264
S'stimfiles/scenes/663.jpg'
p327
sg266
F56.0
sg267
g317
sg269
I2
sg270
I1
sg271
F1.5
sg259
g276
sg272
I0
sg273
F56.0053288936615
ssI26
(dp328
g8
F0.6750900745391846
sg264
S'stimfiles/scenes/1548.jpg'
p329
sg266
F58.0
sg267
g317
sg269
I2
sg270
I1
sg271
F1.5
sg259
g276
sg272
I3
sg273
F58.00607991218567
ssI27
(dp330
g8
F0.799299955368042
sg264
S'stimfiles/scenes/1249.jpg'
p331
sg266
F60.0
sg267
g317
sg269
I2
sg270
I1
sg271
F1.5
sg259
g276
sg272
I0
sg273
F60.006958961486816
ssI28
(dp332
g8
F0.5415620803833008
sg264
S'stimfiles/scenes/1452.jpg'
p333
sg266
F62.0
sg267
g317
sg269
I2
sg270
I1
sg271
F1.5
sg259
g276
sg272
I0
sg273
F62.007766008377075
ssI29
(dp334
g8
F0.5917580127716064
sg264
S'stimfiles/scenes/757.jpg'
p335
sg266
F64.0
sg267
g317
sg269
I2
sg270
I1
sg271
F1.5
sg259
g276
sg272
I0
sg273
F64.00855803489685
ssI30
(dp336
g8
F0.8035869598388672
sg264
S'stimfiles/chinese_characters/29734.jpg'
p337
sg266
F68.0
sg267
g268
sg269
I3
sg270
I2
sg271
F1.5
sg259
g276
sg272
I0
sg273
F68.02688002586365
ssI31
(dp338
g8
F0.6184871196746826
sg264
S'stimfiles/chinese_characters/37203.jpg'
p339
sg266
F70.0
sg267
g268
sg269
I3
sg270
I2
sg271
F1.5
sg259
g276
sg272
I0
sg273
F70.01109290122986
ssI32
(dp340
g8
F0.67671799659729
sg264
S'stimfiles/chinese_characters/24845.jpg'
p341
sg266
F72.0
sg267
g268
sg269
I3
sg270
I2
sg271
F1.5
sg259
g276
sg272
I0
sg273
F72.01184797286987
ssI33
(dp342
g8
F0.7268450260162354
sg264
S'stimfiles/chinese_characters/26216.jpg'
p343
sg266
F74.0
sg267
g268
sg269
I3
sg270
I2
sg271
F1.5
sg259
g276
sg272
I0
sg273
F74.01277494430542
ssI34
(dp344
g8
F0.7441658973693848
sg264
S'stimfiles/chinese_characters/35510.jpg'
p345
sg266
F76.0
sg267
g268
sg269
I3
sg270
I2
sg271
F1.5
sg259
g285
sg272
I0
sg273
F76.01351404190063
ssI35
(dp346
g8
F0.8974480628967285
sg264
S'stimfiles/chinese_characters/25391.jpg'
p347
sg266
F78.0
sg267
g268
sg269
I3
sg270
I2
sg271
F1.5
sg259
g285
sg272
I0
sg273
F78.01437401771545
ssI36
(dp348
g8
F0.683387041091919
sg264
S'stimfiles/chinese_characters/24821.jpg'
p349
sg266
F80.0
sg267
g268
sg269
I3
sg270
I2
sg271
F1.5
sg259
g276
sg272
I0
sg273
F80.01518297195435
ssI37
(dp350
g8
F0.9388759136199951
sg264
S'stimfiles/chinese_characters/25391.jpg'
p351
sg266
F82.0
sg267
g268
sg269
I3
sg270
I2
sg271
F1.5
sg259
g285
sg272
I2
sg273
F82.01598811149597
ssI38
(dp352
g8
F1.0161499977111816
sg264
S'stimfiles/chinese_characters/24821.jpg'
p353
sg266
F84.0
sg267
g268
sg269
I3
sg270
I2
sg271
F1.5
sg259
g285
sg272
I2
sg273
F84.01678109169006
ssI39
(dp354
g8
F0.9023609161376953
sg264
S'stimfiles/chinese_characters/25391.jpg'
p355
sg266
F86.0
sg267
g268
sg269
I3
sg270
I2
sg271
F1.5
sg259
g276
sg272
I2
sg273
F86.01760005950928
ssI40
(dp356
g8
F0.788754940032959
sg264
S'stimfiles/faces/373.png'
p357
sg266
F90.0
sg267
g296
sg269
I4
sg270
I2
sg271
F1.5
sg259
g276
sg272
I0
sg273
F90.01922607421875
ssI41
(dp358
g8
F0.8840539455413818
sg264
S'stimfiles/faces/325.png'
p359
sg266
F92.0
sg267
g296
sg269
I4
sg270
I2
sg271
F1.5
sg259
g276
sg272
I0
sg273
F92.02009797096252
ssI42
(dp360
g8
F0.8313510417938232
sg264
S'stimfiles/faces/328.png'
p361
sg266
F94.0
sg267
g296
sg269
I4
sg270
I2
sg271
F1.5
sg259
g276
sg272
I0
sg273
F94.02088499069214
ssI43
(dp362
g8
F0.6724848747253418
sg264
S'stimfiles/faces/325.png'
p363
sg266
F96.0
sg267
g296
sg269
I4
sg270
I2
sg271
F1.5
sg259
g285
sg272
I2
sg273
F96.02170205116272
ssI44
(dp364
g8
F0.9537608623504639
sg264
S'stimfiles/faces/811.png'
p365
sg266
F98.0
sg267
g296
sg269
I4
sg270
I2
sg271
F1.5
sg259
g285
sg272
I0
sg273
F98.0225350856781
ssI45
(dp366
g8
F1.4060258865356445
sg264
S'stimfiles/faces/336.png'
p367
sg266
F100.0
sg267
g296
sg269
I4
sg270
I2
sg271
F1.5
sg259
g276
sg272
I0
sg273
F100.02339506149292
ssI46
(dp368
g8
F1.2203140258789062
sg264
S'stimfiles/faces/336.png'
p369
sg266
F102.0
sg267
g296
sg269
I4
sg270
I2
sg271
F1.5
sg259
g276
sg272
I1
sg273
F102.02414393424988
ssI47
(dp370
g8
F1.4182310104370117
sg264
S'stimfiles/faces/811.png'
p371
sg266
F104.0
sg267
g296
sg269
I4
sg270
I2
sg271
F1.5
sg259
g276
sg272
I3
sg273
F104.00839304924011
ssI48
(dp372
g8
F1.2537429332733154
sg264
S'stimfiles/faces/749.png'
p373
sg266
F106.0
sg267
g296
sg269
I4
sg270
I2
sg271
F1.5
sg259
g276
sg272
I0
sg273
F106.02584600448608
ssI49
(dp374
g8
F1.1536200046539307
sg264
S'stimfiles/faces/436.png'
p375
sg266
F108.0
sg267
g296
sg269
I4
sg270
I2
sg271
F1.5
sg259
g285
sg272
I0
sg273
F108.00994205474854
ssI50
(dp376
g8
F0.822166919708252
sg264
S'stimfiles/scenes/448.jpg'
p377
sg266
F112.0
sg267
g317
sg269
I5
sg270
I2
sg271
F1.5
sg259
g276
sg272
I0
sg273
F112.01156497001648
ssI51
(dp378
g8
F0.9102730751037598
sg264
S'stimfiles/scenes/531.jpg'
p379
sg266
F114.0
sg267
g317
sg269
I5
sg270
I2
sg271
F1.5
sg259
g276
sg272
I0
sg273
F114.01247096061707
ssI52
(dp380
g8
F0.9653980731964111
sg264
S'stimfiles/scenes/1118.jpg'
p381
sg266
F116.0
sg267
g317
sg269
I5
sg270
I2
sg271
F1.5
sg259
g276
sg272
I0
sg273
F116.01319694519043
ssI53
(dp382
g8
F1.1169970035552979
sg264
S'stimfiles/scenes/448.jpg'
p383
sg266
F118.0
sg267
g317
sg269
I5
sg270
I2
sg271
F1.5
sg259
g276
sg272
I3
sg273
F118.0140290260315
ssI54
(dp384
g8
F1.1599340438842773
sg264
S'stimfiles/scenes/205.jpg'
p385
sg266
F120.0
sg267
g317
sg269
I5
sg270
I2
sg271
F1.5
sg259
g276
sg272
I0
sg273
F120.01488900184631
ssI55
(dp386
g8
F1.0773038864135742
sg264
S'stimfiles/scenes/205.jpg'
p387
sg266
F122.0
sg267
g317
sg269
I5
sg270
I2
sg271
F1.5
sg259
g276
sg272
I1
sg273
F122.01573300361633
ssI56
(dp388
g8
F0.8364357948303223
sg264
S'stimfiles/scenes/205.jpg'
p389
sg266
F124.0
sg267
g317
sg269
I5
sg270
I2
sg271
F1.5
sg259
g285
sg272
I1
sg273
F124.01661109924316
ssI57
(dp390
g8
F0.9646918773651123
sg264
S'stimfiles/scenes/1231.jpg'
p391
sg266
F126.0
sg267
g317
sg269
I5
sg270
I2
sg271
F1.5
sg259
g276
sg272
I0
sg273
F126.0174150466919
ssI58
(dp392
g8
F0.970952033996582
sg264
S'stimfiles/scenes/1404.jpg'
p393
sg266
F128.0
sg267
g317
sg269
I5
sg270
I2
sg271
F1.5
sg259
g276
sg272
I0
sg273
F128.01821494102478
ssI59
(dp394
g8
F1.1271660327911377
sg264
S'stimfiles/scenes/88.jpg'
p395
sg266
F130.0
sg267
g317
sg269
I5
sg270
I2
sg271
F1.5
sg259
g276
sg272
I0
sg273
F130.01910305023193
ssI60
(dp396
g8
F0.653033971786499
sg264
S'stimfiles/chinese_characters/25860.jpg'
p397
sg266
F154.0
sg267
g268
sg269
I6
sg270
I1
sg271
F1.5
sg259
g276
sg272
I0
sg273
F154.0288679599762
ssI61
(dp398
g8
F0.6080431938171387
sg264
S'stimfiles/chinese_characters/25773.jpg'
p399
sg266
F156.0
sg267
g268
sg269
I6
sg270
I1
sg271
F1.5
sg259
g276
sg272
I0
sg273
F156.01297092437744
ssI62
(dp400
g8
F0.7024290561676025
sg264
S'stimfiles/chinese_characters/26387.jpg'
p401
sg266
F158.0
sg267
g268
sg269
I6
sg270
I1
sg271
F1.5
sg259
g276
sg272
I0
sg273
F158.01386094093323
ssI63
(dp402
g8
F0.8145039081573486
sg264
S'stimfiles/chinese_characters/25797.jpg'
p403
sg266
F160.0
sg267
g268
sg269
I6
sg270
I1
sg271
F1.5
sg259
g276
sg272
I0
sg273
F160.0146450996399
ssI64
(dp404
g8
F0.4986882209777832
sg264
S'stimfiles/chinese_characters/25797.jpg'
p405
sg266
F162.0
sg267
g268
sg269
I6
sg270
I1
sg271
F1.5
sg259
g285
sg272
I1
sg273
F162.0154469013214
ssI65
(dp406
g8
F0.7208528518676758
sg264
S'stimfiles/chinese_characters/25457.jpg'
p407
sg266
F164.0
sg267
g268
sg269
I6
sg270
I1
sg271
F1.5
sg259
g276
sg272
I0
sg273
F164.016282081604
ssI66
(dp408
g8
F0.68221116065979
sg264
S'stimfiles/chinese_characters/25457.jpg'
p409
sg266
F166.0
sg267
g268
sg269
I6
sg270
I1
sg271
F1.5
sg259
g285
sg272
I1
sg273
F166.01709294319153
ssI67
(dp410
g8
F0.6472868919372559
sg264
S'stimfiles/chinese_characters/25549.jpg'
p411
sg266
F168.0
sg267
g268
sg269
I6
sg270
I1
sg271
F1.5
sg259
g276
sg272
I0
sg273
F168.01797604560852
ssI68
(dp412
g8
F0.6076459884643555
sg264
S'stimfiles/chinese_characters/25457.jpg'
p413
sg266
F170.0
sg267
g268
sg269
I6
sg270
I1
sg271
F1.5
sg259
g276
sg272
I3
sg273
F170.0187110900879
ssI69
(dp414
g8
F0.6329309940338135
sg264
S'stimfiles/chinese_characters/25457.jpg'
p415
sg266
F172.0
sg267
g268
sg269
I6
sg270
I1
sg271
F1.5
sg259
g285
sg272
I1
sg273
F172.01953291893005
ssI70
(dp416
g8
F0.7202868461608887
sg264
S'stimfiles/faces/352.png'
p417
sg266
F176.0
sg267
g296
sg269
I7
sg270
I1
sg271
F1.5
sg259
g276
sg272
I0
sg273
F176.02123308181763
ssI71
(dp418
g8
F0.6915891170501709
sg264
S'stimfiles/faces/352.png'
p419
sg266
F178.0
sg267
g296
sg269
I7
sg270
I1
sg271
F1.5
sg259
g285
sg272
I1
sg273
F178.0220239162445
ssI72
(dp420
g8
F0.7928030490875244
sg264
S'stimfiles/faces/388.png'
p421
sg266
F180.0
sg267
g296
sg269
I7
sg270
I1
sg271
F1.5
sg259
g276
sg272
I0
sg273
F180.02287101745605
ssI73
(dp422
g8
F0.7780601978302002
sg264
S'stimfiles/faces/752.png'
p423
sg266
F182.0
sg267
g296
sg269
I7
sg270
I1
sg271
F1.5
sg259
g276
sg272
I0
sg273
F182.02366590499878
ssI74
(dp424
g8
F0.9461808204650879
sg264
S'stimfiles/faces/356.png'
p425
sg266
F184.0
sg267
g296
sg269
I7
sg270
I1
sg271
F1.5
sg259
g276
sg272
I0
sg273
F184.02453708648682
ssI75
(dp426
g8
F0.8584620952606201
sg264
S'stimfiles/faces/372.png'
p427
sg266
F186.0
sg267
g296
sg269
I7
sg270
I1
sg271
F1.5
sg259
g276
sg272
I0
sg273
F186.02535390853882
ssI76
(dp428
g8
F0.8408751487731934
sg264
S'stimfiles/faces/752.png'
p429
sg266
F188.0
sg267
g296
sg269
I7
sg270
I1
sg271
F1.5
sg259
g276
sg272
I3
sg273
F188.0261299610138
ssI77
(dp430
g8
F0.5926828384399414
sg264
S'stimfiles/faces/752.png'
p431
sg266
F190.0
sg267
g296
sg269
I7
sg270
I1
sg271
F1.5
sg259
g285
sg272
I1
sg273
F190.01026010513306
ssI78
(dp432
g8
F0.9598522186279297
sg264
S'stimfiles/faces/752.png'
p433
sg266
F192.0
sg267
g296
sg269
I7
sg270
I1
sg271
F1.5
sg259
g285
sg272
I1
sg273
F192.01106190681458
ssI79
(dp434
g8
F0.6801450252532959
sg264
S'stimfiles/faces/374.png'
p435
sg266
F194.0
sg267
g296
sg269
I7
sg270
I1
sg271
F1.5
sg259
g276
sg272
I0
sg273
F194.01195693016052
ssI80
(dp436
g8
F0.8055729866027832
sg264
S'stimfiles/scenes/1106.jpg'
p437
sg266
F198.0
sg267
g317
sg269
I8
sg270
I1
sg271
F1.5
sg259
g276
sg272
I0
sg273
F198.01360297203064
ssI81
(dp438
g8
F0.6767969131469727
sg264
S'stimfiles/scenes/301.jpg'
p439
sg266
F200.0
sg267
g317
sg269
I8
sg270
I1
sg271
F1.5
sg259
g276
sg272
I0
sg273
F200.01441502571106
ssI82
(dp440
g8
F0.7730870246887207
sg264
S'stimfiles/scenes/716.jpg'
p441
sg266
F202.0
sg267
g317
sg269
I8
sg270
I1
sg271
F1.5
sg259
g276
sg272
I0
sg273
F202.01522302627563
ssI83
(dp442
g8
F0.5941319465637207
sg264
S'stimfiles/scenes/716.jpg'
p443
sg266
F204.0
sg267
g317
sg269
I8
sg270
I1
sg271
F1.5
sg259
g285
sg272
I1
sg273
F204.01610398292542
ssI84
(dp444
g8
F0.7414510250091553
sg264
S'stimfiles/scenes/716.jpg'
p445
sg266
F206.0
sg267
g317
sg269
I8
sg270
I1
sg271
F1.5
sg259
g285
sg272
I1
sg273
F206.0168969631195
ssI85
(dp446
g8
F0.7610130310058594
sg264
S'stimfiles/scenes/716.jpg'
p447
sg266
F208.0
sg267
g317
sg269
I8
sg270
I1
sg271
F1.5
sg259
g285
sg272
I3
sg273
F208.01771903038025
ssI86
(dp448
g8
F0.8169050216674805
sg264
S'stimfiles/scenes/716.jpg'
p449
sg266
F210.0
sg267
g317
sg269
I8
sg270
I1
sg271
F1.5
sg259
g285
sg272
I2
sg273
F210.01855397224426
ssI87
(dp450
g8
F0.5851168632507324
sg264
S'stimfiles/scenes/1818.jpg'
p451
sg266
F212.0
sg267
g317
sg269
I8
sg270
I1
sg271
F1.5
sg259
g276
sg272
I0
sg273
F212.01944208145142
ssI88
(dp452
g8
F0.952455997467041
sg264
S'stimfiles/scenes/716.jpg'
p453
sg266
F214.0
sg267
g317
sg269
I8
sg270
I1
sg271
F1.5
sg259
g276
sg272
I2
sg273
F214.0201849937439
ssI89
(dp454
g8
F0.8770079612731934
sg264
S'stimfiles/scenes/990.jpg'
p455
sg266
F216.0
sg267
g317
sg269
I8
sg270
I1
sg271
F1.5
sg259
g276
sg272
I0
sg273
F216.0209310054779
ssI90
(dp456
g8
F0.8161590099334717
sg264
S'stimfiles/chinese_characters/26152.jpg'
p457
sg266
F220.0
sg267
g268
sg269
I9
sg270
I2
sg271
F1.5
sg259
g276
sg272
I0
sg273
F220.02262496948242
ssI91
(dp458
g8
F1.0494539737701416
sg264
S'stimfiles/chinese_characters/25046.jpg'
p459
sg266
F222.0
sg267
g268
sg269
I9
sg270
I2
sg271
F1.5
sg259
g276
sg272
I0
sg273
F222.023432970047
ssI92
(dp460
g8
F1.1937298774719238
sg264
S'stimfiles/chinese_characters/25046.jpg'
p461
sg266
F224.0
sg267
g268
sg269
I9
sg270
I2
sg271
F1.5
sg259
g276
sg272
I1
sg273
F224.02419805526733
ssI93
(dp462
g8
F0.7168209552764893
sg264
S'stimfiles/chinese_characters/25046.jpg'
p463
sg266
F226.0
sg267
g268
sg269
I9
sg270
I2
sg271
F1.5
sg259
g285
sg272
I1
sg273
F226.02515196800232
ssI94
(dp464
g8
F1.088135004043579
sg264
S'stimfiles/chinese_characters/25046.jpg'
p465
sg266
F228.0
sg267
g268
sg269
I9
sg270
I2
sg271
F1.5
sg259
g285
sg272
I1
sg273
F228.02590107917786
ssI95
(dp466
g8
F0.8409261703491211
sg264
S'stimfiles/chinese_characters/25046.jpg'
p467
sg266
F230.0
sg267
g268
sg269
I9
sg270
I2
sg271
F1.5
sg259
g285
sg272
I3
sg273
F230.01009893417358
ssI96
(dp468
g8
F0.8202340602874756
sg264
S'stimfiles/chinese_characters/24591.jpg'
p469
sg266
F232.0
sg267
g268
sg269
I9
sg270
I2
sg271
F1.5
sg259
g276
sg272
I0
sg273
F232.0109269618988
ssI97
(dp470
g8
F0.8845341205596924
sg264
S'stimfiles/chinese_characters/25046.jpg'
p471
sg266
F234.0
sg267
g268
sg269
I9
sg270
I2
sg271
F1.5
sg259
g276
sg272
I3
sg273
F234.01164889335632
ssI98
(dp472
g8
F1.1207540035247803
sg264
S'stimfiles/chinese_characters/24591.jpg'
p473
sg266
F236.0
sg267
g268
sg269
I9
sg270
I2
sg271
F1.5
sg259
g276
sg272
I2
sg273
F236.0125560760498
ssI99
(dp474
g8
F1.1988639831542969
sg264
S'stimfiles/chinese_characters/25046.jpg'
p475
sg266
F238.0
sg267
g268
sg269
I9
sg270
I2
sg271
F1.5
sg259
g276
sg272
I2
sg273
F238.01335501670837
ssI100
(dp476
g8
F0.8394279479980469
sg264
S'stimfiles/faces/397.png'
p477
sg266
F242.0
sg267
g296
sg269
I10
sg270
I2
sg271
F1.5
sg259
g276
sg272
I0
sg273
F242.01500010490417
ssI101
(dp478
g8
F0.7716629505157471
sg264
S'stimfiles/faces/76.png'
p479
sg266
F244.0
sg267
g296
sg269
I10
sg270
I2
sg271
F1.5
sg259
g276
sg272
I0
sg273
F244.01581501960754
ssI102
(dp480
g8
F0.7279140949249268
sg264
S'stimfiles/faces/397.png'
p481
sg266
F246.0
sg267
g296
sg269
I10
sg270
I2
sg271
F1.5
sg259
g285
sg272
I2
sg273
F246.01664900779724
ssI103
(dp482
g8
F0.870330810546875
sg264
S'stimfiles/faces/35.png'
p483
sg266
F248.0
sg267
g296
sg269
I10
sg270
I2
sg271
F1.5
sg259
g276
sg272
I0
sg273
F248.01741909980774
ssI104
(dp484
g8
F0.8362479209899902
sg264
S'stimfiles/faces/150.png'
p485
sg266
F250.0
sg267
g296
sg269
I10
sg270
I2
sg271
F1.5
sg259
g276
sg272
I0
sg273
F250.01836109161377
ssI105
(dp486
g8
F0.7576570510864258
sg264
S'stimfiles/faces/839.png'
p487
sg266
F252.0
sg267
g296
sg269
I10
sg270
I2
sg271
F1.5
sg259
g276
sg272
I0
sg273
F252.01909494400024
ssI106
(dp488
g8
F0.9678208827972412
sg264
S'stimfiles/faces/428.png'
p489
sg266
F254.0
sg267
g296
sg269
I10
sg270
I2
sg271
F1.5
sg259
g285
sg272
I0
sg273
F254.01995205879211
ssI107
(dp490
g8
F1.1110990047454834
sg264
S'stimfiles/faces/150.png'
p491
sg266
F256.0
sg267
g296
sg269
I10
sg270
I2
sg271
F1.5
sg259
g276
sg272
I3
sg273
F256.0207710266113
ssI108
(dp492
g8
F1.076340913772583
sg264
S'stimfiles/faces/428.png'
p493
sg266
F258.0
sg267
g296
sg269
I10
sg270
I2
sg271
F1.5
sg259
g285
sg272
I2
sg273
F258.0215480327606
ssI109
(dp494
g8
F1.2955620288848877
sg264
S'stimfiles/faces/150.png'
p495
sg266
F260.0
sg267
g296
sg269
I10
sg270
I2
sg271
F1.5
sg259
g276
sg272
I2
sg273
F260.0223879814148
ssI110
(dp496
g8
F0.712738037109375
sg264
S'stimfiles/scenes/3008.jpg'
p497
sg266
F264.0
sg267
g317
sg269
I11
sg270
I2
sg271
F1.5
sg259
g276
sg272
I0
sg273
F264.00729608535767
ssI111
(dp498
g8
F0.7258799076080322
sg264
S'stimfiles/scenes/462.jpg'
p499
sg266
F266.0
sg267
g317
sg269
I11
sg270
I2
sg271
F1.5
sg259
g276
sg272
I0
sg273
F266.00817704200745
ssI112
(dp500
g8
F0.5072500705718994
sg264
S'stimfiles/scenes/493.jpg'
p501
sg266
F268.0
sg267
g317
sg269
I11
sg270
I2
sg271
F1.5
sg259
g276
sg272
I0
sg273
F268.00899291038513
ssI113
(dp502
g8
F1.0344860553741455
sg264
S'stimfiles/scenes/462.jpg'
p503
sg266
F270.0
sg267
g317
sg269
I11
sg270
I2
sg271
F1.5
sg259
g276
sg272
I2
sg273
F270.0097599029541
ssI114
(dp504
g8
F0.9324450492858887
sg264
S'stimfiles/scenes/868.jpg'
p505
sg266
F272.0
sg267
g317
sg269
I11
sg270
I2
sg271
F1.5
sg259
g276
sg272
I0
sg273
F272.01062202453613
ssI115
(dp506
g8
F1.054914951324463
sg264
S'stimfiles/scenes/462.jpg'
p507
sg266
F274.0
sg267
g317
sg269
I11
sg270
I2
sg271
F1.5
sg259
g285
sg272
I2
sg273
F274.0114619731903
ssI116
(dp508
g8
F0.7021510601043701
sg264
S'stimfiles/scenes/868.jpg'
p509
sg266
F276.0
sg267
g317
sg269
I11
sg270
I2
sg271
F1.5
sg259
g276
sg272
I2
sg273
F276.01223397254944
ssI117
(dp510
g8
F1.050567865371704
sg264
S'stimfiles/scenes/462.jpg'
p511
sg266
F278.0
sg267
g317
sg269
I11
sg270
I2
sg271
F1.5
sg259
g276
sg272
I2
sg273
F278.01306104660034
ssI118
(dp512
g8
F1.3557448387145996
sg264
S'stimfiles/scenes/656.jpg'
p513
sg266
F280.0
sg267
g317
sg269
I11
sg270
I2
sg271
F1.5
sg259
g276
sg272
I0
sg273
F280.01388812065125
ssI119
(dp514
g8
F1.1148560047149658
sg264
S'stimfiles/scenes/462.jpg'
p515
sg266
F282.0
sg267
g317
sg269
I11
sg270
I2
sg271
F1.5
sg259
g285
sg272
I2
sg273
F282.0147590637207
ssI120
(dp516
g8
F0.7826240062713623
sg264
S'stimfiles/chinese_characters/26212.jpg'
p517
sg266
F306.0
sg267
g268
sg269
I12
sg270
I1
sg271
F1.5
sg259
g276
sg272
I0
sg273
F306.02462911605835
ssI121
(dp518
g8
F0.6288859844207764
sg264
S'stimfiles/chinese_characters/35578.jpg'
p519
sg266
F308.0
sg267
g268
sg269
I12
sg270
I1
sg271
F1.5
sg259
g276
sg272
I0
sg273
F308.0254170894623
ssI122
(dp520
g8
F0.5681378841400146
sg264
S'stimfiles/chinese_characters/35578.jpg'
p521
sg266
F310.0
sg267
g268
sg269
I12
sg270
I1
sg271
F1.5
sg259
g285
sg272
I1
sg273
F310.0261940956116
ssI123
(dp522
g8
F0.5273468494415283
sg264
S'stimfiles/chinese_characters/35578.jpg'
p523
sg266
F312.0
sg267
g268
sg269
I12
sg270
I1
sg271
F1.5
sg259
g285
sg272
I1
sg273
F312.0270640850067
ssI124
(dp524
g8
F0.7312650680541992
sg264
S'stimfiles/chinese_characters/26568.jpg'
p525
sg266
F314.0
sg267
g268
sg269
I12
sg270
I1
sg271
F1.5
sg259
g276
sg272
I0
sg273
F314.01122999191284
ssI125
(dp526
g8
F1.204576015472412
sg264
S'stimfiles/chinese_characters/35578.jpg'
p527
sg266
F316.0
sg267
g268
sg269
I12
sg270
I1
sg271
F1.5
sg259
g276
sg272
I2
sg273
F316.0119879245758
ssI126
(dp528
g8
F1.0227329730987549
sg264
S'stimfiles/chinese_characters/26568.jpg'
p529
sg266
F318.0
sg267
g268
sg269
I12
sg270
I1
sg271
F1.5
sg259
g276
sg272
I2
sg273
F318.0128939151764
ssI127
(dp530
g8
F0.7329990863800049
sg264
S'stimfiles/chinese_characters/29282.jpg'
p531
sg266
F320.0
sg267
g268
sg269
I12
sg270
I1
sg271
F1.5
sg259
g276
sg272
I0
sg273
F320.01365399360657
ssI128
(dp532
g8
F0.7161440849304199
sg264
S'stimfiles/chinese_characters/35578.jpg'
p533
sg266
F322.0
sg267
g268
sg269
I12
sg270
I1
sg271
F1.5
sg259
g276
sg272
I3
sg273
F322.0145540237427
ssI129
(dp534
g8
F0.7704000473022461
sg264
S'stimfiles/chinese_characters/31639.jpg'
p535
sg266
F324.0
sg267
g268
sg269
I12
sg270
I1
sg271
F1.5
sg259
g276
sg272
I0
sg273
F324.0153429508209
ssI130
(dp536
g8
F0.639930009841919
sg264
S'stimfiles/faces/364.png'
p537
sg266
F328.0
sg267
g296
sg269
I13
sg270
I1
sg271
F1.5
sg259
g276
sg272
I0
sg273
F328.0169720649719
ssI131
(dp538
g8
F0.5502490997314453
sg264
S'stimfiles/faces/427.png'
p539
sg266
F330.0
sg267
g296
sg269
I13
sg270
I1
sg271
F1.5
sg259
g276
sg272
I0
sg273
F330.01779198646545
ssI132
(dp540
g8
F0.6364738941192627
sg264
S'stimfiles/faces/364.png'
p541
sg266
F332.0
sg267
g296
sg269
I13
sg270
I1
sg271
F1.5
sg259
g276
sg272
I2
sg273
F332.0185561180115
ssI133
(dp542
g8
F0.6815900802612305
sg264
S'stimfiles/faces/753.png'
p543
sg266
F334.0
sg267
g296
sg269
I13
sg270
I1
sg271
F1.5
sg259
g276
sg272
I0
sg273
F334.01947689056396
ssI134
(dp544
g8
F0.6418662071228027
sg264
S'stimfiles/faces/339.png'
p545
sg266
F336.0
sg267
g296
sg269
I13
sg270
I1
sg271
F1.5
sg259
g276
sg272
I0
sg273
F336.02025389671326
ssI135
(dp546
g8
F0.8181488513946533
sg264
S'stimfiles/faces/767.png'
p547
sg266
F338.0
sg267
g296
sg269
I13
sg270
I1
sg271
F1.5
sg259
g276
sg272
I0
sg273
F338.0210840702057
ssI136
(dp548
g8
F0.6203300952911377
sg264
S'stimfiles/faces/753.png'
p549
sg266
F340.0
sg267
g296
sg269
I13
sg270
I1
sg271
F1.5
sg259
g276
sg272
I3
sg273
F340.02192091941833
ssI137
(dp550
g8
F0.679516077041626
sg264
S'stimfiles/faces/409.png'
p551
sg266
F342.0
sg267
g296
sg269
I13
sg270
I1
sg271
F1.5
sg259
g276
sg272
I0
sg273
F342.0227429866791
ssI138
(dp552
g8
F1.008903980255127
sg264
S'stimfiles/faces/409.png'
p553
sg266
F344.0
sg267
g296
sg269
I13
sg270
I1
sg271
F1.5
sg259
g285
sg272
I1
sg273
F344.0234889984131
ssI139
(dp554
g8
F0.8800380229949951
sg264
S'stimfiles/faces/776.png'
p555
sg266
F346.0
sg267
g296
sg269
I13
sg270
I1
sg271
F1.5
sg259
g276
sg272
I0
sg273
F346.0243649482727
ssI140
(dp556
g8
F0.8001840114593506
sg264
S'stimfiles/scenes/330.jpg'
p557
sg266
F350.0
sg267
g317
sg269
I14
sg270
I1
sg271
F1.5
sg259
g276
sg272
I0
sg273
F350.0093410015106
ssI141
(dp558
g8
F0.8485031127929688
sg264
S'stimfiles/scenes/548.jpg'
p559
sg266
F352.0
sg267
g317
sg269
I14
sg270
I1
sg271
F1.5
sg259
g276
sg272
I0
sg273
F352.01007294654846
ssI142
(dp560
g8
F0.8676578998565674
sg264
S'stimfiles/scenes/666.jpg'
p561
sg266
F354.0
sg267
g317
sg269
I14
sg270
I1
sg271
F1.5
sg259
g276
sg272
I0
sg273
F354.01098704338074
ssI143
(dp562
g8
F0.7378900051116943
sg264
S'stimfiles/scenes/546.jpg'
p563
sg266
F356.0
sg267
g317
sg269
I14
sg270
I1
sg271
F1.5
sg259
g276
sg272
I0
sg273
F356.01178002357483
ssI144
(dp564
g8
F0.7401771545410156
sg264
S'stimfiles/scenes/546.jpg'
p565
sg266
F358.0
sg267
g317
sg269
I14
sg270
I1
sg271
F1.5
sg259
g285
sg272
I1
sg273
F358.01256489753723
ssI145
(dp566
g8
F1.2383720874786377
sg264
S'stimfiles/scenes/546.jpg'
p567
sg266
F360.0
sg267
g317
sg269
I14
sg270
I1
sg271
F1.5
sg259
g285
sg272
I1
sg273
F360.01347303390503
ssI146
(dp568
g8
F1.0222489833831787
sg264
S'stimfiles/scenes/1625.jpg'
p569
sg266
F362.0
sg267
g317
sg269
I14
sg270
I1
sg271
F1.5
sg259
g276
sg272
I0
sg273
F362.0143060684204
ssI147
(dp570
g8
F0.6308131217956543
sg264
S'stimfiles/scenes/468.jpg'
p571
sg266
F364.0
sg267
g317
sg269
I14
sg270
I1
sg271
F1.5
sg259
g276
sg272
I0
sg273
F364.015095949173
ssI148
(dp572
g8
F0.7351179122924805
sg264
S'stimfiles/scenes/1625.jpg'
p573
sg266
F366.0
sg267
g317
sg269
I14
sg270
I1
sg271
F1.5
sg259
g276
sg272
I2
sg273
F366.01588702201843
ssI149
(dp574
g8
F0.9793291091918945
sg264
S'stimfiles/scenes/1613.jpg'
p575
sg266
F368.0
sg267
g317
sg269
I14
sg270
I1
sg271
F1.5
sg259
g276
sg272
I0
sg273
F368.0167179107666
ssI150
(dp576
g8
F1.2278409004211426
sg264
S'stimfiles/chinese_characters/26045.jpg'
p577
sg266
F372.0
sg267
g268
sg269
I15
sg270
I2
sg271
F1.5
sg259
g276
sg272
I0
sg273
F372.0183410644531
ssI151
(dp578
g8
F1.379101037979126
sg264
S'stimfiles/chinese_characters/20638.jpg'
p579
sg266
F374.0
sg267
g268
sg269
I15
sg270
I2
sg271
F1.5
sg259
g276
sg272
I0
sg273
F374.01914501190186
ssI152
(dp580
g8
F1.3093879222869873
sg264
S'stimfiles/chinese_characters/35606.jpg'
p581
sg266
F376.0
sg267
g268
sg269
I15
sg270
I2
sg271
F1.5
sg259
g276
sg272
I0
sg273
F376.0199730396271
ssI153
(dp582
g8
F1.077458143234253
sg264
S'stimfiles/chinese_characters/20710.jpg'
p583
sg266
F378.0
sg267
g268
sg269
I15
sg270
I2
sg271
F1.5
sg259
g276
sg272
I0
sg273
F378.02085995674133
ssI154
(dp584
g8
F1.0876879692077637
sg264
S'stimfiles/chinese_characters/30274.jpg'
p585
sg266
F380.0
sg267
g268
sg269
I15
sg270
I2
sg271
F1.5
sg259
g276
sg272
I0
sg273
F380.02168798446655
ssI155
(dp586
g8
F1.0778439044952393
sg264
S'stimfiles/chinese_characters/29820.jpg'
p587
sg266
F382.0
sg267
g268
sg269
I15
sg270
I2
sg271
F1.5
sg259
g276
sg272
I0
sg273
F382.02252101898193
ssI156
(dp588
g8
F0.9282128810882568
sg264
S'stimfiles/chinese_characters/20710.jpg'
p589
sg266
F384.0
sg267
g268
sg269
I15
sg270
I2
sg271
F1.5
sg259
g285
sg272
I3
sg273
F384.02329301834106
ssI157
(dp590
g8
F0.8133518695831299
sg264
S'stimfiles/chinese_characters/37300.jpg'
p591
sg266
F386.0
sg267
g268
sg269
I15
sg270
I2
sg271
F1.5
sg259
g276
sg272
I0
sg273
F386.02418303489685
ssI158
(dp592
g8
F0.9354629516601562
sg264
S'stimfiles/chinese_characters/32033.jpg'
p593
sg266
F388.0
sg267
g268
sg269
I15
sg270
I2
sg271
F1.5
sg259
g276
sg272
I0
sg273
F388.0249810218811
ssI159
(dp594
g8
F0.633903980255127
sg264
S'stimfiles/chinese_characters/37300.jpg'
p595
sg266
F390.0
sg267
g268
sg269
I15
sg270
I2
sg271
F1.5
sg259
g285
sg272
I2
sg273
F390.02572298049927
ssI160
(dp596
g8
F0.7674148082733154
sg264
S'stimfiles/faces/303.png'
p597
sg266
F394.0
sg267
g296
sg269
I16
sg270
I2
sg271
F1.5
sg259
g276
sg272
I0
sg273
F394.02733612060547
ssI161
(dp598
g8
F0.9802470207214355
sg264
S'stimfiles/faces/303.png'
p599
sg266
F396.0
sg267
g296
sg269
I16
sg270
I2
sg271
F1.5
sg259
g276
sg272
I1
sg273
F396.0115849971771
ssI162
(dp600
g264
S'stimfiles/faces/359.png'
p601
sg266
F398.0
sg267
g296
sg269
I16
sg270
I2
sg271
F1.5
sg272
I0
sg273
F398.0123860836029
ssI163
(dp602
g8
F1.2687630653381348
sg264
S'stimfiles/faces/303.png'
p603
sg266
F400.0
sg267
g296
sg269
I16
sg270
I2
sg271
F1.5
sg259
g285
sg272
I2
sg273
F400.01319003105164
ssI164
(dp604
g8
F0.9159860610961914
sg264
S'stimfiles/faces/416.png'
p605
sg266
F402.0
sg267
g296
sg269
I16
sg270
I2
sg271
F1.5
sg259
g276
sg272
I0
sg273
F402.01400804519653
ssI165
(dp606
g8
F0.9852349758148193
sg264
S'stimfiles/faces/324.png'
p607
sg266
F404.0
sg267
g296
sg269
I16
sg270
I2
sg271
F1.5
sg259
g276
sg272
I0
sg273
F404.01482605934143
ssI166
(dp608
g8
F0.9344508647918701
sg264
S'stimfiles/faces/290.png'
p609
sg266
F406.0
sg267
g296
sg269
I16
sg270
I2
sg271
F1.5
sg259
g276
sg272
I0
sg273
F406.01571011543274
ssI167
(dp610
g8
F1.1486930847167969
sg264
S'stimfiles/faces/290.png'
p611
sg266
F408.0
sg267
g296
sg269
I16
sg270
I2
sg271
F1.5
sg259
g276
sg272
I1
sg273
F408.0164968967438
ssI168
(dp612
g8
F1.384937047958374
sg264
S'stimfiles/faces/324.png'
p613
sg266
F410.0
sg267
g296
sg269
I16
sg270
I2
sg271
F1.5
sg259
g276
sg272
I3
sg273
F410.01730489730835
ssI169
(dp614
g8
F0.9012401103973389
sg264
S'stimfiles/faces/290.png'
p615
sg266
F412.0
sg267
g296
sg269
I16
sg270
I2
sg271
F1.5
sg259
g285
sg272
I2
sg273
F412.01805901527405
ssI170
(dp616
g8
F0.6886749267578125
sg264
S'stimfiles/scenes/1428.jpg'
p617
sg266
F416.0
sg267
g317
sg269
I17
sg270
I2
sg271
F1.5
sg259
g276
sg272
I0
sg273
F416.0197160243988
ssI171
(dp618
g8
F1.1318280696868896
sg264
S'stimfiles/scenes/1004.jpg'
p619
sg266
F418.0
sg267
g317
sg269
I17
sg270
I2
sg271
F1.5
sg259
g276
sg272
I0
sg273
F418.02063488960266
ssI172
(dp620
g8
F1.202118158340454
sg264
S'stimfiles/scenes/817.jpg'
p621
sg266
F420.0
sg267
g317
sg269
I17
sg270
I2
sg271
F1.5
sg259
g276
sg272
I0
sg273
F420.0213849544525
ssI173
(dp622
g8
F1.3503830432891846
sg264
S'stimfiles/scenes/1428.jpg'
p623
sg266
F422.0
sg267
g317
sg269
I17
sg270
I2
sg271
F1.5
sg259
g276
sg272
I3
sg273
F422.0222339630127
ssI174
(dp624
g8
F1.3530590534210205
sg264
S'stimfiles/scenes/1004.jpg'
p625
sg266
F424.0
sg267
g317
sg269
I17
sg270
I2
sg271
F1.5
sg259
g276
sg272
I3
sg273
F424.00639390945435
ssI175
(dp626
g8
F1.2075560092926025
sg264
S'stimfiles/scenes/1041.jpg'
p627
sg266
F426.0
sg267
g317
sg269
I17
sg270
I2
sg271
F1.5
sg259
g276
sg272
I0
sg273
F426.007169008255
ssI176
(dp628
g8
F1.0309200286865234
sg264
S'stimfiles/scenes/1004.jpg'
p629
sg266
F428.0
sg267
g317
sg269
I17
sg270
I2
sg271
F1.5
sg259
g285
sg272
I2
sg273
F428.0080349445343
ssI177
(dp630
g8
F0.7989029884338379
sg264
S'stimfiles/scenes/257.jpg'
p631
sg266
F430.0
sg267
g317
sg269
I17
sg270
I2
sg271
F1.5
sg259
g276
sg272
I0
sg273
F430.0088770389557
ssI178
(dp632
g8
F0.9331891536712646
sg264
S'stimfiles/scenes/257.jpg'
p633
sg266
F432.0
sg267
g317
sg269
I17
sg270
I2
sg271
F1.5
sg259
g276
sg272
I1
sg273
F432.0096609592438
ssI179
(dp634
g8
F1.0004022121429443
sg264
S'stimfiles/scenes/1080.jpg'
p635
sg266
F434.0
sg267
g317
sg269
I17
sg270
I2
sg271
F1.5
sg259
g276
sg272
I0
sg273
F434.0104959011078
sssS'stim_log'
p636
(dp637
sS'nstims'
p638
I5
sS'inter_stim_int'
p639
F1.0
sS'SS'
p640
(dp641
sS'inst_time'
p642
F1.0
sS'broke_on_trial'
p643
(dp644
sS'events'
p645
(lp646
(lp647
F0.0
aI0
aI1
aI0
aS'inst'
p648
aa(lp649
F2.0
aI0
aI1
aI0
ag265
aa(lp650
F4.0
aI0
aI1
aI0
ag275
aa(lp651
F6.0
aI0
aI1
aI0
ag278
aa(lp652
F8.0
aI0
aI1
aI0
ag280
aa(lp653
F10.0
aI0
aI1
aI2
ag282
aa(lp654
F12.0
aI0
aI1
aI1
ag284
aa(lp655
F14.0
aI0
aI1
aI0
ag287
aa(lp656
F16.0
aI0
aI1
aI3
ag289
aa(lp657
F18.0
aI0
aI1
aI0
ag291
aa(lp658
F20.0
aI0
aI1
aI0
ag293
aa(lp659
F22.0
aI1
aI1
aI0
aS'inst'
p660
aa(lp661
F24.0
aI1
aI1
aI0
ag295
aa(lp662
F26.0
aI1
aI1
aI0
ag298
aa(lp663
F28.0
aI1
aI1
aI2
ag300
aa(lp664
F30.0
aI1
aI1
aI0
ag302
aa(lp665
F32.0
aI1
aI1
aI0
ag304
aa(lp666
F34.0
aI1
aI1
aI3
ag306
aa(lp667
F36.0
aI1
aI1
aI1
ag308
aa(lp668
F38.0
aI1
aI1
aI0
ag310
aa(lp669
F40.0
aI1
aI1
aI2
ag312
aa(lp670
F42.0
aI1
aI1
aI1
ag314
aa(lp671
F44.0
aI2
aI1
aI0
aS'inst'
p672
aa(lp673
F46.0
aI2
aI1
aI0
ag316
aa(lp674
F48.0
aI2
aI1
aI0
ag319
aa(lp675
F50.0
aI2
aI1
aI1
ag321
aa(lp676
F52.0
aI2
aI1
aI1
ag323
aa(lp677
F54.0
aI2
aI1
aI3
ag325
aa(lp678
F56.0
aI2
aI1
aI0
ag327
aa(lp679
F58.0
aI2
aI1
aI3
ag329
aa(lp680
F60.0
aI2
aI1
aI0
ag331
aa(lp681
F62.0
aI2
aI1
aI0
ag333
aa(lp682
F64.0
aI2
aI1
aI0
ag335
aa(lp683
F66.0
aI3
aI2
aI0
aS'inst'
p684
aa(lp685
F68.0
aI3
aI2
aI0
ag337
aa(lp686
F70.0
aI3
aI2
aI0
ag339
aa(lp687
F72.0
aI3
aI2
aI0
ag341
aa(lp688
F74.0
aI3
aI2
aI0
ag343
aa(lp689
F76.0
aI3
aI2
aI0
ag345
aa(lp690
F78.0
aI3
aI2
aI0
ag347
aa(lp691
F80.0
aI3
aI2
aI0
ag349
aa(lp692
F82.0
aI3
aI2
aI2
ag351
aa(lp693
F84.0
aI3
aI2
aI2
ag353
aa(lp694
F86.0
aI3
aI2
aI2
ag355
aa(lp695
F88.0
aI4
aI2
aI0
aS'inst'
p696
aa(lp697
F90.0
aI4
aI2
aI0
ag357
aa(lp698
F92.0
aI4
aI2
aI0
ag359
aa(lp699
F94.0
aI4
aI2
aI0
ag361
aa(lp700
F96.0
aI4
aI2
aI2
ag363
aa(lp701
F98.0
aI4
aI2
aI0
ag365
aa(lp702
F100.0
aI4
aI2
aI0
ag367
aa(lp703
F102.0
aI4
aI2
aI1
ag369
aa(lp704
F104.0
aI4
aI2
aI3
ag371
aa(lp705
F106.0
aI4
aI2
aI0
ag373
aa(lp706
F108.0
aI4
aI2
aI0
ag375
aa(lp707
F110.0
aI5
aI2
aI0
aS'inst'
p708
aa(lp709
F112.0
aI5
aI2
aI0
ag377
aa(lp710
F114.0
aI5
aI2
aI0
ag379
aa(lp711
F116.0
aI5
aI2
aI0
ag381
aa(lp712
F118.0
aI5
aI2
aI3
ag383
aa(lp713
F120.0
aI5
aI2
aI0
ag385
aa(lp714
F122.0
aI5
aI2
aI1
ag387
aa(lp715
F124.0
aI5
aI2
aI1
ag389
aa(lp716
F126.0
aI5
aI2
aI0
ag391
aa(lp717
F128.0
aI5
aI2
aI0
ag393
aa(lp718
F130.0
aI5
aI2
aI0
ag395
aa(lp719
F152.0
aI0
aI1
aI0
aS'inst'
p720
aa(lp721
F154.0
aI6
aI1
aI0
ag397
aa(lp722
F156.0
aI6
aI1
aI0
ag399
aa(lp723
F158.0
aI6
aI1
aI0
ag401
aa(lp724
F160.0
aI6
aI1
aI0
ag403
aa(lp725
F162.0
aI6
aI1
aI1
ag405
aa(lp726
F164.0
aI6
aI1
aI0
ag407
aa(lp727
F166.0
aI6
aI1
aI1
ag409
aa(lp728
F168.0
aI6
aI1
aI0
ag411
aa(lp729
F170.0
aI6
aI1
aI3
ag413
aa(lp730
F172.0
aI6
aI1
aI1
ag415
aa(lp731
F174.0
aI1
aI1
aI0
aS'inst'
p732
aa(lp733
F176.0
aI7
aI1
aI0
ag417
aa(lp734
F178.0
aI7
aI1
aI1
ag419
aa(lp735
F180.0
aI7
aI1
aI0
ag421
aa(lp736
F182.0
aI7
aI1
aI0
ag423
aa(lp737
F184.0
aI7
aI1
aI0
ag425
aa(lp738
F186.0
aI7
aI1
aI0
ag427
aa(lp739
F188.0
aI7
aI1
aI3
ag429
aa(lp740
F190.0
aI7
aI1
aI1
ag431
aa(lp741
F192.0
aI7
aI1
aI1
ag433
aa(lp742
F194.0
aI7
aI1
aI0
ag435
aa(lp743
F196.0
aI2
aI1
aI0
aS'inst'
p744
aa(lp745
F198.0
aI8
aI1
aI0
ag437
aa(lp746
F200.0
aI8
aI1
aI0
ag439
aa(lp747
F202.0
aI8
aI1
aI0
ag441
aa(lp748
F204.0
aI8
aI1
aI1
ag443
aa(lp749
F206.0
aI8
aI1
aI1
ag445
aa(lp750
F208.0
aI8
aI1
aI3
ag447
aa(lp751
F210.0
aI8
aI1
aI2
ag449
aa(lp752
F212.0
aI8
aI1
aI0
ag451
aa(lp753
F214.0
aI8
aI1
aI2
ag453
aa(lp754
F216.0
aI8
aI1
aI0
ag455
aa(lp755
F218.0
aI3
aI2
aI0
aS'inst'
p756
aa(lp757
F220.0
aI9
aI2
aI0
ag457
aa(lp758
F222.0
aI9
aI2
aI0
ag459
aa(lp759
F224.0
aI9
aI2
aI1
ag461
aa(lp760
F226.0
aI9
aI2
aI1
ag463
aa(lp761
F228.0
aI9
aI2
aI1
ag465
aa(lp762
F230.0
aI9
aI2
aI3
ag467
aa(lp763
F232.0
aI9
aI2
aI0
ag469
aa(lp764
F234.0
aI9
aI2
aI3
ag471
aa(lp765
F236.0
aI9
aI2
aI2
ag473
aa(lp766
F238.0
aI9
aI2
aI2
ag475
aa(lp767
F240.0
aI4
aI2
aI0
aS'inst'
p768
aa(lp769
F242.0
aI10
aI2
aI0
ag477
aa(lp770
F244.0
aI10
aI2
aI0
ag479
aa(lp771
F246.0
aI10
aI2
aI2
ag481
aa(lp772
F248.0
aI10
aI2
aI0
ag483
aa(lp773
F250.0
aI10
aI2
aI0
ag485
aa(lp774
F252.0
aI10
aI2
aI0
ag487
aa(lp775
F254.0
aI10
aI2
aI0
ag489
aa(lp776
F256.0
aI10
aI2
aI3
ag491
aa(lp777
F258.0
aI10
aI2
aI2
ag493
aa(lp778
F260.0
aI10
aI2
aI2
ag495
aa(lp779
F262.0
aI5
aI2
aI0
aS'inst'
p780
aa(lp781
F264.0
aI11
aI2
aI0
ag497
aa(lp782
F266.0
aI11
aI2
aI0
ag499
aa(lp783
F268.0
aI11
aI2
aI0
ag501
aa(lp784
F270.0
aI11
aI2
aI2
ag503
aa(lp785
F272.0
aI11
aI2
aI0
ag505
aa(lp786
F274.0
aI11
aI2
aI2
ag507
aa(lp787
F276.0
aI11
aI2
aI2
ag509
aa(lp788
F278.0
aI11
aI2
aI2
ag511
aa(lp789
F280.0
aI11
aI2
aI0
ag513
aa(lp790
F282.0
aI11
aI2
aI2
ag515
aa(lp791
F304.0
aI0
aI1
aI0
aS'inst'
p792
aa(lp793
F306.0
aI12
aI1
aI0
ag517
aa(lp794
F308.0
aI12
aI1
aI0
ag519
aa(lp795
F310.0
aI12
aI1
aI1
ag521
aa(lp796
F312.0
aI12
aI1
aI1
ag523
aa(lp797
F314.0
aI12
aI1
aI0
ag525
aa(lp798
F316.0
aI12
aI1
aI2
ag527
aa(lp799
F318.0
aI12
aI1
aI2
ag529
aa(lp800
F320.0
aI12
aI1
aI0
ag531
aa(lp801
F322.0
aI12
aI1
aI3
ag533
aa(lp802
F324.0
aI12
aI1
aI0
ag535
aa(lp803
F326.0
aI1
aI1
aI0
aS'inst'
p804
aa(lp805
F328.0
aI13
aI1
aI0
ag537
aa(lp806
F330.0
aI13
aI1
aI0
ag539
aa(lp807
F332.0
aI13
aI1
aI2
ag541
aa(lp808
F334.0
aI13
aI1
aI0
ag543
aa(lp809
F336.0
aI13
aI1
aI0
ag545
aa(lp810
F338.0
aI13
aI1
aI0
ag547
aa(lp811
F340.0
aI13
aI1
aI3
ag549
aa(lp812
F342.0
aI13
aI1
aI0
ag551
aa(lp813
F344.0
aI13
aI1
aI1
ag553
aa(lp814
F346.0
aI13
aI1
aI0
ag555
aa(lp815
F348.0
aI2
aI1
aI0
aS'inst'
p816
aa(lp817
F350.0
aI14
aI1
aI0
ag557
aa(lp818
F352.0
aI14
aI1
aI0
ag559
aa(lp819
F354.0
aI14
aI1
aI0
ag561
aa(lp820
F356.0
aI14
aI1
aI0
ag563
aa(lp821
F358.0
aI14
aI1
aI1
ag565
aa(lp822
F360.0
aI14
aI1
aI1
ag567
aa(lp823
F362.0
aI14
aI1
aI0
ag569
aa(lp824
F364.0
aI14
aI1
aI0
ag571
aa(lp825
F366.0
aI14
aI1
aI2
ag573
aa(lp826
F368.0
aI14
aI1
aI0
ag575
aa(lp827
F370.0
aI3
aI2
aI0
aS'inst'
p828
aa(lp829
F372.0
aI15
aI2
aI0
ag577
aa(lp830
F374.0
aI15
aI2
aI0
ag579
aa(lp831
F376.0
aI15
aI2
aI0
ag581
aa(lp832
F378.0
aI15
aI2
aI0
ag583
aa(lp833
F380.0
aI15
aI2
aI0
ag585
aa(lp834
F382.0
aI15
aI2
aI0
ag587
aa(lp835
F384.0
aI15
aI2
aI3
ag589
aa(lp836
F386.0
aI15
aI2
aI0
ag591
aa(lp837
F388.0
aI15
aI2
aI0
ag593
aa(lp838
F390.0
aI15
aI2
aI2
ag595
aa(lp839
F392.0
aI4
aI2
aI0
aS'inst'
p840
aa(lp841
F394.0
aI16
aI2
aI0
ag597
aa(lp842
F396.0
aI16
aI2
aI1
ag599
aa(lp843
F398.0
aI16
aI2
aI0
ag601
aa(lp844
F400.0
aI16
aI2
aI2
ag603
aa(lp845
F402.0
aI16
aI2
aI0
ag605
aa(lp846
F404.0
aI16
aI2
aI0
ag607
aa(lp847
F406.0
aI16
aI2
aI0
ag609
aa(lp848
F408.0
aI16
aI2
aI1
ag611
aa(lp849
F410.0
aI16
aI2
aI3
ag613
aa(lp850
F412.0
aI16
aI2
aI2
ag615
aa(lp851
F414.0
aI5
aI2
aI0
aS'inst'
p852
aa(lp853
F416.0
aI17
aI2
aI0
ag617
aa(lp854
F418.0
aI17
aI2
aI0
ag619
aa(lp855
F420.0
aI17
aI2
aI0
ag621
aa(lp856
F422.0
aI17
aI2
aI3
ag623
aa(lp857
F424.0
aI17
aI2
aI3
ag625
aa(lp858
F426.0
aI17
aI2
aI0
ag627
aa(lp859
F428.0
aI17
aI2
aI2
ag629
aa(lp860
F430.0
aI17
aI2
aI0
ag631
aa(lp861
F432.0
aI17
aI2
aI1
ag633
aa(lp862
F434.0
aI17
aI2
aI0
ag635
aasS'is_this_SS_trial'
p863
(dp864
sS'subcode'
p865
S'self-tracking_0017'
p866
sS'start_key'
p867
S'5'
p868
s.