(dp0
S'stim_onset_time'
p1
(dp2
sS'datestamp'
p3
S'2012-12-06-07_41_50'
p4
sS'ntrials_per_block'
p5
I6
sS'expt_title'
p6
S'Self_Tracking'
p7
sS'rt'
p8
(dp9
sS'simulated_response'
p10
I00
sS'script'
p11
(lp12
S'#!/usr/bin/env python\n'
p13
aS'\n'
p14
aS'import psychopy\n'
p15
aS'from psychopy import visual, core, event, logging, data, misc, sound\n'
p16
aS'import numpy as N\n'
p17
aS'import pickle,csv\n'
p18
aS'import datetime\n'
p19
aS'import sys\n'
p20
aS'import os, socket, random\n'
p21
aS'import inspect\n'
p22
aS'import hashlib\n'
p23
aS'from socket import gethostname\n'
p24
aS'import exptutils\n'
p25
aS'from exptutils import *\n'
p26
aS'from pylab import imread\n'
p27
ag14
aS'try:\n'
p28
aS'    from save_data_to_db import *\n'
p29
aS'    save_data=1\n'
p30
aS'except:\n'
p31
aS"    print 'cannnot import save_data_to_db'\n"
p32
aS'    save_data=0\n'
p33
ag14
aS'def store_scriptfile():\n'
p34
aS'    scriptfile= inspect.getfile(inspect.currentframe())# save a copy of the script in the data file\n'
p35
aS'    f=open(scriptfile)\n'
p36
aS'    script=f.readlines()\n'
p37
aS'    f.close()\n'
p38
aS'    return script\n'
p39
ag14
aS'#\n'
p40
aS'#- - - - - - - - - - - - - - - - - - - - - - - - - - - - - - - - - - - - - - - - - - - - - - - - - - - - - - - - - - - - - - - - - - - - - - - - - - - - - -\n'
p41
aS'#define functions for awaiting keyboard input & displaying initial instructions\n'
p42
aS'#these functions will be called prior to the stim_block() function (at bottom)\n'
p43
ag14
aS'def wait_for_trigger():\n'
p44
aS'    event.clearEvents()\n'
p45
aS"    if subdata['simulated_response']:\n"
p46
aS'        msg="SIMULATION MODE"\n'
p47
aS'    else:\n'
p48
aS"        msg=''\n"
p49
aS"    message=visual.TextStim(win, text='%s Waiting for start key (or press %s)'%(msg,subdata['start_key']),\n"
p50
aS"    font='BiauKai', height=1,color=u'white', colorSpace=u'rgb', opacity=1,depth=0.0,\n"
p51
aS"    alignHoriz='center',wrapWidth=50)\n"
p52
aS'    message.setAutoDraw(True) #automatically draw every frame\n'
p53
aS'    win.flip()\n'
p54
aS'    start=False\n'
p55
aS'    while start==False:\n'
p56
aS'        k=event.waitKeys()\n'
p57
aS"        if k.count(subdata['start_key'])>0:#as soon as subdata['start_key'] is pressed...\n"
p58
aS'            start=True\n'
p59
aS"            message.setText('')#this clears the screen\n"
p60
aS'            win.flip()\n'
p61
aS"        if k.count(subdata['quit_key']) >0:# if subdata['quit_key'] is pressed...\n"
p62
aS'            exptutils.shut_down_cleanly(subdata,win)\n'
p63
aS'            return subdata\n'
p64
aS'            \n'
p65
aS"def instructions(n,duration):#n here changes depending on the n-back level; yes/no will also switch between 'u' & 'i' keys depending on the Order number selected\n"
p66
aS'    event.clearEvents()\n'
p67
aS"    instructions=visual.TextStim(win=win, ori=0, name='instructions',font='BiauKai',\n"
p68
aS"        text='%d back'%n,\n"
p69
aS"        height=2,color=u'white', colorSpace=u'rgb', alignHoriz='center',wrapWidth=50)\n"
p70
aS'    instructions.setAutoDraw(True)\n'
p71
aS'    win.flip()\n'
p72
aS'    core.wait(duration)#currently it is set up to keep instructions on screen the designated amt of time; a button press will not end these instructions sooner\n'
p73
aS"    instructions.setText('')\n"
p74
aS'    win.flip()\n'
p75
ag14
aS'#- - - - - - - - - - - - - - - - - - - - - - - - - - - - - - - - - - - - - - - - - - - - - - - - - - - - - - - - - - - - - - - - - - - - - - - - \n'
p76
ag14
ag14
aS'#define function for displaying visual stims for each trial on n-back task\n'
p77
ag14
aS'def draw_stim(win,event_info,subdata,visual_stim):\n'
p78
aS'    trialdata={}\n'
p79
aS"    trialdata['duration']=subdata['stim_dur']\n"
p80
aS"    trialdata['onset'],trialdata['block'],trialdata['nback'],trialdata['match'],trialdata['stim']=event_info\n"
p81
aS'    # NB: I removed a lot of data handling stuff from within this function\n'
p82
aS'    # instead, the data get returned and handled at the calling level\n'
p83
aS"    print trialdata['stim']\n"
p84
aS"    if trialdata['stim'].find('faces')>-1:#if it is a face image, display vertically\n"
p85
aS"        stim_type='faces'\n"
p86
aS"    elif trialdata['stim'].find('scenes')>-1:#\n"
p87
aS"        stim_type='scenes'\n"
p88
aS'    else:#if it is a character, display as text\n'
p89
aS"        stim_type='chinese_characters'\n"
p90
aS'        \n'
p91
aS"    visual_stim.setImage(trialdata['stim'])\n"
p92
aS"    trialdata['stim_type']=stim_type\n"
p93
aS'    \n'
p94
aS'        #visual_stim[stim_type].setAutoDraw(True)#get the image ready to display\n'
p95
aS'    visual_stim.draw()\n'
p96
aS"    while clock.getTime()<trialdata['onset']:#wait until the specified onset time to display image_file\n"
p97
aS'        pass\n'
p98
aS'    win.flip()\n'
p99
aS"    trialdata['actual_onset_time']=clock.getTime()\n"
p100
aS'    event.clearEvents()#clear all button presses\n'
p101
aS'    thisResp=None\n'
p102
aS'    simulated_rt=0.5 + N.random.rand()*0.1\n'
p103
aS"    while clock.getTime() < (trialdata['actual_onset_time'] + trialdata['duration']):#before the subdata['stim_dur'] time is exceeded, do this stuff...\n"
p104
aS'            key_response=event.getKeys()#look for yes,no, and quit commands\n'
p105
aS"            if subdata['simulated_response']:\n"
p106
aS"                if clock.getTime()> trialdata['actual_onset_time'] + simulated_rt:\n"
p107
aS'                    thisResp=1\n'
p108
aS"                    trialdata['rt']=clock.getTime() - trialdata['actual_onset_time'] #collect rt\n"
p109
aS"                    if trialdata['match']==trialdata['nback']:\n"
p110
aS"                        trialdata['response']='4'\n"
p111
aS'                    else:\n'
p112
aS"                        trialdata['response']='1'\n"
p113
ag14
aS'            elif key_response:#if they press any button\n'
p114
aS"                if key_response.count(subdata['quit_key'])>0:#if subj hits subdata['quit_key']...\n"
p115
aS'                    keep_going=0\n'
p116
aS"                    #subdata['broke_on_trial'][which_block]=trial_num\n"
p117
aS'                    #shut_down_cleanly(subdata,win)\n'
p118
aS'                    return None\n'
p119
aS"                elif key_response.count('5')>0:\n"
p120
aS"                    subdata['trigger_times'].append(clock.getTime())\n"
p121
aS'                else:\n'
p122
aS'                    thisResp=1\n'
p123
aS"                    trialdata['rt']=clock.getTime() - trialdata['actual_onset_time'] #collect rt\n"
p124
aS"                    trialdata['response']=key_response[0]#collect response\n"
p125
ag14
aS'    visual_stim.clearTextures()\n'
p126
ag14
aS'    win.flip()\n'
p127
ag14
aS'    #del visual_stim\n'
p128
aS'    return trialdata\n'
p129
aS'    \n'
p130
ag14
ag14
aS'#Text saying the task has finished. Disappears with key press\n'
p131
ag14
aS'def display_finished_text():#finished with experiment\n'
p132
aS'    event.clearEvents()\n'
p133
aS'    message=visual.TextStim(win=win, ori=0,\n'
p134
aS"    text='All finished! Thanks  :) \\n Press any key to clear the screen.',\n"
p135
aS"    font=u'BiauKai',pos=[0, 0], height=2,color=u'white', colorSpace=u'rgb', opacity=1,depth=0.0,alignHoriz='center',wrapWidth=50)\n"
p136
aS'    message.setAutoDraw(True) \n'
p137
aS'    win.flip()\n'
p138
aS'    start=False\n'
p139
aS'    while start==False:\n'
p140
aS'        key_response=event.getKeys()\n'
p141
aS'        if len(key_response)>0:\n'
p142
aS'            start=True\n'
p143
aS"            message.setText('')#this clears the screen\n"
p144
aS'            win.flip()\n'
p145
aS'    return start\n'
p146
aS'#- - - - - - - - - - - - - - - - - - - - - - - - - - - - - - - - - - - - - - - - - - - - - - - - - - - - - - - - - - - - - - - - - - - - - - \n'
p147
ag14
aS'    \n'
p148
aS'#set-up some variables\n'
p149
ag14
aS'verbose=True\n'
p150
aS'fullscr=False  # change to True for full screen display\n'
p151
ag14
aS"stim_types=['faces','scenes','chinese_characters']\n"
p152
aS'subdata={}\n'
p153
aS'finish_time=440\n'
p154
ag14
aS"subdata['start_key']='5'\n"
p155
aS"subdata['quit_key']='q'\n"
p156
aS"subdata['discard_time_to_wait']=0.0\n"
p157
aS"subdata['expt_title']='Self_Tracking'\n"
p158
aS"subdata['stim_dur']=1.0\n"
p159
aS"subdata['inter_stim_int']=1.0\n"
p160
aS"subdata['inst_time']=1.0\n"
p161
aS"subdata['rest_time']=10.0\n"
p162
aS"subdata['ExpVersion']=0.1\n"
p163
aS"subdata['nstims']=5\n"
p164
aS"subdata['ntrials_per_block']=6\n"
p165
aS"subdata['simulated_response']=False\n"
p166
aS"subdata['trigger_times']=[]\n"
p167
ag14
aS'if len(sys.argv)<2:\n'
p168
aS"    print 'USAGE: self_tracking.py <stimlist> <session code>'\n"
p169
aS'    sys.exit()\n'
p170
aS"    #subdata['onsetfile']='/Users/poldrack/Dropbox/Documents/Projects/self-tracking/task/onsetlists/stimlist_000.txt'\n"
p171
aS'else:\n'
p172
aS"    subdata['onsetfile']=sys.argv[1]\n"
p173
aS"    subdata['subcode']=sys.argv[2]\n"
p174
ag14
ag14
aS'# initialize subdata dictionary to store info about the study\n'
p175
aS"subdata['completed']=0\n"
p176
aS"subdata['cwd']=os.getcwd()\n"
p177
aS"subdata['hostname']=socket.gethostname()\n"
p178
aS'clock=core.Clock()\n'
p179
aS'datestamp=datetime.datetime.now().strftime("%Y-%m-%d-%H_%M_%S")\n'
p180
aS"subdata['datestamp']=datestamp\n"
p181
aS"subdata['expt_title']=subdata['expt_title']\n"
p182
aS"subdata['script']=store_scriptfile()\n"
p183
aS"subdata['onsets']=subdata['onsetfile']\n"
p184
ag14
aS'#these are all sub-dictionaries which will be appended w/separate info for each block & each trial\n'
p185
aS"#i.e., the 'response' dictionary will contain the following dictionaries: face_1, face_2, scenes_1, scenes_2, whose keys are trial_num and values are the responses on that trial\n"
p186
aS"subdata['response']={}\n"
p187
aS"subdata['score']={}\n"
p188
aS"subdata['rt']={}\n"
p189
aS"subdata['stim_onset_time']={}\n"
p190
aS"subdata['stim_log']={}\n"
p191
aS"subdata['is_this_SS_trial']={}\n"
p192
aS"subdata['SS']={}\n"
p193
aS"subdata['broke_on_trial']={}\n"
p194
ag14
aS'# set up logging information & create Output directories\n'
p195
aS"if not os.path.isdir('Output'):#make an Output directory if necessary\n"
p196
aS"    os.makedirs('Output') \n"
p197
ag14
aS"dataFileName='Output/%s_%s_subdata.log'%(subdata['subcode'],subdata['datestamp'])\n"
p198
aS'logging.console.setLevel(logging.INFO)\n'
p199
aS'logfile=logging.LogFile(dataFileName,level=logging.INFO)\n'
p200
ag14
aS'# load stimulus file\n'
p201
ag14
aS'def load_stimulus_file(onsfile):\n'
p202
aS'    events=[]\n'
p203
aS'    f=open(onsfile)\n'
p204
aS'    l=f.readlines()\n'
p205
aS'    for line in l:\n'
p206
aS"        l_s=line.strip('\\n').split('\\t')\n"
p207
aS'        events.append([float(l_s[0]),int(l_s[1]),int(l_s[2]),int(l_s[3]),l_s[4]])\n'
p208
aS'    f.close()\n'
p209
aS'    return events\n'
p210
ag14
aS"events=load_stimulus_file(subdata['onsetfile'])\n"
p211
ag14
aS'# set up the window \n'
p212
aS"win = visual.Window([800,600],allowGUI=True, fullscr=True, monitor='testMonitor', units='deg')\n"
p213
aS"win.setColor('black')\n"
p214
aS'win.flip()\n'
p215
aS'win.flip()\n'
p216
ag14
aS'#integrating everything together\n'
p217
ag14
aS"subdata['trialdata']={}\n"
p218
aS'#chardict=create_characters_dict()\n'
p219
ag14
aS"wait_for_trigger()#wait for subdata['start_key'] to be pressed\n"
p220
ag14
aS'visual_stim={}\n'
p221
aS"visual_stim=visual.ImageStim(win, image=N.zeros((10,10)), size=(0.75,0.75),units='height')\n"
p222
ag14
aS'# set clock to zero\n'
p223
aS'clock.reset()\n'
p224
aS'trialctr=0\n'
p225
aS'for i in range(len(events)):\n'
p226
aS"    if events[i][4]=='inst':\n"
p227
aS'        while clock.getTime() < events[i][0]:\n'
p228
aS'            pass\n'
p229
aS"        instructions(events[i][2],subdata['inst_time'])\n"
p230
aS'    else:\n'
p231
aS"        subdata['trialdata'][trialctr]=draw_stim(win,events[i],subdata,visual_stim)\n"
p232
aS"        if subdata['trialdata'][trialctr]==None:\n"
p233
aS'            break\n'
p234
aS'        trialctr+=1\n'
p235
aS"        print 'return time:',clock.getTime()\n"
p236
ag14
aS'#display_finished_text()\n'
p237
aS'while clock.getTime()<finish_time:\n'
p238
aS'\tpass\n'
p239
aS'\t\n'
p240
aS"subdata['events']=events\n"
p241
aS'if save_data==1:\n'
p242
aS"    docId,docRev=save_data_to_db(subdata,'selftracking-taskdata')\n"
p243
ag14
aS'shut_down_cleanly(subdata,win)\n'
p244
asS'onsets'
p245
S'onsetlists/stimlist_002.txt'
p246
sS'hostname'
p247
S'IRC-arizona'
p248
sS'score'
p249
(dp250
sS'rest_time'
p251
F10.0
sS'cwd'
p252
S'/Users/rap2623/Dropbox/Documents/Projects/self-tracking/task'
p253
sS'trigger_times'
p254
(lp255
F2.2860939502716064
aF4.6060919761657715
aF6.926167011260986
aF8.086458921432495
aF10.406280040740967
aF12.725336074829102
aF16.205612897872925
aF18.525481939315796
aF20.845515966415405
aF24.325720071792603
aF26.64573097229004
aF28.965796947479248
aF30.12600803375244
aF32.44595789909363
aF34.765986919403076
aF38.246153116226196
aF40.56598711013794
aF42.886178970336914
aF46.366344928741455
aF48.68640208244324
aF51.006386041641235
aF52.16658902168274
aF54.48653292655945
aF56.806512117385864
aF60.28663492202759
aF62.60578012466431
aF64.9257230758667
aF68.40594410896301
aF70.72600603103638
aF74.20617890357971
aF76.52626299858093
aF78.84624290466309
aF82.32642006874084
aF84.64633989334106
aF86.96648001670837
aF90.4466199874878
aF92.76663494110107
aF96.246906042099
aF98.56684994697571
aF100.88687109947205
aF102.04706192016602
aF104.36697196960449
aF106.68705701828003
aF109.00712394714355
aF112.48635601997375
aF114.80631399154663
aF118.2864420413971
aF120.60651111602783
aF122.92664098739624
aF124.08667302131653
aF126.406662940979
aF128.72673392295837
aF154.24762201309204
aF156.56748509407043
aF158.88754200935364
aF160.04774808883667
aF162.36668610572815
aF164.68657803535461
aF167.00677108764648
aF168.16696000099182
aF170.48696398735046
aF172.8069179058075
aF176.28714394569397
aF178.60711193084717
aF180.92718410491943
aF182.08734512329102
aF184.40722107887268
aF186.72698497772217
aF190.2074089050293
aF192.5275959968567
aF194.84756994247437
aF198.3276150226593
aF200.64772295951843
aF202.96782112121582
aF204.12791991233826
aF206.44792199134827
aF208.76795291900635
aF212.2471640110016
aF214.56711602210999
aF216.88724303245544
aF220.36736011505127
aF222.6873710155487
aF225.00745511054993
aF226.16757011413574
aF228.4875819683075
aF230.8076159954071
aF234.2877209186554
aF236.60780501365662
aF238.9278769493103
aF242.40801000595093
aF244.72798204421997
aF248.2082359790802
aF250.52818894386292
aF252.84824204444885
aF256.32837104797363
aF258.6484410762787
aF260.968435049057
aF264.4476330280304
aF266.7676479816437
aF270.24779891967773
aF272.5678520202637
aF274.8878469467163
aF276.0480799674988
aF278.3678650856018
aF280.68804597854614
aF283.0082049369812
aF306.20883798599243
aF308.52886295318604
aF310.84886503219604
aF314.3280029296875
aF316.64813208580017
aF318.96811604499817
aF320.12831711769104
aF322.44843912124634
aF324.7682020664215
aF328.24848103523254
aF330.56845712661743
aF332.8885419368744
aF334.0487389564514
aF336.3686249256134
aF338.6887409687042
aF341.00889801979065
aF342.16892099380493
aF344.4889121055603
aF346.8089179992676
aF350.28904390335083
aF352.6091310977936
aF354.929160118103
aF356.089262008667
aF358.40931391716003
aF360.7293291091919
aF364.20856499671936
aF366.52854204177856
aF368.8485689163208
aF372.3287069797516
aF374.6485641002655
aF376.9687840938568
aF378.1290240287781
aF380.448930978775
aF382.7689459323883
aF386.24908900260925
aF388.56917810440063
aF390.8891680240631
aF394.36926794052124
aF396.68931007385254
aF399.009437084198
aF400.16947889328003
aF402.48956990242004
aF404.8095591068268
aF408.2896659374237
aF410.6098029613495
aF412.9288249015808
aF416.4089848995209
aF418.72893500328064
aF422.20919704437256
aF424.5291850566864
aF426.84921312332153
aF430.32934403419495
aF432.64936089515686
aF434.96950006484985
asS'ExpVersion'
p256
F0.1
sS'completed'
p257
I0
sS'stim_dur'
p258
F1.0
sS'quit_key'
p259
S'q'
p260
sS'onsetfile'
p261
g246
sS'discard_time_to_wait'
p262
F0.0
sS'response'
p263
(dp264
sS'trialdata'
p265
(dp266
I0
(dp267
g8
F0.41371798515319824
sS'stim'
p268
S'./stimfiles/chinese_characters/35462.jpg'
p269
sS'onset'
p270
F2.0
sS'stim_type'
p271
S'chinese_characters'
p272
sS'block'
p273
I0
sS'nback'
p274
I1
sS'duration'
p275
F1.0
sg263
S'1'
p276
sS'match'
p277
I0
sS'actual_onset_time'
p278
F2.016386032104492
ssI1
(dp279
g8
F0.5326840877532959
sg268
S'./stimfiles/chinese_characters/35435.jpg'
p280
sg270
F4.0
sg271
g272
sg273
I0
sg274
I1
sg275
F1.0
sg263
g276
sg277
I0
sg278
F4.017242908477783
ssI2
(dp281
g8
F0.5182230472564697
sg268
S'./stimfiles/chinese_characters/37266.jpg'
p282
sg270
F6.0
sg271
g272
sg273
I0
sg274
I1
sg275
F1.0
sg263
g276
sg277
I0
sg278
F6.017987966537476
ssI3
(dp283
g8
F0.5483629703521729
sg268
S'./stimfiles/chinese_characters/35435.jpg'
p284
sg270
F8.0
sg271
g272
sg273
I0
sg274
I1
sg275
F1.0
sg263
g276
sg277
I2
sg278
F8.018847942352295
ssI4
(dp285
g8
F0.6365768909454346
sg268
S'./stimfiles/chinese_characters/25793.jpg'
p286
sg270
F10.0
sg271
g272
sg273
I0
sg274
I1
sg275
F1.0
sg263
g276
sg277
I0
sg278
F10.01972508430481
ssI5
(dp287
g8
F0.4298830032348633
sg268
S'./stimfiles/chinese_characters/25793.jpg'
p288
sg270
F12.0
sg271
g272
sg273
I0
sg274
I1
sg275
F1.0
sg263
S'4'
p289
sg277
I1
sg278
F12.020483016967773
ssI6
(dp290
g8
F0.4681429862976074
sg268
S'./stimfiles/chinese_characters/35435.jpg'
p291
sg270
F14.0
sg271
g272
sg273
I0
sg274
I1
sg275
F1.0
sg263
g276
sg277
I3
sg278
F14.021300077438354
ssI7
(dp292
g8
F0.48441004753112793
sg268
S'./stimfiles/chinese_characters/25543.jpg'
p293
sg270
F16.0
sg271
g272
sg273
I0
sg274
I1
sg275
F1.0
sg263
g276
sg277
I0
sg278
F16.022157907485962
ssI8
(dp294
g8
F0.5334899425506592
sg268
S'./stimfiles/chinese_characters/25793.jpg'
p295
sg270
F18.0
sg271
g272
sg273
I0
sg274
I1
sg275
F1.0
sg263
g276
sg277
I3
sg278
F18.022983074188232
ssI9
(dp296
g8
F0.6507718563079834
sg268
S'./stimfiles/chinese_characters/25793.jpg'
p297
sg270
F20.0
sg271
g272
sg273
I0
sg274
I1
sg275
F1.0
sg263
g289
sg277
I1
sg278
F20.02383303642273
ssI10
(dp298
g8
F0.8659720420837402
sg268
S'./stimfiles/faces/cropped_154.png'
p299
sg270
F24.0
sg271
S'faces'
p300
sg273
I1
sg274
I1
sg275
F1.0
sg263
g276
sg277
I0
sg278
F24.008732080459595
ssI11
(dp301
g8
F0.6180250644683838
sg268
S'./stimfiles/faces/cropped_65MVC-003F.png'
p302
sg270
F26.0
sg271
g300
sg273
I1
sg274
I1
sg275
F1.0
sg263
g276
sg277
I0
sg278
F26.009557008743286
ssI12
(dp303
g8
F0.7213551998138428
sg268
S'./stimfiles/faces/cropped_154.png'
p304
sg270
F28.0
sg271
g300
sg273
I1
sg274
I1
sg275
F1.0
sg263
g276
sg277
I2
sg278
F28.01040291786194
ssI13
(dp305
g8
F0.5945839881896973
sg268
S'./stimfiles/faces/cropped_f6n1.png'
p306
sg270
F30.0
sg271
g300
sg273
I1
sg274
I1
sg275
F1.0
sg263
g276
sg277
I0
sg278
F30.01126503944397
ssI14
(dp307
g8
F0.5298988819122314
sg268
S'./stimfiles/faces/cropped_84a.png'
p308
sg270
F32.0
sg271
g300
sg273
I1
sg274
I1
sg275
F1.0
sg263
g276
sg277
I0
sg278
F32.012025117874146
ssI15
(dp309
g8
F0.5151610374450684
sg268
S'./stimfiles/faces/cropped_84a.png'
p310
sg270
F34.0
sg271
g300
sg273
I1
sg274
I1
sg275
F1.0
sg263
g289
sg277
I1
sg278
F34.012871980667114
ssI16
(dp311
g8
F0.5513081550598145
sg268
S'./stimfiles/faces/cropped_f6n1.png'
p312
sg270
F36.0
sg271
g300
sg273
I1
sg274
I1
sg275
F1.0
sg263
g276
sg277
I3
sg278
F36.01374292373657
ssI17
(dp313
g8
F0.5915310382843018
sg268
S'./stimfiles/faces/cropped_84a.png'
p314
sg270
F38.0
sg271
g300
sg273
I1
sg274
I1
sg275
F1.0
sg263
g276
sg277
I3
sg278
F38.01453900337219
ssI18
(dp315
g8
F0.7417800426483154
sg268
S'./stimfiles/faces/cropped_f6n1.png'
p316
sg270
F40.0
sg271
g300
sg273
I1
sg274
I1
sg275
F1.0
sg263
g276
sg277
I2
sg278
F40.015379905700684
ssI19
(dp317
g8
F0.7510268688201904
sg268
S'./stimfiles/faces/cropped_f-037-01.png'
p318
sg270
F42.0
sg271
g300
sg273
I1
sg274
I1
sg275
F1.0
sg263
g276
sg277
I0
sg278
F42.01619005203247
ssI20
(dp319
g8
F0.7153599262237549
sg268
S'./stimfiles/scenes/80.jpg'
p320
sg270
F46.0
sg271
S'scenes'
p321
sg273
I2
sg274
I1
sg275
F1.0
sg263
g276
sg277
I0
sg278
F46.017919063568115
ssI21
(dp322
g8
F0.48171496391296387
sg268
S'./stimfiles/scenes/195.jpg'
p323
sg270
F48.0
sg271
g321
sg273
I2
sg274
I1
sg275
F1.0
sg263
g276
sg277
I0
sg278
F48.01857399940491
ssI22
(dp324
g8
F0.46105098724365234
sg268
S'./stimfiles/scenes/536.jpg'
p325
sg270
F50.0
sg271
g321
sg273
I2
sg274
I1
sg275
F1.0
sg263
g276
sg277
I0
sg278
F50.01937508583069
ssI23
(dp326
g8
F0.5003399848937988
sg268
S'./stimfiles/scenes/1877.jpg'
p327
sg270
F52.0
sg271
g321
sg273
I2
sg274
I1
sg275
F1.0
sg263
g276
sg277
I0
sg278
F52.02023100852966
ssI24
(dp328
g8
F0.5090930461883545
sg268
S'./stimfiles/scenes/195.jpg'
p329
sg270
F54.0
sg271
g321
sg273
I2
sg274
I1
sg275
F1.0
sg263
g276
sg277
I3
sg278
F54.00442600250244
ssI25
(dp330
g8
F0.42630505561828613
sg268
S'./stimfiles/scenes/195.jpg'
p331
sg270
F56.0
sg271
g321
sg273
I2
sg274
I1
sg275
F1.0
sg263
g289
sg277
I1
sg278
F56.00522303581238
ssI26
(dp332
g8
F0.41364216804504395
sg268
S'./stimfiles/scenes/1120.jpg'
p333
sg270
F58.0
sg271
g321
sg273
I2
sg274
I1
sg275
F1.0
sg263
g276
sg277
I0
sg278
F58.00603795051575
ssI27
(dp334
g8
F0.45380687713623047
sg268
S'./stimfiles/scenes/132.jpg'
p335
sg270
F60.0
sg271
g321
sg273
I2
sg274
I1
sg275
F1.0
sg263
g276
sg277
I0
sg278
F60.00681710243225
ssI28
(dp336
g8
F0.4901611804962158
sg268
S'./stimfiles/scenes/195.jpg'
p337
sg270
F62.0
sg271
g321
sg273
I2
sg274
I1
sg275
F1.0
sg263
g276
sg277
I3
sg278
F62.007648944854736
ssI29
(dp338
g8
F0.7993199825286865
sg268
S'./stimfiles/scenes/132.jpg'
p339
sg270
F64.0
sg271
g321
sg273
I2
sg274
I1
sg275
F1.0
sg263
g276
sg277
I2
sg278
F64.00846099853516
ssI30
(dp340
g8
F0.4937708377838135
sg268
S'./stimfiles/scenes/640.jpg'
p341
sg270
F68.0
sg271
g321
sg273
I3
sg274
I2
sg275
F1.0
sg263
g276
sg277
I0
sg278
F68.01018810272217
ssI31
(dp342
g8
F0.6710259914398193
sg268
S'./stimfiles/scenes/1491.jpg'
p343
sg270
F70.0
sg271
g321
sg273
I3
sg274
I2
sg275
F1.0
sg263
g276
sg277
I0
sg278
F70.01098608970642
ssI32
(dp344
g8
F0.6003007888793945
sg268
S'./stimfiles/scenes/640.jpg'
p345
sg270
F72.0
sg271
g321
sg273
I3
sg274
I2
sg275
F1.0
sg263
g289
sg277
I2
sg278
F72.01176810264587
ssI33
(dp346
g8
F0.5075109004974365
sg268
S'./stimfiles/scenes/1700.jpg'
p347
sg270
F74.0
sg271
g321
sg273
I3
sg274
I2
sg275
F1.0
sg263
g276
sg277
I0
sg278
F74.01262402534485
ssI34
(dp348
g8
F0.5867931842803955
sg268
S'./stimfiles/scenes/640.jpg'
p349
sg270
F76.0
sg271
g321
sg273
I3
sg274
I2
sg275
F1.0
sg263
g289
sg277
I2
sg278
F76.01342391967773
ssI35
(dp350
g8
F0.6320137977600098
sg268
S'./stimfiles/scenes/3092.jpg'
p351
sg270
F78.0
sg271
g321
sg273
I3
sg274
I2
sg275
F1.0
sg263
g276
sg277
I0
sg278
F78.01425409317017
ssI36
(dp352
g8
F0.49918317794799805
sg268
S'./stimfiles/scenes/1700.jpg'
p353
sg270
F80.0
sg271
g321
sg273
I3
sg274
I2
sg275
F1.0
sg263
g276
sg277
I3
sg278
F80.01513195037842
ssI37
(dp354
g8
F0.7904331684112549
sg268
S'./stimfiles/scenes/3092.jpg'
p355
sg270
F82.0
sg271
g321
sg273
I3
sg274
I2
sg275
F1.0
sg263
g289
sg277
I2
sg278
F82.01591992378235
ssI38
(dp356
g8
F0.5256621837615967
sg268
S'./stimfiles/scenes/1875.jpg'
p357
sg270
F84.0
sg271
g321
sg273
I3
sg274
I2
sg275
F1.0
sg263
g276
sg277
I0
sg278
F84.01676392555237
ssI39
(dp358
g8
F0.7458109855651855
sg268
S'./stimfiles/scenes/143.jpg'
p359
sg270
F86.0
sg271
g321
sg273
I3
sg274
I2
sg275
F1.0
sg263
g289
sg277
I0
sg278
F86.01758599281311
ssI40
(dp360
g8
F0.5833249092102051
sg268
S'./stimfiles/chinese_characters/25082.jpg'
p361
sg270
F90.0
sg271
g272
sg273
I4
sg274
I2
sg275
F1.0
sg263
g276
sg277
I0
sg278
F90.01916098594666
ssI41
(dp362
g8
F0.6636531352996826
sg268
S'./stimfiles/chinese_characters/20575.jpg'
p363
sg270
F92.0
sg271
g272
sg273
I4
sg274
I2
sg275
F1.0
sg263
g276
sg277
I0
sg278
F92.02002096176147
ssI42
(dp364
g8
F0.5369000434875488
sg268
S'./stimfiles/chinese_characters/25082.jpg'
p365
sg270
F94.0
sg271
g272
sg273
I4
sg274
I2
sg275
F1.0
sg263
g289
sg277
I2
sg278
F94.02080392837524
ssI43
(dp366
g8
F0.6780989170074463
sg268
S'./stimfiles/chinese_characters/26391.jpg'
p367
sg270
F96.0
sg271
g272
sg273
I4
sg274
I2
sg275
F1.0
sg263
g276
sg277
I0
sg278
F96.02165603637695
ssI44
(dp368
g8
F0.7042510509490967
sg268
S'./stimfiles/chinese_characters/25923.jpg'
p369
sg270
F98.0
sg271
g272
sg273
I4
sg274
I2
sg275
F1.0
sg263
g276
sg277
I0
sg278
F98.02253603935242
ssI45
(dp370
g8
F0.6045339107513428
sg268
S'./stimfiles/chinese_characters/26391.jpg'
p371
sg270
F100.0
sg271
g272
sg273
I4
sg274
I2
sg275
F1.0
sg263
g289
sg277
I2
sg278
F100.02334904670715
ssI46
(dp372
g8
F0.6617889404296875
sg268
S'./stimfiles/chinese_characters/25923.jpg'
p373
sg270
F102.0
sg271
g272
sg273
I4
sg274
I2
sg275
F1.0
sg263
g276
sg277
I2
sg278
F102.02412009239197
ssI47
(dp374
g8
F0.633059024810791
sg268
S'./stimfiles/chinese_characters/26391.jpg'
p375
sg270
F104.0
sg271
g272
sg273
I4
sg274
I2
sg275
F1.0
sg263
g289
sg277
I2
sg278
F104.02491903305054
ssI48
(dp376
g8
F0.8552579879760742
sg268
S'./stimfiles/chinese_characters/25971.jpg'
p377
sg270
F106.0
sg271
g272
sg273
I4
sg274
I2
sg275
F1.0
sg263
g289
sg277
I0
sg278
F106.025808095932
ssI49
(dp378
g8
F0.8571770191192627
sg268
S'./stimfiles/chinese_characters/25923.jpg'
p379
sg270
F108.0
sg271
g272
sg273
I4
sg274
I2
sg275
F1.0
sg263
g289
sg277
I3
sg278
F108.00987005233765
ssI50
(dp380
g8
F0.622628927230835
sg268
S'./stimfiles/faces/cropped_97a.png'
p381
sg270
F112.0
sg271
g300
sg273
I5
sg274
I2
sg275
F1.0
sg263
g276
sg277
I0
sg278
F112.01160311698914
ssI51
(dp382
g8
F0.8238399028778076
sg268
S'./stimfiles/faces/cropped_97a.png'
p383
sg270
F114.0
sg271
g300
sg273
I5
sg274
I2
sg275
F1.0
sg263
g276
sg277
I1
sg278
F114.01243209838867
ssI52
(dp384
g8
F0.6441740989685059
sg268
S'./stimfiles/faces/cropped_70a.png'
p385
sg270
F116.0
sg271
g300
sg273
I5
sg274
I2
sg275
F1.0
sg263
g276
sg277
I0
sg278
F116.01319694519043
ssI53
(dp386
g8
F0.4413139820098877
sg268
S'./stimfiles/faces/cropped_97a.png'
p387
sg270
F118.0
sg271
g300
sg273
I5
sg274
I2
sg275
F1.0
sg263
g289
sg277
I2
sg278
F118.0140790939331
ssI54
(dp388
g8
F0.6486890316009521
sg268
S'./stimfiles/faces/cropped_70a.png'
p389
sg270
F120.0
sg271
g300
sg273
I5
sg274
I2
sg275
F1.0
sg263
g289
sg277
I2
sg278
F120.01485109329224
ssI55
(dp390
g8
F0.7918651103973389
sg268
S'./stimfiles/faces/cropped_grant_cumming1.png'
p391
sg270
F122.0
sg271
g300
sg273
I5
sg274
I2
sg275
F1.0
sg263
g276
sg277
I0
sg278
F122.0156888961792
ssI56
(dp392
g8
F0.9300611019134521
sg268
S'./stimfiles/faces/cropped_f-011-01.png'
p393
sg270
F124.0
sg271
g300
sg273
I5
sg274
I2
sg275
F1.0
sg263
g276
sg277
I0
sg278
F124.01654195785522
ssI57
(dp394
g8
F0.7052149772644043
sg268
S'./stimfiles/faces/cropped_f3v1e1.png'
p395
sg270
F126.0
sg271
g300
sg273
I5
sg274
I2
sg275
F1.0
sg263
g276
sg277
I0
sg278
F126.017343044281
ssI58
(dp396
g8
F0.5475800037384033
sg268
S'./stimfiles/faces/cropped_f-011-01.png'
p397
sg270
F128.0
sg271
g300
sg273
I5
sg274
I2
sg275
F1.0
sg263
g289
sg277
I2
sg278
F128.01809811592102
ssI59
(dp398
g8
F0.6977839469909668
sg268
S'./stimfiles/faces/cropped_f3v1e1.png'
p399
sg270
F130.0
sg271
g300
sg273
I5
sg274
I2
sg275
F1.0
sg263
g289
sg277
I2
sg278
F130.01891994476318
ssI60
(dp400
g8
F0.7036659717559814
sg268
S'./stimfiles/chinese_characters/33333.jpg'
p401
sg270
F154.0
sg271
g272
sg273
I6
sg274
I1
sg275
F1.0
sg263
g276
sg277
I0
sg278
F154.0287721157074
ssI61
(dp402
g8
F0.7724940776824951
sg268
S'./stimfiles/chinese_characters/25567.jpg'
p403
sg270
F156.0
sg271
g272
sg273
I6
sg274
I1
sg275
F1.0
sg263
g276
sg277
I0
sg278
F156.01297092437744
ssI62
(dp404
g8
F0.6147689819335938
sg268
S'./stimfiles/chinese_characters/26231.jpg'
p405
sg270
F158.0
sg271
g272
sg273
I6
sg274
I1
sg275
F1.0
sg263
g276
sg277
I0
sg278
F158.01380896568298
ssI63
(dp406
g8
F0.683121919631958
sg268
S'./stimfiles/chinese_characters/25725.jpg'
p407
sg270
F160.0
sg271
g272
sg273
I6
sg274
I1
sg275
F1.0
sg263
g276
sg277
I0
sg278
F160.0145800113678
ssI64
(dp408
g8
F0.6171350479125977
sg268
S'./stimfiles/chinese_characters/25034.jpg'
p409
sg270
F162.0
sg271
g272
sg273
I6
sg274
I1
sg275
F1.0
sg263
g276
sg277
I0
sg278
F162.01540994644165
ssI65
(dp410
g8
F0.5305080413818359
sg268
S'./stimfiles/chinese_characters/25034.jpg'
p411
sg270
F164.0
sg271
g272
sg273
I6
sg274
I1
sg275
F1.0
sg263
g289
sg277
I1
sg278
F164.01624608039856
ssI66
(dp412
g8
F0.7596678733825684
sg268
S'./stimfiles/chinese_characters/25447.jpg'
p413
sg270
F166.0
sg271
g272
sg273
I6
sg274
I1
sg275
F1.0
sg263
g276
sg277
I0
sg278
F166.01711106300354
ssI67
(dp414
g8
F0.6489589214324951
sg268
S'./stimfiles/chinese_characters/25034.jpg'
p415
sg270
F168.0
sg271
g272
sg273
I6
sg274
I1
sg275
F1.0
sg263
g276
sg277
I3
sg278
F168.0178780555725
ssI68
(dp416
g8
F0.8111310005187988
sg268
S'./stimfiles/chinese_characters/25447.jpg'
p417
sg270
F170.0
sg271
g272
sg273
I6
sg274
I1
sg275
F1.0
sg263
g276
sg277
I2
sg278
F170.01867508888245
ssI69
(dp418
g8
F0.7135598659515381
sg268
S'./stimfiles/chinese_characters/25772.jpg'
p419
sg270
F172.0
sg271
g272
sg273
I6
sg274
I1
sg275
F1.0
sg263
g276
sg277
I0
sg278
F172.01956009864807
ssI70
(dp420
g8
F0.6088211536407471
sg268
S'./stimfiles/faces/cropped_87a.png'
p421
sg270
F176.0
sg271
g300
sg273
I7
sg274
I1
sg275
F1.0
sg263
g276
sg277
I0
sg278
F176.0212209224701
ssI71
(dp422
g8
F0.566126823425293
sg268
S'./stimfiles/faces/cropped_511.png'
p423
sg270
F178.0
sg271
g300
sg273
I7
sg274
I1
sg275
F1.0
sg263
g276
sg277
I0
sg278
F178.02205109596252
ssI72
(dp424
g8
F0.7855739593505859
sg268
S'./stimfiles/faces/cropped_627.png'
p425
sg270
F180.0
sg271
g300
sg273
I7
sg274
I1
sg275
F1.0
sg263
g276
sg277
I0
sg278
F180.02282309532166
ssI73
(dp426
g8
F0.5395619869232178
sg268
S'./stimfiles/faces/cropped_627.png'
p427
sg270
F182.0
sg271
g300
sg273
I7
sg274
I1
sg275
F1.0
sg263
g289
sg277
I1
sg278
F182.02365112304688
ssI74
(dp428
g8
F0.7087500095367432
sg268
S'./stimfiles/faces/cropped_627.png'
p429
sg270
F184.0
sg271
g300
sg273
I7
sg274
I1
sg275
F1.0
sg263
g289
sg277
I1
sg278
F184.02446508407593
ssI75
(dp430
g8
F0.6059620380401611
sg268
S'./stimfiles/faces/cropped_627.png'
p431
sg270
F186.0
sg271
g300
sg273
I7
sg274
I1
sg275
F1.0
sg263
g289
sg277
I1
sg278
F186.02534103393555
ssI76
(dp432
g8
F0.5692870616912842
sg268
S'./stimfiles/faces/cropped_627.png'
p433
sg270
F188.0
sg271
g300
sg273
I7
sg274
I1
sg275
F1.0
sg263
g289
sg277
I3
sg278
F188.0261459350586
ssI77
(dp434
g8
F0.5772390365600586
sg268
S'./stimfiles/faces/cropped_75.png'
p435
sg270
F190.0
sg271
g300
sg273
I7
sg274
I1
sg275
F1.0
sg263
g276
sg277
I0
sg278
F190.01021695137024
ssI78
(dp436
g8
F0.832474946975708
sg268
S'./stimfiles/faces/cropped_627.png'
p437
sg270
F192.0
sg271
g300
sg273
I7
sg274
I1
sg275
F1.0
sg263
g276
sg277
I2
sg278
F192.0110321044922
ssI79
(dp438
g8
F0.6056220531463623
sg268
S'./stimfiles/faces/cropped_680.png'
p439
sg270
F194.0
sg271
g300
sg273
I7
sg274
I1
sg275
F1.0
sg263
g276
sg277
I0
sg278
F194.0120120048523
ssI80
(dp440
g8
F0.8020610809326172
sg268
S'./stimfiles/scenes/763.jpg'
p441
sg270
F198.0
sg271
g321
sg273
I8
sg274
I1
sg275
F1.0
sg263
g276
sg277
I0
sg278
F198.0135679244995
ssI81
(dp442
g8
F0.5454869270324707
sg268
S'./stimfiles/scenes/763.jpg'
p443
sg270
F200.0
sg271
g321
sg273
I8
sg274
I1
sg275
F1.0
sg263
g289
sg277
I1
sg278
F200.01437711715698
ssI82
(dp444
g8
F0.5615370273590088
sg268
S'./stimfiles/scenes/763.jpg'
p445
sg270
F202.0
sg271
g321
sg273
I8
sg274
I1
sg275
F1.0
sg263
g289
sg277
I1
sg278
F202.0152199268341
ssI83
(dp446
g8
F0.5017290115356445
sg268
S'./stimfiles/scenes/1033.jpg'
p447
sg270
F204.0
sg271
g321
sg273
I8
sg274
I1
sg275
F1.0
sg263
g276
sg277
I0
sg278
F204.01603507995605
ssI84
(dp448
g8
F0.5280709266662598
sg268
S'./stimfiles/scenes/734.jpg'
p449
sg270
F206.0
sg271
g321
sg273
I8
sg274
I1
sg275
F1.0
sg263
g276
sg277
I0
sg278
F206.01684498786926
ssI85
(dp450
g8
F0.5123839378356934
sg268
S'./stimfiles/scenes/963.jpg'
p451
sg270
F208.0
sg271
g321
sg273
I8
sg274
I1
sg275
F1.0
sg263
g276
sg277
I0
sg278
F208.01761198043823
ssI86
(dp452
g8
F0.5666148662567139
sg268
S'./stimfiles/scenes/734.jpg'
p453
sg270
F210.0
sg271
g321
sg273
I8
sg274
I1
sg275
F1.0
sg263
g276
sg277
I2
sg278
F210.01850605010986
ssI87
(dp454
g8
F0.4848639965057373
sg268
S'./stimfiles/scenes/725.jpg'
p455
sg270
F212.0
sg271
g321
sg273
I8
sg274
I1
sg275
F1.0
sg263
g276
sg277
I0
sg278
F212.01924204826355
ssI88
(dp456
g8
F0.44205379486083984
sg268
S'./stimfiles/scenes/187.jpg'
p457
sg270
F214.0
sg271
g321
sg273
I8
sg274
I1
sg275
F1.0
sg263
g276
sg277
I0
sg278
F214.0200901031494
ssI89
(dp458
g8
F0.7141189575195312
sg268
S'./stimfiles/scenes/725.jpg'
p459
sg270
F216.0
sg271
g321
sg273
I8
sg274
I1
sg275
F1.0
sg263
g276
sg277
I2
sg278
F216.02098393440247
ssI90
(dp460
g8
F0.729362964630127
sg268
S'./stimfiles/scenes/726.jpg'
p461
sg270
F220.0
sg271
g321
sg273
I9
sg274
I2
sg275
F1.0
sg263
g276
sg277
I0
sg278
F220.00589394569397
ssI91
(dp462
g8
F0.8806941509246826
sg268
S'./stimfiles/scenes/726.jpg'
p463
sg270
F222.0
sg271
g321
sg273
I9
sg274
I2
sg275
F1.0
sg263
g276
sg277
I1
sg278
F222.00668692588806
ssI92
(dp464
g8
F0.6007468700408936
sg268
S'./stimfiles/scenes/3122.jpg'
p465
sg270
F224.0
sg271
g321
sg273
I9
sg274
I2
sg275
F1.0
sg263
g276
sg277
I0
sg278
F224.0076060295105
ssI93
(dp466
g8
F0.6332581043243408
sg268
S'./stimfiles/scenes/803.jpg'
p467
sg270
F226.0
sg271
g321
sg273
I9
sg274
I2
sg275
F1.0
sg263
g276
sg277
I0
sg278
F226.00832891464233
ssI94
(dp468
g8
F0.6192660331726074
sg268
S'./stimfiles/scenes/1097.jpg'
p469
sg270
F228.0
sg271
g321
sg273
I9
sg274
I2
sg275
F1.0
sg263
g276
sg277
I0
sg278
F228.00916004180908
ssI95
(dp470
g8
F0.8215539455413818
sg268
S'./stimfiles/scenes/1097.jpg'
p471
sg270
F230.0
sg271
g321
sg273
I9
sg274
I2
sg275
F1.0
sg263
g276
sg277
I1
sg278
F230.0100610256195
ssI96
(dp472
g8
F0.7019178867340088
sg268
S'./stimfiles/scenes/1349.jpg'
p473
sg270
F232.0
sg271
g321
sg273
I9
sg274
I2
sg275
F1.0
sg263
g276
sg277
I0
sg278
F232.01078701019287
ssI97
(dp474
g8
F0.526047945022583
sg268
S'./stimfiles/scenes/1097.jpg'
p475
sg270
F234.0
sg271
g321
sg273
I9
sg274
I2
sg275
F1.0
sg263
g289
sg277
I3
sg278
F234.011656999588
ssI98
(dp476
g8
F0.6603660583496094
sg268
S'./stimfiles/scenes/1349.jpg'
p477
sg270
F236.0
sg271
g321
sg273
I9
sg274
I2
sg275
F1.0
sg263
g289
sg277
I2
sg278
F236.0124340057373
ssI99
(dp478
g268
S'./stimfiles/scenes/1097.jpg'
p479
sg270
F238.0
sg271
g321
sg273
I9
sg274
I2
sg275
F1.0
sg277
I2
sg278
F238.01331901550293
ssI100
(dp480
g8
F0.8520088195800781
sg268
S'./stimfiles/chinese_characters/24754.jpg'
p481
sg270
F242.0
sg271
g272
sg273
I10
sg274
I2
sg275
F1.0
sg263
g276
sg277
I0
sg278
F242.01493310928345
ssI101
(dp482
g8
F0.6833071708679199
sg268
S'./stimfiles/chinese_characters/26549.jpg'
p483
sg270
F244.0
sg271
g272
sg273
I10
sg274
I2
sg275
F1.0
sg263
g276
sg277
I0
sg278
F244.01582193374634
ssI102
(dp484
g8
F0.5844690799713135
sg268
S'./stimfiles/chinese_characters/26331.jpg'
p485
sg270
F246.0
sg271
g272
sg273
I10
sg274
I2
sg275
F1.0
sg263
g276
sg277
I0
sg278
F246.0166449546814
ssI103
(dp486
g8
F0.7377579212188721
sg268
S'./stimfiles/chinese_characters/26331.jpg'
p487
sg270
F248.0
sg271
g272
sg273
I10
sg274
I2
sg275
F1.0
sg263
g276
sg277
I1
sg278
F248.0173740386963
ssI104
(dp488
g8
F0.752910852432251
sg268
S'./stimfiles/chinese_characters/29376.jpg'
p489
sg270
F250.0
sg271
g272
sg273
I10
sg274
I2
sg275
F1.0
sg263
g276
sg277
I0
sg278
F250.01825308799744
ssI105
(dp490
g8
F0.44117093086242676
sg268
S'./stimfiles/chinese_characters/26331.jpg'
p491
sg270
F252.0
sg271
g272
sg273
I10
sg274
I2
sg275
F1.0
sg263
g289
sg277
I3
sg278
F252.019061088562
ssI106
(dp492
g8
F0.6502590179443359
sg268
S'./stimfiles/chinese_characters/26216.jpg'
p493
sg270
F254.0
sg271
g272
sg273
I10
sg274
I2
sg275
F1.0
sg263
g276
sg277
I0
sg278
F254.01988101005554
ssI107
(dp494
g8
F0.7057449817657471
sg268
S'./stimfiles/chinese_characters/26366.jpg'
p495
sg270
F256.0
sg271
g272
sg273
I10
sg274
I2
sg275
F1.0
sg263
g276
sg277
I0
sg278
F256.0206489562988
ssI108
(dp496
g8
F0.6538758277893066
sg268
S'./stimfiles/chinese_characters/26366.jpg'
p497
sg270
F258.0
sg271
g272
sg273
I10
sg274
I2
sg275
F1.0
sg263
g276
sg277
I1
sg278
F258.02151012420654
ssI109
(dp498
g8
F0.6501040458679199
sg268
S'./stimfiles/chinese_characters/25260.jpg'
p499
sg270
F260.0
sg271
g272
sg273
I10
sg274
I2
sg275
F1.0
sg263
g276
sg277
I0
sg278
F260.02248096466064
ssI110
(dp500
g8
F0.556581974029541
sg268
S'./stimfiles/faces/cropped_501.png'
p501
sg270
F264.0
sg271
g300
sg273
I11
sg274
I2
sg275
F1.0
sg263
g276
sg277
I0
sg278
F264.0239369869232
ssI111
(dp502
g8
F0.5297989845275879
sg268
S'./stimfiles/faces/cropped_689.png'
p503
sg270
F266.0
sg271
g300
sg273
I11
sg274
I2
sg275
F1.0
sg263
g276
sg277
I0
sg278
F266.0248510837555
ssI112
(dp504
g8
F0.6981158256530762
sg268
S'./stimfiles/faces/cropped_213.png'
p505
sg270
F268.0
sg271
g300
sg273
I11
sg274
I2
sg275
F1.0
sg263
g276
sg277
I0
sg278
F268.02561211586
ssI113
(dp506
g8
F0.501270055770874
sg268
S'./stimfiles/faces/cropped_689.png'
p507
sg270
F270.0
sg271
g300
sg273
I11
sg274
I2
sg275
F1.0
sg263
g289
sg277
I2
sg278
F270.0264139175415
ssI114
(dp508
g8
F0.6739320755004883
sg268
S'./stimfiles/faces/cropped_180.png'
p509
sg270
F272.0
sg271
g300
sg273
I11
sg274
I2
sg275
F1.0
sg263
g289
sg277
I0
sg278
F272.0107309818268
ssI115
(dp510
g8
F0.7174999713897705
sg268
S'./stimfiles/faces/cropped_m-093-01.png'
p511
sg270
F274.0
sg271
g300
sg273
I11
sg274
I2
sg275
F1.0
sg263
g276
sg277
I0
sg278
F274.01137804985046
ssI116
(dp512
g8
F0.7746310234069824
sg268
S'./stimfiles/faces/cropped_214.png'
p513
sg270
F276.0
sg271
g300
sg273
I11
sg274
I2
sg275
F1.0
sg263
g276
sg277
I0
sg278
F276.01223397254944
ssI117
(dp514
g8
F0.650933027267456
sg268
S'./stimfiles/faces/cropped_44MVC-003F.png'
p515
sg270
F278.0
sg271
g300
sg273
I11
sg274
I2
sg275
F1.0
sg263
g276
sg277
I0
sg278
F278.013032913208
ssI118
(dp516
g8
F0.7262101173400879
sg268
S'./stimfiles/faces/cropped_m-093-01.png'
p517
sg270
F280.0
sg271
g300
sg273
I11
sg274
I2
sg275
F1.0
sg263
g289
sg277
I3
sg278
F280.0138409137726
ssI119
(dp518
g8
F0.6234910488128662
sg268
S'./stimfiles/faces/cropped_m-093-01.png'
p519
sg270
F282.0
sg271
g300
sg273
I11
sg274
I2
sg275
F1.0
sg263
g289
sg277
I1
sg278
F282.01464891433716
ssI120
(dp520
g8
F0.4691658020019531
sg268
S'./stimfiles/chinese_characters/26009.jpg'
p521
sg270
F306.0
sg271
g272
sg273
I12
sg274
I1
sg275
F1.0
sg263
g276
sg277
I0
sg278
F306.0246090888977
ssI121
(dp522
g8
F0.4942939281463623
sg268
S'./stimfiles/chinese_characters/24954.jpg'
p523
sg270
F308.0
sg271
g272
sg273
I12
sg274
I1
sg275
F1.0
sg263
g276
sg277
I0
sg278
F308.0254011154175
ssI122
(dp524
g8
F0.5457420349121094
sg268
S'./stimfiles/chinese_characters/24954.jpg'
p525
sg270
F310.0
sg271
g272
sg273
I12
sg274
I1
sg275
F1.0
sg263
g289
sg277
I1
sg278
F310.0262200832367
ssI123
(dp526
g8
F0.5736181735992432
sg268
S'./stimfiles/chinese_characters/24954.jpg'
p527
sg270
F312.0
sg271
g272
sg273
I12
sg274
I1
sg275
F1.0
sg263
g289
sg277
I1
sg278
F312.0103569030762
ssI124
(dp528
g8
F0.4696979522705078
sg268
S'./stimfiles/chinese_characters/24845.jpg'
p529
sg270
F314.0
sg271
g272
sg273
I12
sg274
I1
sg275
F1.0
sg263
g276
sg277
I0
sg278
F314.0112090110779
ssI125
(dp530
g8
F0.7380540370941162
sg268
S'./stimfiles/chinese_characters/25708.jpg'
p531
sg270
F316.0
sg271
g272
sg273
I12
sg274
I1
sg275
F1.0
sg263
g276
sg277
I0
sg278
F316.01199889183044
ssI126
(dp532
g8
F0.7733991146087646
sg268
S'./stimfiles/chinese_characters/24845.jpg'
p533
sg270
F318.0
sg271
g272
sg273
I12
sg274
I1
sg275
F1.0
sg263
g276
sg277
I2
sg278
F318.01277589797974
ssI127
(dp534
g8
F0.49234604835510254
sg268
S'./stimfiles/chinese_characters/24845.jpg'
p535
sg270
F320.0
sg271
g272
sg273
I12
sg274
I1
sg275
F1.0
sg263
g276
sg277
I1
sg278
F320.01368403434753
ssI128
(dp536
g8
F0.5617959499359131
sg268
S'./stimfiles/chinese_characters/20767.jpg'
p537
sg270
F322.0
sg271
g272
sg273
I12
sg274
I1
sg275
F1.0
sg263
g276
sg277
I0
sg278
F322.0144181251526
ssI129
(dp538
g8
F0.56585693359375
sg268
S'./stimfiles/chinese_characters/25425.jpg'
p539
sg270
F324.0
sg271
g272
sg273
I12
sg274
I1
sg275
F1.0
sg263
g276
sg277
I0
sg278
F324.01530599594116
ssI130
(dp540
g8
F0.802513837814331
sg268
S'./stimfiles/faces/cropped_49.png'
p541
sg270
F328.0
sg271
g300
sg273
I13
sg274
I1
sg275
F1.0
sg263
g276
sg277
I0
sg278
F328.01691007614136
ssI131
(dp542
g8
F0.46672582626342773
sg268
S'./stimfiles/faces/cropped_910.png'
p543
sg270
F330.0
sg271
g300
sg273
I13
sg274
I1
sg275
F1.0
sg263
g276
sg277
I0
sg278
F330.0177540779114
ssI132
(dp544
g8
F0.6349940299987793
sg268
S'./stimfiles/faces/cropped_mvc-010f.png'
p545
sg270
F332.0
sg271
g300
sg273
I13
sg274
I1
sg275
F1.0
sg263
g276
sg277
I0
sg278
F332.0185809135437
ssI133
(dp546
g8
F0.5131840705871582
sg268
S'./stimfiles/faces/cropped_867.png'
p547
sg270
F334.0
sg271
g300
sg273
I13
sg274
I1
sg275
F1.0
sg263
g276
sg277
I0
sg278
F334.0194149017334
ssI134
(dp548
g8
F0.5482931137084961
sg268
S'./stimfiles/faces/cropped_f4002.png'
p549
sg270
F336.0
sg271
g300
sg273
I13
sg274
I1
sg275
F1.0
sg263
g276
sg277
I0
sg278
F336.02026200294495
ssI135
(dp550
g8
F0.6057388782501221
sg268
S'./stimfiles/faces/cropped_f15v1e1.png'
p551
sg270
F338.0
sg271
g300
sg273
I13
sg274
I1
sg275
F1.0
sg263
g276
sg277
I0
sg278
F338.0210111141205
ssI136
(dp552
g8
F0.6699798107147217
sg268
S'./stimfiles/faces/cropped_m4072.png'
p553
sg270
F340.0
sg271
g300
sg273
I13
sg274
I1
sg275
F1.0
sg263
g276
sg277
I0
sg278
F340.02181911468506
ssI137
(dp554
g8
F0.44013404846191406
sg268
S'./stimfiles/faces/cropped_m4072.png'
p555
sg270
F342.0
sg271
g300
sg273
I13
sg274
I1
sg275
F1.0
sg263
g289
sg277
I1
sg278
F342.0226819515228
ssI138
(dp556
g8
F0.6444189548492432
sg268
S'./stimfiles/faces/cropped_m4072.png'
p557
sg270
F344.0
sg271
g300
sg273
I13
sg274
I1
sg275
F1.0
sg263
g289
sg277
I1
sg278
F344.0234580039978
ssI139
(dp558
g8
F0.6116888523101807
sg268
S'./stimfiles/faces/cropped_108MVC-003F.png'
p559
sg270
F346.0
sg271
g300
sg273
I13
sg274
I1
sg275
F1.0
sg263
g276
sg277
I0
sg278
F346.0243010520935
ssI140
(dp560
g8
F0.6877899169921875
sg268
S'./stimfiles/scenes/645.jpg'
p561
sg270
F350.0
sg271
g321
sg273
I14
sg274
I1
sg275
F1.0
sg263
g276
sg277
I0
sg278
F350.00924706459045
ssI141
(dp562
g8
F0.49222803115844727
sg268
S'./stimfiles/scenes/1069.jpg'
p563
sg270
F352.0
sg271
g321
sg273
I14
sg274
I1
sg275
F1.0
sg263
g276
sg277
I0
sg278
F352.0100839138031
ssI142
(dp564
g8
F0.5610790252685547
sg268
S'./stimfiles/scenes/654.jpg'
p565
sg270
F354.0
sg271
g321
sg273
I14
sg274
I1
sg275
F1.0
sg263
g276
sg277
I0
sg278
F354.0108780860901
ssI143
(dp566
g8
F0.5373461246490479
sg268
S'./stimfiles/scenes/178.jpg'
p567
sg270
F356.0
sg271
g321
sg273
I14
sg274
I1
sg275
F1.0
sg263
g276
sg277
I0
sg278
F356.0117259025574
ssI144
(dp568
g8
F0.42471981048583984
sg268
S'./stimfiles/scenes/178.jpg'
p569
sg270
F358.0
sg271
g321
sg273
I14
sg274
I1
sg275
F1.0
sg263
g289
sg277
I1
sg278
F358.01253509521484
ssI145
(dp570
g8
F0.5819249153137207
sg268
S'./stimfiles/scenes/654.jpg'
p571
sg270
F360.0
sg271
g321
sg273
I14
sg274
I1
sg275
F1.0
sg263
g276
sg277
I3
sg278
F360.0134000778198
ssI146
(dp572
g8
F0.5462429523468018
sg268
S'./stimfiles/scenes/3043.jpg'
p573
sg270
F362.0
sg271
g321
sg273
I14
sg274
I1
sg275
F1.0
sg263
g276
sg277
I0
sg278
F362.01419496536255
ssI147
(dp574
g8
F0.5913810729980469
sg268
S'./stimfiles/scenes/799.jpg'
p575
sg270
F364.0
sg271
g321
sg273
I14
sg274
I1
sg275
F1.0
sg263
g276
sg277
I0
sg278
F364.01508498191833
ssI148
(dp576
g8
F0.5317308902740479
sg268
S'./stimfiles/scenes/799.jpg'
p577
sg270
F366.0
sg271
g321
sg273
I14
sg274
I1
sg275
F1.0
sg263
g276
sg277
I1
sg278
F366.01591300964355
ssI149
(dp578
g8
F0.573850154876709
sg268
S'./stimfiles/scenes/799.jpg'
p579
sg270
F368.0
sg271
g321
sg273
I14
sg274
I1
sg275
F1.0
sg263
g289
sg277
I1
sg278
F368.01671290397644
ssI150
(dp580
g8
F0.7373600006103516
sg268
S'./stimfiles/scenes/897.jpg'
p581
sg270
F372.0
sg271
g321
sg273
I15
sg274
I2
sg275
F1.0
sg263
g276
sg277
I0
sg278
F372.0183279514313
ssI151
(dp582
g8
F0.6015841960906982
sg268
S'./stimfiles/scenes/1811.jpg'
p583
sg270
F374.0
sg271
g321
sg273
I15
sg274
I2
sg275
F1.0
sg263
g276
sg277
I0
sg278
F374.01916790008545
ssI152
(dp584
g8
F0.7078418731689453
sg268
S'./stimfiles/scenes/897.jpg'
p585
sg270
F376.0
sg271
g321
sg273
I15
sg274
I2
sg275
F1.0
sg263
g289
sg277
I2
sg278
F376.01993703842163
ssI153
(dp586
g8
F0.45502495765686035
sg268
S'./stimfiles/scenes/419.jpg'
p587
sg270
F378.0
sg271
g321
sg273
I15
sg274
I2
sg275
F1.0
sg263
g276
sg277
I0
sg278
F378.02082204818726
ssI154
(dp588
g8
F0.6772580146789551
sg268
S'./stimfiles/scenes/1415.jpg'
p589
sg270
F380.0
sg271
g321
sg273
I15
sg274
I2
sg275
F1.0
sg263
g276
sg277
I0
sg278
F380.02156496047974
ssI155
(dp590
g8
F0.7126619815826416
sg268
S'./stimfiles/scenes/108.jpg'
p591
sg270
F382.0
sg271
g321
sg273
I15
sg274
I2
sg275
F1.0
sg263
g276
sg277
I0
sg278
F382.02245807647705
ssI156
(dp592
g8
F0.7587368488311768
sg268
S'./stimfiles/scenes/1339.jpg'
p593
sg270
F384.0
sg271
g321
sg273
I15
sg274
I2
sg275
F1.0
sg263
g276
sg277
I0
sg278
F384.0232710838318
ssI157
(dp594
g8
F0.8826160430908203
sg268
S'./stimfiles/scenes/1415.jpg'
p595
sg270
F386.0
sg271
g321
sg273
I15
sg274
I2
sg275
F1.0
sg263
g276
sg277
I3
sg278
F386.00745391845703
ssI158
(dp596
g8
F0.7439019680023193
sg268
S'./stimfiles/scenes/1415.jpg'
p597
sg270
F388.0
sg271
g321
sg273
I15
sg274
I2
sg275
F1.0
sg263
g276
sg277
I1
sg278
F388.00824308395386
ssI159
(dp598
g8
F0.8000569343566895
sg268
S'./stimfiles/scenes/3027.jpg'
p599
sg270
F390.0
sg271
g321
sg273
I15
sg274
I2
sg275
F1.0
sg263
g276
sg277
I0
sg278
F390.00901198387146
ssI160
(dp600
g8
F0.5278260707855225
sg268
S'./stimfiles/chinese_characters/25712.jpg'
p601
sg270
F394.0
sg271
g272
sg273
I16
sg274
I2
sg275
F1.0
sg263
g276
sg277
I0
sg278
F394.027410030365
ssI161
(dp602
g8
F0.6879818439483643
sg268
S'./stimfiles/chinese_characters/26148.jpg'
p603
sg270
F396.0
sg271
g272
sg273
I16
sg274
I2
sg275
F1.0
sg263
g276
sg277
I0
sg278
F396.0115420818329
ssI162
(dp604
g8
F0.8570661544799805
sg268
S'./stimfiles/chinese_characters/30303.jpg'
p605
sg270
F398.0
sg271
g272
sg273
I16
sg274
I2
sg275
F1.0
sg263
g276
sg277
I0
sg278
F398.01234793663025
ssI163
(dp606
g8
F0.6923258304595947
sg268
S'./stimfiles/chinese_characters/32028.jpg'
p607
sg270
F400.0
sg271
g272
sg273
I16
sg274
I2
sg275
F1.0
sg263
g276
sg277
I0
sg278
F400.0131781101227
ssI164
(dp608
g8
F0.45563197135925293
sg268
S'./stimfiles/chinese_characters/30303.jpg'
p609
sg270
F402.0
sg271
g272
sg273
I16
sg274
I2
sg275
F1.0
sg263
g289
sg277
I2
sg278
F402.0139889717102
ssI165
(dp610
g8
F0.7077028751373291
sg268
S'./stimfiles/chinese_characters/32028.jpg'
p611
sg270
F404.0
sg271
g272
sg273
I16
sg274
I2
sg275
F1.0
sg263
g289
sg277
I2
sg278
F404.01483702659607
ssI166
(dp612
g8
F0.8271288871765137
sg268
S'./stimfiles/chinese_characters/32028.jpg'
p613
sg270
F406.0
sg271
g272
sg273
I16
sg274
I2
sg275
F1.0
sg263
g276
sg277
I1
sg278
F406.0156440734863
ssI167
(dp614
g8
F0.7911770343780518
sg268
S'./stimfiles/chinese_characters/30303.jpg'
p615
sg270
F408.0
sg271
g272
sg273
I16
sg274
I2
sg275
F1.0
sg263
g276
sg277
I3
sg278
F408.0164439678192
ssI168
(dp616
g8
F0.7704579830169678
sg268
S'./stimfiles/chinese_characters/25847.jpg'
p617
sg270
F410.0
sg271
g272
sg273
I16
sg274
I2
sg275
F1.0
sg263
g276
sg277
I0
sg278
F410.0173189640045
ssI169
(dp618
g8
F0.7048540115356445
sg268
S'./stimfiles/chinese_characters/26032.jpg'
p619
sg270
F412.0
sg271
g272
sg273
I16
sg274
I2
sg275
F1.0
sg263
g276
sg277
I0
sg278
F412.01810789108276
ssI170
(dp620
g8
F0.6672852039337158
sg268
S'./stimfiles/faces/cropped_1036.png'
p621
sg270
F416.0
sg271
g300
sg273
I17
sg274
I2
sg275
F1.0
sg263
g276
sg277
I0
sg278
F416.01970291137695
ssI171
(dp622
g8
F0.7744269371032715
sg268
S'./stimfiles/faces/cropped_957.png'
p623
sg270
F418.0
sg271
g300
sg273
I17
sg274
I2
sg275
F1.0
sg263
g276
sg277
I0
sg278
F418.02059507369995
ssI172
(dp624
g8
F0.7186851501464844
sg268
S'./stimfiles/faces/cropped_53.png'
p625
sg270
F420.0
sg271
g300
sg273
I17
sg274
I2
sg275
F1.0
sg263
g276
sg277
I0
sg278
F420.0214259624481
ssI173
(dp626
g8
F0.9599618911743164
sg268
S'./stimfiles/faces/cropped_700.png'
p627
sg270
F422.0
sg271
g300
sg273
I17
sg274
I2
sg275
F1.0
sg263
g276
sg277
I0
sg278
F422.02215600013733
ssI174
(dp628
g8
F0.920170783996582
sg268
S'./stimfiles/faces/cropped_00011015.png'
p629
sg270
F424.0
sg271
g300
sg273
I17
sg274
I2
sg275
F1.0
sg263
g276
sg277
I0
sg278
F424.02297711372375
ssI175
(dp630
g8
F0.6875121593475342
sg268
S'./stimfiles/faces/cropped_53.png'
p631
sg270
F426.0
sg271
g300
sg273
I17
sg274
I2
sg275
F1.0
sg263
g276
sg277
I3
sg278
F426.02376794815063
ssI176
(dp632
g8
F0.5115830898284912
sg268
S'./stimfiles/faces/cropped_00011015.png'
p633
sg270
F428.0
sg271
g300
sg273
I17
sg274
I2
sg275
F1.0
sg263
g289
sg277
I2
sg278
F428.02467799186707
ssI177
(dp634
g8
F0.7837710380554199
sg268
S'./stimfiles/faces/cropped_00011015.png'
p635
sg270
F430.0
sg271
g300
sg273
I17
sg274
I2
sg275
F1.0
sg263
g276
sg277
I1
sg278
F430.02550506591797
ssI178
(dp636
g8
F0.7792198657989502
sg268
S'./stimfiles/faces/cropped_00261015.png'
p637
sg270
F432.0
sg271
g300
sg273
I17
sg274
I2
sg275
F1.0
sg263
g276
sg277
I0
sg278
F432.0262451171875
ssI179
(dp638
g268
S'./stimfiles/faces/cropped_00011015.png'
p639
sg270
F434.0
sg271
g300
sg273
I17
sg274
I2
sg275
F1.0
sg277
I3
sg278
F434.0271270275116
sssS'stim_log'
p640
(dp641
sS'nstims'
p642
I5
sS'inter_stim_int'
p643
F1.0
sS'SS'
p644
(dp645
sS'inst_time'
p646
F1.0
sS'broke_on_trial'
p647
(dp648
sS'events'
p649
(lp650
(lp651
F0.0
aI0
aI1
aI0
aS'inst'
p652
aa(lp653
F2.0
aI0
aI1
aI0
ag269
aa(lp654
F4.0
aI0
aI1
aI0
ag280
aa(lp655
F6.0
aI0
aI1
aI0
ag282
aa(lp656
F8.0
aI0
aI1
aI2
ag284
aa(lp657
F10.0
aI0
aI1
aI0
ag286
aa(lp658
F12.0
aI0
aI1
aI1
ag288
aa(lp659
F14.0
aI0
aI1
aI3
ag291
aa(lp660
F16.0
aI0
aI1
aI0
ag293
aa(lp661
F18.0
aI0
aI1
aI3
ag295
aa(lp662
F20.0
aI0
aI1
aI1
ag297
aa(lp663
F22.0
aI1
aI1
aI0
aS'inst'
p664
aa(lp665
F24.0
aI1
aI1
aI0
ag299
aa(lp666
F26.0
aI1
aI1
aI0
ag302
aa(lp667
F28.0
aI1
aI1
aI2
ag304
aa(lp668
F30.0
aI1
aI1
aI0
ag306
aa(lp669
F32.0
aI1
aI1
aI0
ag308
aa(lp670
F34.0
aI1
aI1
aI1
ag310
aa(lp671
F36.0
aI1
aI1
aI3
ag312
aa(lp672
F38.0
aI1
aI1
aI3
ag314
aa(lp673
F40.0
aI1
aI1
aI2
ag316
aa(lp674
F42.0
aI1
aI1
aI0
ag318
aa(lp675
F44.0
aI2
aI1
aI0
aS'inst'
p676
aa(lp677
F46.0
aI2
aI1
aI0
ag320
aa(lp678
F48.0
aI2
aI1
aI0
ag323
aa(lp679
F50.0
aI2
aI1
aI0
ag325
aa(lp680
F52.0
aI2
aI1
aI0
ag327
aa(lp681
F54.0
aI2
aI1
aI3
ag329
aa(lp682
F56.0
aI2
aI1
aI1
ag331
aa(lp683
F58.0
aI2
aI1
aI0
ag333
aa(lp684
F60.0
aI2
aI1
aI0
ag335
aa(lp685
F62.0
aI2
aI1
aI3
ag337
aa(lp686
F64.0
aI2
aI1
aI2
ag339
aa(lp687
F66.0
aI3
aI2
aI0
aS'inst'
p688
aa(lp689
F68.0
aI3
aI2
aI0
ag341
aa(lp690
F70.0
aI3
aI2
aI0
ag343
aa(lp691
F72.0
aI3
aI2
aI2
ag345
aa(lp692
F74.0
aI3
aI2
aI0
ag347
aa(lp693
F76.0
aI3
aI2
aI2
ag349
aa(lp694
F78.0
aI3
aI2
aI0
ag351
aa(lp695
F80.0
aI3
aI2
aI3
ag353
aa(lp696
F82.0
aI3
aI2
aI2
ag355
aa(lp697
F84.0
aI3
aI2
aI0
ag357
aa(lp698
F86.0
aI3
aI2
aI0
ag359
aa(lp699
F88.0
aI4
aI2
aI0
aS'inst'
p700
aa(lp701
F90.0
aI4
aI2
aI0
ag361
aa(lp702
F92.0
aI4
aI2
aI0
ag363
aa(lp703
F94.0
aI4
aI2
aI2
ag365
aa(lp704
F96.0
aI4
aI2
aI0
ag367
aa(lp705
F98.0
aI4
aI2
aI0
ag369
aa(lp706
F100.0
aI4
aI2
aI2
ag371
aa(lp707
F102.0
aI4
aI2
aI2
ag373
aa(lp708
F104.0
aI4
aI2
aI2
ag375
aa(lp709
F106.0
aI4
aI2
aI0
ag377
aa(lp710
F108.0
aI4
aI2
aI3
ag379
aa(lp711
F110.0
aI5
aI2
aI0
aS'inst'
p712
aa(lp713
F112.0
aI5
aI2
aI0
ag381
aa(lp714
F114.0
aI5
aI2
aI1
ag383
aa(lp715
F116.0
aI5
aI2
aI0
ag385
aa(lp716
F118.0
aI5
aI2
aI2
ag387
aa(lp717
F120.0
aI5
aI2
aI2
ag389
aa(lp718
F122.0
aI5
aI2
aI0
ag391
aa(lp719
F124.0
aI5
aI2
aI0
ag393
aa(lp720
F126.0
aI5
aI2
aI0
ag395
aa(lp721
F128.0
aI5
aI2
aI2
ag397
aa(lp722
F130.0
aI5
aI2
aI2
ag399
aa(lp723
F152.0
aI0
aI1
aI0
aS'inst'
p724
aa(lp725
F154.0
aI6
aI1
aI0
ag401
aa(lp726
F156.0
aI6
aI1
aI0
ag403
aa(lp727
F158.0
aI6
aI1
aI0
ag405
aa(lp728
F160.0
aI6
aI1
aI0
ag407
aa(lp729
F162.0
aI6
aI1
aI0
ag409
aa(lp730
F164.0
aI6
aI1
aI1
ag411
aa(lp731
F166.0
aI6
aI1
aI0
ag413
aa(lp732
F168.0
aI6
aI1
aI3
ag415
aa(lp733
F170.0
aI6
aI1
aI2
ag417
aa(lp734
F172.0
aI6
aI1
aI0
ag419
aa(lp735
F174.0
aI1
aI1
aI0
aS'inst'
p736
aa(lp737
F176.0
aI7
aI1
aI0
ag421
aa(lp738
F178.0
aI7
aI1
aI0
ag423
aa(lp739
F180.0
aI7
aI1
aI0
ag425
aa(lp740
F182.0
aI7
aI1
aI1
ag427
aa(lp741
F184.0
aI7
aI1
aI1
ag429
aa(lp742
F186.0
aI7
aI1
aI1
ag431
aa(lp743
F188.0
aI7
aI1
aI3
ag433
aa(lp744
F190.0
aI7
aI1
aI0
ag435
aa(lp745
F192.0
aI7
aI1
aI2
ag437
aa(lp746
F194.0
aI7
aI1
aI0
ag439
aa(lp747
F196.0
aI2
aI1
aI0
aS'inst'
p748
aa(lp749
F198.0
aI8
aI1
aI0
ag441
aa(lp750
F200.0
aI8
aI1
aI1
ag443
aa(lp751
F202.0
aI8
aI1
aI1
ag445
aa(lp752
F204.0
aI8
aI1
aI0
ag447
aa(lp753
F206.0
aI8
aI1
aI0
ag449
aa(lp754
F208.0
aI8
aI1
aI0
ag451
aa(lp755
F210.0
aI8
aI1
aI2
ag453
aa(lp756
F212.0
aI8
aI1
aI0
ag455
aa(lp757
F214.0
aI8
aI1
aI0
ag457
aa(lp758
F216.0
aI8
aI1
aI2
ag459
aa(lp759
F218.0
aI3
aI2
aI0
aS'inst'
p760
aa(lp761
F220.0
aI9
aI2
aI0
ag461
aa(lp762
F222.0
aI9
aI2
aI1
ag463
aa(lp763
F224.0
aI9
aI2
aI0
ag465
aa(lp764
F226.0
aI9
aI2
aI0
ag467
aa(lp765
F228.0
aI9
aI2
aI0
ag469
aa(lp766
F230.0
aI9
aI2
aI1
ag471
aa(lp767
F232.0
aI9
aI2
aI0
ag473
aa(lp768
F234.0
aI9
aI2
aI3
ag475
aa(lp769
F236.0
aI9
aI2
aI2
ag477
aa(lp770
F238.0
aI9
aI2
aI2
ag479
aa(lp771
F240.0
aI4
aI2
aI0
aS'inst'
p772
aa(lp773
F242.0
aI10
aI2
aI0
ag481
aa(lp774
F244.0
aI10
aI2
aI0
ag483
aa(lp775
F246.0
aI10
aI2
aI0
ag485
aa(lp776
F248.0
aI10
aI2
aI1
ag487
aa(lp777
F250.0
aI10
aI2
aI0
ag489
aa(lp778
F252.0
aI10
aI2
aI3
ag491
aa(lp779
F254.0
aI10
aI2
aI0
ag493
aa(lp780
F256.0
aI10
aI2
aI0
ag495
aa(lp781
F258.0
aI10
aI2
aI1
ag497
aa(lp782
F260.0
aI10
aI2
aI0
ag499
aa(lp783
F262.0
aI5
aI2
aI0
aS'inst'
p784
aa(lp785
F264.0
aI11
aI2
aI0
ag501
aa(lp786
F266.0
aI11
aI2
aI0
ag503
aa(lp787
F268.0
aI11
aI2
aI0
ag505
aa(lp788
F270.0
aI11
aI2
aI2
ag507
aa(lp789
F272.0
aI11
aI2
aI0
ag509
aa(lp790
F274.0
aI11
aI2
aI0
ag511
aa(lp791
F276.0
aI11
aI2
aI0
ag513
aa(lp792
F278.0
aI11
aI2
aI0
ag515
aa(lp793
F280.0
aI11
aI2
aI3
ag517
aa(lp794
F282.0
aI11
aI2
aI1
ag519
aa(lp795
F304.0
aI0
aI1
aI0
aS'inst'
p796
aa(lp797
F306.0
aI12
aI1
aI0
ag521
aa(lp798
F308.0
aI12
aI1
aI0
ag523
aa(lp799
F310.0
aI12
aI1
aI1
ag525
aa(lp800
F312.0
aI12
aI1
aI1
ag527
aa(lp801
F314.0
aI12
aI1
aI0
ag529
aa(lp802
F316.0
aI12
aI1
aI0
ag531
aa(lp803
F318.0
aI12
aI1
aI2
ag533
aa(lp804
F320.0
aI12
aI1
aI1
ag535
aa(lp805
F322.0
aI12
aI1
aI0
ag537
aa(lp806
F324.0
aI12
aI1
aI0
ag539
aa(lp807
F326.0
aI1
aI1
aI0
aS'inst'
p808
aa(lp809
F328.0
aI13
aI1
aI0
ag541
aa(lp810
F330.0
aI13
aI1
aI0
ag543
aa(lp811
F332.0
aI13
aI1
aI0
ag545
aa(lp812
F334.0
aI13
aI1
aI0
ag547
aa(lp813
F336.0
aI13
aI1
aI0
ag549
aa(lp814
F338.0
aI13
aI1
aI0
ag551
aa(lp815
F340.0
aI13
aI1
aI0
ag553
aa(lp816
F342.0
aI13
aI1
aI1
ag555
aa(lp817
F344.0
aI13
aI1
aI1
ag557
aa(lp818
F346.0
aI13
aI1
aI0
ag559
aa(lp819
F348.0
aI2
aI1
aI0
aS'inst'
p820
aa(lp821
F350.0
aI14
aI1
aI0
ag561
aa(lp822
F352.0
aI14
aI1
aI0
ag563
aa(lp823
F354.0
aI14
aI1
aI0
ag565
aa(lp824
F356.0
aI14
aI1
aI0
ag567
aa(lp825
F358.0
aI14
aI1
aI1
ag569
aa(lp826
F360.0
aI14
aI1
aI3
ag571
aa(lp827
F362.0
aI14
aI1
aI0
ag573
aa(lp828
F364.0
aI14
aI1
aI0
ag575
aa(lp829
F366.0
aI14
aI1
aI1
ag577
aa(lp830
F368.0
aI14
aI1
aI1
ag579
aa(lp831
F370.0
aI3
aI2
aI0
aS'inst'
p832
aa(lp833
F372.0
aI15
aI2
aI0
ag581
aa(lp834
F374.0
aI15
aI2
aI0
ag583
aa(lp835
F376.0
aI15
aI2
aI2
ag585
aa(lp836
F378.0
aI15
aI2
aI0
ag587
aa(lp837
F380.0
aI15
aI2
aI0
ag589
aa(lp838
F382.0
aI15
aI2
aI0
ag591
aa(lp839
F384.0
aI15
aI2
aI0
ag593
aa(lp840
F386.0
aI15
aI2
aI3
ag595
aa(lp841
F388.0
aI15
aI2
aI1
ag597
aa(lp842
F390.0
aI15
aI2
aI0
ag599
aa(lp843
F392.0
aI4
aI2
aI0
aS'inst'
p844
aa(lp845
F394.0
aI16
aI2
aI0
ag601
aa(lp846
F396.0
aI16
aI2
aI0
ag603
aa(lp847
F398.0
aI16
aI2
aI0
ag605
aa(lp848
F400.0
aI16
aI2
aI0
ag607
aa(lp849
F402.0
aI16
aI2
aI2
ag609
aa(lp850
F404.0
aI16
aI2
aI2
ag611
aa(lp851
F406.0
aI16
aI2
aI1
ag613
aa(lp852
F408.0
aI16
aI2
aI3
ag615
aa(lp853
F410.0
aI16
aI2
aI0
ag617
aa(lp854
F412.0
aI16
aI2
aI0
ag619
aa(lp855
F414.0
aI5
aI2
aI0
aS'inst'
p856
aa(lp857
F416.0
aI17
aI2
aI0
ag621
aa(lp858
F418.0
aI17
aI2
aI0
ag623
aa(lp859
F420.0
aI17
aI2
aI0
ag625
aa(lp860
F422.0
aI17
aI2
aI0
ag627
aa(lp861
F424.0
aI17
aI2
aI0
ag629
aa(lp862
F426.0
aI17
aI2
aI3
ag631
aa(lp863
F428.0
aI17
aI2
aI2
ag633
aa(lp864
F430.0
aI17
aI2
aI1
ag635
aa(lp865
F432.0
aI17
aI2
aI0
ag637
aa(lp866
F434.0
aI17
aI2
aI3
ag639
aasS'is_this_SS_trial'
p867
(dp868
sS'subcode'
p869
S'self-tracking_0029'
p870
sS'start_key'
p871
S'5'
p872
s.