(dp0
S'stim_onset_time'
p1
(dp2
sS'datestamp'
p3
S'2012-11-15-07_50_00'
p4
sS'ntrials_per_block'
p5
I6
sS'expt_title'
p6
S'Self_Tracking'
p7
sS'rt'
p8
(dp9
sS'simulated_response'
p10
I00
sS'script'
p11
(lp12
S'#!/usr/bin/env python\n'
p13
aS'\n'
p14
aS'import psychopy\n'
p15
aS'from psychopy import visual, core, event, logging, data, misc, sound\n'
p16
aS'import numpy as N\n'
p17
aS'import pickle,csv\n'
p18
aS'import datetime\n'
p19
aS'import sys\n'
p20
aS'import os, socket, random\n'
p21
aS'import inspect\n'
p22
aS'import hashlib\n'
p23
aS'from socket import gethostname\n'
p24
aS'import exptutils\n'
p25
aS'from exptutils import *\n'
p26
aS'from pylab import imread\n'
p27
ag14
aS'try:\n'
p28
aS'    from save_data_to_db import *\n'
p29
aS'    save_data=1\n'
p30
aS'except:\n'
p31
aS"    print 'cannnot import save_data_to_db'\n"
p32
aS'    save_data=0\n'
p33
ag14
aS'def store_scriptfile():\n'
p34
aS'    scriptfile= inspect.getfile(inspect.currentframe())# save a copy of the script in the data file\n'
p35
aS'    f=open(scriptfile)\n'
p36
aS'    script=f.readlines()\n'
p37
aS'    f.close()\n'
p38
aS'    return script\n'
p39
ag14
aS'#\n'
p40
aS'#- - - - - - - - - - - - - - - - - - - - - - - - - - - - - - - - - - - - - - - - - - - - - - - - - - - - - - - - - - - - - - - - - - - - - - - - - - - - - -\n'
p41
aS'#define functions for awaiting keyboard input & displaying initial instructions\n'
p42
aS'#these functions will be called prior to the stim_block() function (at bottom)\n'
p43
ag14
aS'def wait_for_trigger():\n'
p44
aS'    event.clearEvents()\n'
p45
aS"    if subdata['simulated_response']:\n"
p46
aS'        msg="SIMULATION MODE"\n'
p47
aS'    else:\n'
p48
aS"        msg=''\n"
p49
aS"    message=visual.TextStim(win, text='%s Waiting for start key (or press %s)'%(msg,subdata['start_key']),\n"
p50
aS"    font='BiauKai', height=1,color=u'white', colorSpace=u'rgb', opacity=1,depth=0.0,\n"
p51
aS"    alignHoriz='center',wrapWidth=50)\n"
p52
aS'    message.setAutoDraw(True) #automatically draw every frame\n'
p53
aS'    win.flip()\n'
p54
aS'    start=False\n'
p55
aS'    while start==False:\n'
p56
aS'        k=event.waitKeys()\n'
p57
aS"        if k.count(subdata['start_key'])>0:#as soon as subdata['start_key'] is pressed...\n"
p58
aS'            start=True\n'
p59
aS"            message.setText('')#this clears the screen\n"
p60
aS'            win.flip()\n'
p61
aS"        if k.count(subdata['quit_key']) >0:# if subdata['quit_key'] is pressed...\n"
p62
aS'            exptutils.shut_down_cleanly(subdata,win)\n'
p63
aS'            return subdata\n'
p64
aS'            \n'
p65
aS"def instructions(n,duration):#n here changes depending on the n-back level; yes/no will also switch between 'u' & 'i' keys depending on the Order number selected\n"
p66
aS'    event.clearEvents()\n'
p67
aS"    instructions=visual.TextStim(win=win, ori=0, name='instructions',font='BiauKai',\n"
p68
aS"        text='%d back'%n,\n"
p69
aS"        height=2,color=u'white', colorSpace=u'rgb', alignHoriz='center',wrapWidth=50)\n"
p70
aS'    instructions.setAutoDraw(True)\n'
p71
aS'    win.flip()\n'
p72
aS'    core.wait(duration)#currently it is set up to keep instructions on screen the designated amt of time; a button press will not end these instructions sooner\n'
p73
aS"    instructions.setText('')\n"
p74
aS'    win.flip()\n'
p75
ag14
aS'#- - - - - - - - - - - - - - - - - - - - - - - - - - - - - - - - - - - - - - - - - - - - - - - - - - - - - - - - - - - - - - - - - - - - - - - - \n'
p76
ag14
ag14
aS'#define function for displaying visual stims for each trial on n-back task\n'
p77
ag14
aS'def draw_stim(win,event_info,subdata,visual_stim):\n'
p78
aS'    trialdata={}\n'
p79
aS"    trialdata['duration']=subdata['stim_dur']\n"
p80
aS"    trialdata['onset'],trialdata['block'],trialdata['nback'],trialdata['match'],trialdata['stim']=event_info\n"
p81
aS'    # NB: I removed a lot of data handling stuff from within this function\n'
p82
aS'    # instead, the data get returned and handled at the calling level\n'
p83
aS"    print trialdata['stim']\n"
p84
aS"    if trialdata['stim'].find('faces')>-1:#if it is a face image, display vertically\n"
p85
aS"        stim_type='faces'\n"
p86
aS"    elif trialdata['stim'].find('scenes')>-1:#\n"
p87
aS"        stim_type='scenes'\n"
p88
aS'    else:#if it is a character, display as text\n'
p89
aS"        stim_type='chinese_characters'\n"
p90
aS'        \n'
p91
aS"    visual_stim.setImage(trialdata['stim'])\n"
p92
aS"    trialdata['stim_type']=stim_type\n"
p93
aS'    \n'
p94
aS'        #visual_stim[stim_type].setAutoDraw(True)#get the image ready to display\n'
p95
aS'    visual_stim.draw()\n'
p96
aS"    while clock.getTime()<trialdata['onset']:#wait until the specified onset time to display image_file\n"
p97
aS'        pass\n'
p98
aS'    win.flip()\n'
p99
aS"    trialdata['actual_onset_time']=clock.getTime()\n"
p100
aS'    event.clearEvents()#clear all button presses\n'
p101
aS'    thisResp=None\n'
p102
aS'    simulated_rt=0.5 + N.random.rand()*0.1\n'
p103
aS"    while clock.getTime() < (trialdata['actual_onset_time'] + trialdata['duration']):#before the subdata['stim_dur'] time is exceeded, do this stuff...\n"
p104
aS'            key_response=event.getKeys()#look for yes,no, and quit commands\n'
p105
aS"            if subdata['simulated_response']:\n"
p106
aS"                if clock.getTime()> trialdata['actual_onset_time'] + simulated_rt:\n"
p107
aS'                    thisResp=1\n'
p108
aS"                    trialdata['rt']=clock.getTime() - trialdata['actual_onset_time'] #collect rt\n"
p109
aS"                    if trialdata['match']==trialdata['nback']:\n"
p110
aS"                        trialdata['response']='4'\n"
p111
aS'                    else:\n'
p112
aS"                        trialdata['response']='1'\n"
p113
ag14
aS'            elif key_response:#if they press any button\n'
p114
aS"                if key_response.count(subdata['quit_key'])>0:#if subj hits subdata['quit_key']...\n"
p115
aS'                    keep_going=0\n'
p116
aS"                    #subdata['broke_on_trial'][which_block]=trial_num\n"
p117
aS'                    #shut_down_cleanly(subdata,win)\n'
p118
aS'                    return None\n'
p119
aS"                elif key_response.count('5')>0:\n"
p120
aS"                    subdata['trigger_times'].append(clock.getTime())\n"
p121
aS'                else:\n'
p122
aS'                    thisResp=1\n'
p123
aS"                    trialdata['rt']=clock.getTime() - trialdata['actual_onset_time'] #collect rt\n"
p124
aS"                    trialdata['response']=key_response[0]#collect response\n"
p125
ag14
aS'    visual_stim.clearTextures()\n'
p126
ag14
aS'    win.flip()\n'
p127
ag14
aS'    #del visual_stim\n'
p128
aS'    return trialdata\n'
p129
aS'    \n'
p130
ag14
ag14
aS'#Text saying the task has finished. Disappears with key press\n'
p131
ag14
aS'def display_finished_text():#finished with experiment\n'
p132
aS'    event.clearEvents()\n'
p133
aS'    message=visual.TextStim(win=win, ori=0,\n'
p134
aS"    text='All finished! Thanks  :) \\n Press any key to clear the screen.',\n"
p135
aS"    font=u'BiauKai',pos=[0, 0], height=2,color=u'white', colorSpace=u'rgb', opacity=1,depth=0.0,alignHoriz='center',wrapWidth=50)\n"
p136
aS'    message.setAutoDraw(True) \n'
p137
aS'    win.flip()\n'
p138
aS'    start=False\n'
p139
aS'    while start==False:\n'
p140
aS'        key_response=event.getKeys()\n'
p141
aS'        if len(key_response)>0:\n'
p142
aS'            start=True\n'
p143
aS"            message.setText('')#this clears the screen\n"
p144
aS'            win.flip()\n'
p145
aS'    return start\n'
p146
aS'#- - - - - - - - - - - - - - - - - - - - - - - - - - - - - - - - - - - - - - - - - - - - - - - - - - - - - - - - - - - - - - - - - - - - - - \n'
p147
ag14
aS'    \n'
p148
aS'#set-up some variables\n'
p149
ag14
aS'verbose=True\n'
p150
aS'fullscr=False  # change to True for full screen display\n'
p151
ag14
aS"stim_types=['faces','scenes','chinese_characters']\n"
p152
aS'subdata={}\n'
p153
aS'finish_time=440\n'
p154
ag14
aS"subdata['start_key']='5'\n"
p155
aS"subdata['quit_key']='q'\n"
p156
aS"subdata['discard_time_to_wait']=0.0\n"
p157
aS"subdata['expt_title']='Self_Tracking'\n"
p158
aS"subdata['stim_dur']=1.0\n"
p159
aS"subdata['inter_stim_int']=1.0\n"
p160
aS"subdata['inst_time']=1.0\n"
p161
aS"subdata['rest_time']=10.0\n"
p162
aS"subdata['ExpVersion']=0.1\n"
p163
aS"subdata['nstims']=5\n"
p164
aS"subdata['ntrials_per_block']=6\n"
p165
aS"subdata['simulated_response']=False\n"
p166
aS"subdata['trigger_times']=[]\n"
p167
ag14
aS'if len(sys.argv)<2:\n'
p168
aS"    print 'USAGE: self_tracking.py <stimlist> <session code>'\n"
p169
aS'    sys.exit()\n'
p170
aS"    #subdata['onsetfile']='/Users/poldrack/Dropbox/Documents/Projects/self-tracking/task/onsetlists/stimlist_000.txt'\n"
p171
aS'else:\n'
p172
aS"    subdata['onsetfile']=sys.argv[1]\n"
p173
aS"    subdata['subcode']=sys.argv[2]\n"
p174
ag14
ag14
aS'# initialize subdata dictionary to store info about the study\n'
p175
aS"subdata['completed']=0\n"
p176
aS"subdata['cwd']=os.getcwd()\n"
p177
aS"subdata['hostname']=socket.gethostname()\n"
p178
aS'clock=core.Clock()\n'
p179
aS'datestamp=datetime.datetime.now().strftime("%Y-%m-%d-%H_%M_%S")\n'
p180
aS"subdata['datestamp']=datestamp\n"
p181
aS"subdata['expt_title']=subdata['expt_title']\n"
p182
aS"subdata['script']=store_scriptfile()\n"
p183
aS"subdata['onsets']=subdata['onsetfile']\n"
p184
ag14
aS'#these are all sub-dictionaries which will be appended w/separate info for each block & each trial\n'
p185
aS"#i.e., the 'response' dictionary will contain the following dictionaries: face_1, face_2, scenes_1, scenes_2, whose keys are trial_num and values are the responses on that trial\n"
p186
aS"subdata['response']={}\n"
p187
aS"subdata['score']={}\n"
p188
aS"subdata['rt']={}\n"
p189
aS"subdata['stim_onset_time']={}\n"
p190
aS"subdata['stim_log']={}\n"
p191
aS"subdata['is_this_SS_trial']={}\n"
p192
aS"subdata['SS']={}\n"
p193
aS"subdata['broke_on_trial']={}\n"
p194
ag14
aS'# set up logging information & create Output directories\n'
p195
aS"if not os.path.isdir('Output'):#make an Output directory if necessary\n"
p196
aS"    os.makedirs('Output') \n"
p197
ag14
aS"dataFileName='Output/%s_%s_subdata.log'%(subdata['subcode'],subdata['datestamp'])\n"
p198
aS'logging.console.setLevel(logging.INFO)\n'
p199
aS'logfile=logging.LogFile(dataFileName,level=logging.INFO)\n'
p200
ag14
aS'# load stimulus file\n'
p201
ag14
aS'def load_stimulus_file(onsfile):\n'
p202
aS'    events=[]\n'
p203
aS'    f=open(onsfile)\n'
p204
aS'    l=f.readlines()\n'
p205
aS'    for line in l:\n'
p206
aS"        l_s=line.strip('\\n').split('\\t')\n"
p207
aS'        events.append([float(l_s[0]),int(l_s[1]),int(l_s[2]),int(l_s[3]),l_s[4]])\n'
p208
aS'    f.close()\n'
p209
aS'    return events\n'
p210
ag14
aS"events=load_stimulus_file(subdata['onsetfile'])\n"
p211
ag14
aS'# set up the window \n'
p212
aS"win = visual.Window([800,600],allowGUI=True, fullscr=True, monitor='testMonitor', units='deg')\n"
p213
aS"win.setColor('black')\n"
p214
aS'win.flip()\n'
p215
aS'win.flip()\n'
p216
ag14
aS'#integrating everything together\n'
p217
ag14
aS"subdata['trialdata']={}\n"
p218
aS'#chardict=create_characters_dict()\n'
p219
ag14
aS"wait_for_trigger()#wait for subdata['start_key'] to be pressed\n"
p220
ag14
aS'visual_stim={}\n'
p221
aS"visual_stim=visual.ImageStim(win, image=N.zeros((10,10)), size=(0.75,0.75),units='height')\n"
p222
ag14
aS'# set clock to zero\n'
p223
aS'clock.reset()\n'
p224
aS'trialctr=0\n'
p225
aS'for i in range(len(events)):\n'
p226
aS"    if events[i][4]=='inst':\n"
p227
aS'        while clock.getTime() < events[i][0]:\n'
p228
aS'            pass\n'
p229
aS"        instructions(events[i][2],subdata['inst_time'])\n"
p230
aS'    else:\n'
p231
aS"        subdata['trialdata'][trialctr]=draw_stim(win,events[i],subdata,visual_stim)\n"
p232
aS"        if subdata['trialdata'][trialctr]==None:\n"
p233
aS'            break\n'
p234
aS'        trialctr+=1\n'
p235
aS"        print 'return time:',clock.getTime()\n"
p236
ag14
aS'#display_finished_text()\n'
p237
aS'while clock.getTime()<finish_time:\n'
p238
aS'\tpass\n'
p239
aS'\t\n'
p240
aS"subdata['events']=events\n"
p241
aS'if save_data==1:\n'
p242
aS"    docId,docRev=save_data_to_db(subdata,'selftracking-taskdata')\n"
p243
ag14
aS'shut_down_cleanly(subdata,win)\n'
p244
asS'onsets'
p245
S'onsetlists/stimlist_001.txt'
p246
sS'hostname'
p247
S'IRC-arizona'
p248
sS'score'
p249
(dp250
sS'rest_time'
p251
F10.0
sS'cwd'
p252
S'/Users/rap2623/Dropbox/Documents/Projects/self-tracking/task'
p253
sS'trigger_times'
p254
(lp255
F2.2781472206115723
aF4.5981361865997314
aF6.91818904876709
aF8.078407049179077
aF10.397401094436646
aF12.71733021736145
aF16.19765615463257
aF18.517497062683105
aF20.83764910697937
aF24.317869186401367
aF26.637822151184082
aF28.957857131958008
aF30.118155002593994
aF32.43797016143799
aF34.75808811187744
aF38.238198041915894
aF40.558250188827515
aF42.87725019454956
aF46.35739207267761
aF48.677396059036255
aF50.99751019477844
aF52.15769600868225
aF54.477628231048584
aF56.79756808280945
aF60.27782201766968
aF62.59774303436279
aF64.91787719726562
aF68.39801001548767
aF70.71812105178833
aF74.19822120666504
aF76.51826405525208
aF78.83715200424194
aF82.31750512123108
aF84.63760614395142
aF86.95753502845764
aF90.43734908103943
aF92.75767207145691
aF96.23779010772705
aF98.55796813964844
aF100.87792110443115
aF102.03793907165527
aF104.35815215110779
aF106.67908120155334
aF108.99817419052124
aF112.47841119766235
aF114.79734706878662
aF118.27733516693115
aF120.59760904312134
aF122.91742706298828
aF124.07764720916748
aF126.39770317077637
aF128.71775603294373
aF154.23777222633362
aF156.55760407447815
aF158.8775451183319
aF160.03766417503357
aF162.35773515701294
aF164.67776107788086
aF166.99776005744934
aF168.1580250263214
aF170.47798013687134
aF172.79800009727478
aF176.27823209762573
aF178.59821009635925
aF180.91828513145447
aF182.07827806472778
aF184.39742016792297
aF186.7173571586609
aF190.19762110710144
aF192.5176591873169
aF194.83763122558594
aF198.31765413284302
aF200.63785409927368
aF202.9578640460968
aF204.11802506446838
aF206.43787503242493
aF208.75802421569824
aF212.23823022842407
aF214.55828619003296
aF216.8782820701599
aF220.3573820590973
aF222.67749404907227
aF224.99751710891724
aF226.15747809410095
aF228.47766613960266
aF230.7974510192871
aF234.27762818336487
aF236.59786105155945
aF238.9177851676941
aF242.39810705184937
aF244.71824622154236
aF248.1982650756836
aF250.51824021339417
aF252.8373830318451
aF256.31748604774475
aF258.63749504089355
aF260.9575471878052
aF264.43782114982605
aF266.7575681209564
aF270.237939119339
aF272.55791306495667
aF274.87794518470764
aF276.03802609443665
aF278.35803604125977
aF280.6781270503998
aF282.9981551170349
aF306.19797801971436
aF308.5178542137146
aF310.8378231525421
aF314.3181722164154
aF316.6381471157074
aF318.9582030773163
aF320.11839604377747
aF322.43840312957764
aF324.75737714767456
aF328.23757314682007
aF330.55761909484863
aF332.877610206604
aF334.03775000572205
aF336.357782125473
aF338.6778521537781
aF340.9978711605072
aF342.1578299999237
aF344.47789001464844
aF346.7980902194977
aF350.2780702114105
aF352.59820008277893
aF354.9182541370392
aF356.07839012145996
aF358.3974401950836
aF360.71737909317017
aF364.19754219055176
aF366.51770401000977
aF368.837660074234
aF372.3177320957184
aF374.63797307014465
aF376.9578800201416
aF378.1180942058563
aF380.4380280971527
aF382.758052110672
aF386.2382390499115
aF388.55829215049744
aF390.87827706336975
aF394.3574290275574
aF396.67754006385803
aF398.9974842071533
aF400.1577010154724
aF402.4776701927185
aF404.7977499961853
aF408.27789306640625
aF410.59788823127747
aF412.9179310798645
aF416.39800810813904
aF418.71807408332825
aF422.1983120441437
aF424.51823806762695
aF426.838338136673
aF430.31753301620483
aF432.63742303848267
aF434.95744705200195
asS'ExpVersion'
p256
F0.1
sS'completed'
p257
I0
sS'stim_dur'
p258
F1.0
sS'quit_key'
p259
S'q'
p260
sS'onsetfile'
p261
g246
sS'discard_time_to_wait'
p262
F0.0
sS'response'
p263
(dp264
sS'trialdata'
p265
(dp266
I0
(dp267
S'stim'
p268
S'./stimfiles/scenes/171.jpg'
p269
sS'onset'
p270
F2.0
sS'stim_type'
p271
S'scenes'
p272
sS'block'
p273
I0
sS'nback'
p274
I1
sS'duration'
p275
F1.0
sS'match'
p276
I0
sS'actual_onset_time'
p277
F2.0164551734924316
ssI1
(dp278
g8
F0.5910129547119141
sg268
S'./stimfiles/scenes/1866.jpg'
p279
sg270
F4.0
sg271
g272
sg273
I0
sg274
I1
sg275
F1.0
sg263
S'1'
p280
sg276
I0
sg277
F4.017244100570679
ssI2
(dp281
g8
F0.5250051021575928
sg268
S'./stimfiles/scenes/3065.jpg'
p282
sg270
F6.0
sg271
g272
sg273
I0
sg274
I1
sg275
F1.0
sg263
g280
sg276
I0
sg277
F6.018027067184448
ssI3
(dp283
g8
F0.5722930431365967
sg268
S'./stimfiles/scenes/1144.jpg'
p284
sg270
F8.0
sg271
g272
sg273
I0
sg274
I1
sg275
F1.0
sg263
g280
sg276
I0
sg277
F8.018956184387207
ssI4
(dp285
g8
F0.4495999813079834
sg268
S'./stimfiles/scenes/1144.jpg'
p286
sg270
F10.0
sg271
g272
sg273
I0
sg274
I1
sg275
F1.0
sg263
S'4'
p287
sg276
I1
sg277
F10.019736051559448
ssI5
(dp288
g8
F0.5919928550720215
sg268
S'./stimfiles/scenes/1732.jpg'
p289
sg270
F12.0
sg271
g272
sg273
I0
sg274
I1
sg275
F1.0
sg263
g280
sg276
I0
sg277
F12.020510196685791
ssI6
(dp290
g8
F0.5908570289611816
sg268
S'./stimfiles/scenes/1214.jpg'
p291
sg270
F14.0
sg271
g272
sg273
I0
sg274
I1
sg275
F1.0
sg263
g280
sg276
I0
sg277
F14.00466012954712
ssI7
(dp292
g8
F0.4820408821105957
sg268
S'./stimfiles/scenes/643.jpg'
p293
sg270
F16.0
sg271
g272
sg273
I0
sg274
I1
sg275
F1.0
sg263
g280
sg276
I0
sg277
F16.00546622276306
ssI8
(dp294
g8
F0.42421507835388184
sg268
S'./stimfiles/scenes/643.jpg'
p295
sg270
F18.0
sg271
g272
sg273
I0
sg274
I1
sg275
F1.0
sg263
g280
sg276
I1
sg277
F18.00635600090027
ssI9
(dp296
g8
F0.8534951210021973
sg268
S'./stimfiles/scenes/1214.jpg'
p297
sg270
F20.0
sg271
g272
sg273
I0
sg274
I1
sg275
F1.0
sg263
g280
sg276
I3
sg277
F20.0071280002594
ssI10
(dp298
g268
S'./stimfiles/chinese_characters/20660.jpg'
p299
sg270
F24.0
sg271
S'chinese_characters'
p300
sg273
I1
sg274
I2
sg275
F1.0
sg276
I0
sg277
F24.025488138198853
ssI11
(dp301
g8
F0.985131025314331
sg268
S'./stimfiles/chinese_characters/25575.jpg'
p302
sg270
F26.0
sg271
g300
sg273
I1
sg274
I2
sg275
F1.0
sg263
g280
sg276
I0
sg277
F26.009658098220825
ssI12
(dp303
g8
F0.6104838848114014
sg268
S'./stimfiles/chinese_characters/24939.jpg'
p304
sg270
F28.0
sg271
g300
sg273
I1
sg274
I2
sg275
F1.0
sg263
g280
sg276
I0
sg277
F28.01042914390564
ssI13
(dp305
g8
F0.9175841808319092
sg268
S'./stimfiles/chinese_characters/24939.jpg'
p306
sg270
F30.0
sg271
g300
sg273
I1
sg274
I2
sg275
F1.0
sg263
g280
sg276
I1
sg277
F30.011312007904053
ssI14
(dp307
g8
F0.7618310451507568
sg268
S'./stimfiles/chinese_characters/20636.jpg'
p308
sg270
F32.0
sg271
g300
sg273
I1
sg274
I2
sg275
F1.0
sg263
g280
sg276
I0
sg277
F32.01207900047302
ssI15
(dp309
g8
F0.8141829967498779
sg268
S'./stimfiles/chinese_characters/24939.jpg'
p310
sg270
F34.0
sg271
g300
sg273
I1
sg274
I2
sg275
F1.0
sg263
g287
sg276
I3
sg277
F34.012858152389526
ssI16
(dp311
g8
F0.8783519268035889
sg268
S'./stimfiles/chinese_characters/20636.jpg'
p312
sg270
F36.0
sg271
g300
sg273
I1
sg274
I2
sg275
F1.0
sg263
g287
sg276
I2
sg277
F36.013681173324585
ssI17
(dp313
g8
F0.8965859413146973
sg268
S'./stimfiles/chinese_characters/20636.jpg'
p314
sg270
F38.0
sg271
g300
sg273
I1
sg274
I2
sg275
F1.0
sg263
g280
sg276
I1
sg277
F38.014546155929565
ssI18
(dp315
g268
S'./stimfiles/chinese_characters/24939.jpg'
p316
sg270
F40.0
sg271
g300
sg273
I1
sg274
I2
sg275
F1.0
sg276
I3
sg277
F40.01530718803406
ssI19
(dp317
g8
F0.7900009155273438
sg268
S'./stimfiles/chinese_characters/24996.jpg'
p318
sg270
F42.0
sg271
g300
sg273
I1
sg274
I2
sg275
F1.0
sg263
g280
sg276
I0
sg277
F42.01622819900513
ssI20
(dp319
g8
F0.7584528923034668
sg268
S'./stimfiles/chinese_characters/24948.jpg'
p320
sg270
F46.0
sg271
g300
sg273
I2
sg274
I1
sg275
F1.0
sg263
g280
sg276
I0
sg277
F46.01777911186218
ssI21
(dp321
g8
F0.5867938995361328
sg268
S'./stimfiles/chinese_characters/25212.jpg'
p322
sg270
F48.0
sg271
g300
sg273
I2
sg274
I1
sg275
F1.0
sg263
g280
sg276
I0
sg277
F48.0187041759491
ssI22
(dp323
g8
F0.5870580673217773
sg268
S'./stimfiles/chinese_characters/24948.jpg'
p324
sg270
F50.0
sg271
g300
sg273
I2
sg274
I1
sg275
F1.0
sg263
g280
sg276
I2
sg277
F50.019448041915894
ssI23
(dp325
g8
F0.803973913192749
sg268
S'./stimfiles/chinese_characters/25212.jpg'
p326
sg270
F52.0
sg271
g300
sg273
I2
sg274
I1
sg275
F1.0
sg263
g280
sg276
I2
sg277
F52.02027416229248
ssI24
(dp327
g8
F0.5865411758422852
sg268
S'./stimfiles/chinese_characters/24848.jpg'
p328
sg270
F54.0
sg271
g300
sg273
I2
sg274
I1
sg275
F1.0
sg263
g280
sg276
I0
sg277
F54.021085023880005
ssI25
(dp329
g8
F0.580603837966919
sg268
S'./stimfiles/chinese_characters/24848.jpg'
p330
sg270
F56.0
sg271
g300
sg273
I2
sg274
I1
sg275
F1.0
sg263
g287
sg276
I1
sg277
F56.021982192993164
ssI26
(dp331
g8
F0.6358010768890381
sg268
S'./stimfiles/chinese_characters/26006.jpg'
p332
sg270
F58.0
sg271
g300
sg273
I2
sg274
I1
sg275
F1.0
sg263
g280
sg276
I0
sg277
F58.022791147232056
ssI27
(dp333
g8
F0.46816182136535645
sg268
S'./stimfiles/chinese_characters/30234.jpg'
p334
sg270
F60.0
sg271
g300
sg273
I2
sg274
I1
sg275
F1.0
sg263
g280
sg276
I0
sg277
F60.02362322807312
ssI28
(dp335
g8
F0.5515041351318359
sg268
S'./stimfiles/chinese_characters/29918.jpg'
p336
sg270
F62.0
sg271
g300
sg273
I2
sg274
I1
sg275
F1.0
sg263
g280
sg276
I0
sg277
F62.02439904212952
ssI29
(dp337
g8
F0.5414929389953613
sg268
S'./stimfiles/chinese_characters/26899.jpg'
p338
sg270
F64.0
sg271
g300
sg273
I2
sg274
I1
sg275
F1.0
sg263
g280
sg276
I0
sg277
F64.00856113433838
ssI30
(dp339
g8
F0.6458289623260498
sg268
S'./stimfiles/faces/cropped_m-066-01.png'
p340
sg270
F68.0
sg271
S'faces'
p341
sg273
I3
sg274
I1
sg275
F1.0
sg263
g280
sg276
I0
sg277
F68.01013612747192
ssI31
(dp342
g8
F0.7190690040588379
sg268
S'./stimfiles/faces/cropped_f4009.png'
p343
sg270
F70.0
sg271
g341
sg273
I3
sg274
I1
sg275
F1.0
sg263
g280
sg276
I0
sg277
F70.01110911369324
ssI32
(dp344
g8
F0.6103839874267578
sg268
S'./stimfiles/faces/cropped_chris1.png'
p345
sg270
F72.0
sg271
g341
sg273
I3
sg274
I1
sg275
F1.0
sg263
g280
sg276
I0
sg277
F72.011803150177
ssI33
(dp346
g8
F0.5724689960479736
sg268
S'./stimfiles/faces/cropped_f-010-01.png'
p347
sg270
F74.0
sg271
g341
sg273
I3
sg274
I1
sg275
F1.0
sg263
g280
sg276
I0
sg277
F74.01268100738525
ssI34
(dp348
g8
F0.7407870292663574
sg268
S'./stimfiles/faces/cropped_97.png'
p349
sg270
F76.0
sg271
g341
sg273
I3
sg274
I1
sg275
F1.0
sg263
g280
sg276
I0
sg277
F76.01345705986023
ssI35
(dp350
g8
F0.693166971206665
sg268
S'./stimfiles/faces/cropped_chris1.png'
p351
sg270
F78.0
sg271
g341
sg273
I3
sg274
I1
sg275
F1.0
sg263
g280
sg276
I3
sg277
F78.0142571926117
ssI36
(dp352
g8
F0.602180004119873
sg268
S'./stimfiles/faces/cropped_neil1.png'
p353
sg270
F80.0
sg271
g341
sg273
I3
sg274
I1
sg275
F1.0
sg263
g280
sg276
I0
sg277
F80.01514601707458
ssI37
(dp354
g8
F0.6003611087799072
sg268
S'./stimfiles/faces/cropped_14MVC-003F.png'
p355
sg270
F82.0
sg271
g341
sg273
I3
sg274
I1
sg275
F1.0
sg263
g280
sg276
I0
sg277
F82.01597309112549
ssI38
(dp356
g8
F0.6937191486358643
sg268
S'./stimfiles/faces/cropped_00711010.png'
p357
sg270
F84.0
sg271
g341
sg273
I3
sg274
I1
sg275
F1.0
sg263
g280
sg276
I0
sg277
F84.01672601699829
ssI39
(dp358
g8
F0.5639569759368896
sg268
S'./stimfiles/faces/cropped_m-078-01.png'
p359
sg270
F86.0
sg271
g341
sg273
I3
sg274
I1
sg275
F1.0
sg263
g280
sg276
I0
sg277
F86.01760721206665
ssI40
(dp360
g8
F0.6183469295501709
sg268
S'./stimfiles/faces/cropped_dhawley1.png'
p361
sg270
F90.0
sg271
g341
sg273
I4
sg274
I2
sg275
F1.0
sg263
g280
sg276
I0
sg277
F90.0192711353302
ssI41
(dp362
g8
F0.4276270866394043
sg268
S'./stimfiles/faces/cropped_f4n2.png'
p363
sg270
F92.0
sg271
g341
sg273
I4
sg274
I2
sg275
F1.0
sg263
g280
sg276
I0
sg277
F92.02007603645325
ssI42
(dp364
g8
F0.5247647762298584
sg268
S'./stimfiles/faces/cropped_m1-040-01.png'
p365
sg270
F94.0
sg271
g341
sg273
I4
sg274
I2
sg275
F1.0
sg263
g280
sg276
I0
sg277
F94.02088522911072
ssI43
(dp366
g8
F0.6459710597991943
sg268
S'./stimfiles/faces/cropped_dhawley1.png'
p367
sg270
F96.0
sg271
g341
sg273
I4
sg274
I2
sg275
F1.0
sg263
g280
sg276
I3
sg277
F96.02172708511353
ssI44
(dp368
g8
F0.796334981918335
sg268
S'./stimfiles/faces/cropped_m1-040-01.png'
p369
sg270
F98.0
sg271
g341
sg273
I4
sg274
I2
sg275
F1.0
sg263
g287
sg276
I2
sg277
F98.02250909805298
ssI45
(dp370
g8
F0.6156821250915527
sg268
S'./stimfiles/faces/cropped_215.png'
p371
sg270
F100.0
sg271
g341
sg273
I4
sg274
I2
sg275
F1.0
sg263
g280
sg276
I0
sg277
F100.02330803871155
ssI46
(dp372
g8
F0.674746036529541
sg268
S'./stimfiles/faces/cropped_m1-040-01.png'
p373
sg270
F102.0
sg271
g341
sg273
I4
sg274
I2
sg275
F1.0
sg263
g287
sg276
I2
sg277
F102.02412915229797
ssI47
(dp374
g8
F0.6850059032440186
sg268
S'./stimfiles/faces/cropped_121.png'
p375
sg270
F104.0
sg271
g341
sg273
I4
sg274
I2
sg275
F1.0
sg263
g280
sg276
I0
sg277
F104.0250232219696
ssI48
(dp376
g8
F0.6494159698486328
sg268
S'./stimfiles/faces/cropped_400.png'
p377
sg270
F106.0
sg271
g341
sg273
I4
sg274
I2
sg275
F1.0
sg263
g280
sg276
I0
sg277
F106.0257511138916
ssI49
(dp378
g8
F0.7561080455780029
sg268
S'./stimfiles/faces/cropped_m1-040-01.png'
p379
sg270
F108.0
sg271
g341
sg273
I4
sg274
I2
sg275
F1.0
sg263
g280
sg276
I3
sg277
F108.00993704795837
ssI50
(dp380
g8
F0.6005840301513672
sg268
S'./stimfiles/scenes/518.jpg'
p381
sg270
F112.0
sg271
g272
sg273
I5
sg274
I2
sg275
F1.0
sg263
g280
sg276
I0
sg277
F112.01154208183289
ssI51
(dp382
g8
F0.7991819381713867
sg268
S'./stimfiles/scenes/518.jpg'
p383
sg270
F114.0
sg271
g272
sg273
I5
sg274
I2
sg275
F1.0
sg263
g280
sg276
I1
sg277
F114.01239919662476
ssI52
(dp384
g8
F0.5613749027252197
sg268
S'./stimfiles/scenes/1795.jpg'
p385
sg270
F116.0
sg271
g272
sg273
I5
sg274
I2
sg275
F1.0
sg263
g280
sg276
I0
sg277
F116.01321911811829
ssI53
(dp386
g8
F0.5343430042266846
sg268
S'./stimfiles/scenes/801.jpg'
p387
sg270
F118.0
sg271
g272
sg273
I5
sg274
I2
sg275
F1.0
sg263
g280
sg276
I0
sg277
F118.01409816741943
ssI54
(dp388
g8
F0.6446211338043213
sg268
S'./stimfiles/scenes/1406.jpg'
p389
sg270
F120.0
sg271
g272
sg273
I5
sg274
I2
sg275
F1.0
sg263
g280
sg276
I0
sg277
F120.01485705375671
ssI55
(dp390
g8
F0.7568690776824951
sg268
S'./stimfiles/scenes/179.jpg'
p391
sg270
F122.0
sg271
g272
sg273
I5
sg274
I2
sg275
F1.0
sg263
g280
sg276
I0
sg277
F122.01571106910706
ssI56
(dp392
g8
F0.8559451103210449
sg268
S'./stimfiles/scenes/1806.jpg'
p393
sg270
F124.0
sg271
g272
sg273
I5
sg274
I2
sg275
F1.0
sg263
g280
sg276
I0
sg277
F124.01654005050659
ssI57
(dp394
g8
F0.7713398933410645
sg268
S'./stimfiles/scenes/617.jpg'
p395
sg270
F126.0
sg271
g272
sg273
I5
sg274
I2
sg275
F1.0
sg263
g280
sg276
I0
sg277
F126.01731514930725
ssI58
(dp396
g8
F0.8403921127319336
sg268
S'./stimfiles/scenes/964.jpg'
p397
sg270
F128.0
sg271
g272
sg273
I5
sg274
I2
sg275
F1.0
sg263
g280
sg276
I0
sg277
F128.01811909675598
ssI59
(dp398
g8
F0.7777571678161621
sg268
S'./stimfiles/scenes/617.jpg'
p399
sg270
F130.0
sg271
g272
sg273
I5
sg274
I2
sg275
F1.0
sg263
g287
sg276
I2
sg277
F130.01895403862
ssI60
(dp400
g8
F0.4481039047241211
sg268
S'./stimfiles/scenes/647.jpg'
p401
sg270
F154.0
sg271
g272
sg273
I6
sg274
I1
sg275
F1.0
sg263
g280
sg276
I0
sg277
F154.01217818260193
ssI61
(dp402
g8
F0.8415079116821289
sg268
S'./stimfiles/scenes/647.jpg'
p403
sg270
F156.0
sg271
g272
sg273
I6
sg274
I1
sg275
F1.0
sg263
g287
sg276
I1
sg277
F156.01301622390747
ssI62
(dp404
g8
F0.5285201072692871
sg268
S'./stimfiles/scenes/152.jpg'
p405
sg270
F158.0
sg271
g272
sg273
I6
sg274
I1
sg275
F1.0
sg263
g280
sg276
I0
sg277
F158.01377701759338
ssI63
(dp406
g8
F0.427048921585083
sg268
S'./stimfiles/scenes/647.jpg'
p407
sg270
F160.0
sg271
g272
sg273
I6
sg274
I1
sg275
F1.0
sg263
g280
sg276
I3
sg277
F160.01463317871094
ssI64
(dp408
g8
F0.681243896484375
sg268
S'./stimfiles/scenes/152.jpg'
p409
sg270
F162.0
sg271
g272
sg273
I6
sg274
I1
sg275
F1.0
sg263
g280
sg276
I2
sg277
F162.01545310020447
ssI65
(dp410
g8
F0.5595660209655762
sg268
S'./stimfiles/scenes/3116.jpg'
p411
sg270
F164.0
sg271
g272
sg273
I6
sg274
I1
sg275
F1.0
sg263
g280
sg276
I0
sg277
F164.01624417304993
ssI66
(dp412
g8
F0.5477731227874756
sg268
S'./stimfiles/scenes/3116.jpg'
p413
sg270
F166.0
sg271
g272
sg273
I6
sg274
I1
sg275
F1.0
sg263
g287
sg276
I1
sg277
F166.0170600414276
ssI67
(dp414
g8
F0.8359019756317139
sg268
S'./stimfiles/scenes/921.jpg'
p415
sg270
F168.0
sg271
g272
sg273
I6
sg274
I1
sg275
F1.0
sg263
g280
sg276
I0
sg277
F168.01797008514404
ssI68
(dp416
g8
F0.7312140464782715
sg268
S'./stimfiles/scenes/552.jpg'
p417
sg270
F170.0
sg271
g272
sg273
I6
sg274
I1
sg275
F1.0
sg263
g280
sg276
I0
sg277
F170.0187430381775
ssI69
(dp418
g8
F0.6814610958099365
sg268
S'./stimfiles/scenes/506.jpg'
p419
sg270
F172.0
sg271
g272
sg273
I6
sg274
I1
sg275
F1.0
sg263
g280
sg276
I0
sg277
F172.0195460319519
ssI70
(dp420
g8
F0.7285709381103516
sg268
S'./stimfiles/chinese_characters/20676.jpg'
p421
sg270
F176.0
sg271
g300
sg273
I7
sg274
I2
sg275
F1.0
sg263
g280
sg276
I0
sg277
F176.02119517326355
ssI71
(dp422
g8
F0.6701979637145996
sg268
S'./stimfiles/chinese_characters/20784.jpg'
p423
sg270
F178.0
sg271
g300
sg273
I7
sg274
I2
sg275
F1.0
sg263
g280
sg276
I0
sg277
F178.02196216583252
ssI72
(dp424
g8
F0.5013840198516846
sg268
S'./stimfiles/chinese_characters/20676.jpg'
p425
sg270
F180.0
sg271
g300
sg273
I7
sg274
I2
sg275
F1.0
sg263
g287
sg276
I2
sg277
F180.02284812927246
ssI73
(dp426
g8
F0.5855998992919922
sg268
S'./stimfiles/chinese_characters/24592.jpg'
p427
sg270
F182.0
sg271
g300
sg273
I7
sg274
I2
sg275
F1.0
sg263
g280
sg276
I0
sg277
F182.02369213104248
ssI74
(dp428
g8
F0.6428561210632324
sg268
S'./stimfiles/chinese_characters/26395.jpg'
p429
sg270
F184.0
sg271
g300
sg273
I7
sg274
I2
sg275
F1.0
sg263
g280
sg276
I0
sg277
F184.02446603775024
ssI75
(dp430
g8
F0.6131808757781982
sg268
S'./stimfiles/chinese_characters/24592.jpg'
p431
sg270
F186.0
sg271
g300
sg273
I7
sg274
I2
sg275
F1.0
sg263
g287
sg276
I2
sg277
F186.0252821445465
ssI76
(dp432
g8
F0.7953159809112549
sg268
S'./stimfiles/chinese_characters/26395.jpg'
p433
sg270
F188.0
sg271
g300
sg273
I7
sg274
I2
sg275
F1.0
sg263
g287
sg276
I2
sg277
F188.02615213394165
ssI77
(dp434
g8
F0.6892139911651611
sg268
S'./stimfiles/chinese_characters/24592.jpg'
p435
sg270
F190.0
sg271
g300
sg273
I7
sg274
I2
sg275
F1.0
sg263
g280
sg276
I2
sg277
F190.0103280544281
ssI78
(dp436
g8
F0.6614840030670166
sg268
S'./stimfiles/chinese_characters/24641.jpg'
p437
sg270
F192.0
sg271
g300
sg273
I7
sg274
I2
sg275
F1.0
sg263
g280
sg276
I0
sg277
F192.0110731124878
ssI79
(dp438
g8
F0.7037379741668701
sg268
S'./stimfiles/chinese_characters/26395.jpg'
p439
sg270
F194.0
sg271
g300
sg273
I7
sg274
I2
sg275
F1.0
sg263
g280
sg276
I3
sg277
F194.0118670463562
ssI80
(dp440
g8
F0.8943989276885986
sg268
S'./stimfiles/chinese_characters/25841.jpg'
p441
sg270
F198.0
sg271
g300
sg273
I8
sg274
I1
sg275
F1.0
sg263
g280
sg276
I0
sg277
F198.01354312896729
ssI81
(dp442
g8
F0.8076109886169434
sg268
S'./stimfiles/chinese_characters/20796.jpg'
p443
sg270
F200.0
sg271
g300
sg273
I8
sg274
I1
sg275
F1.0
sg263
g280
sg276
I0
sg277
F200.01440405845642
ssI82
(dp444
g8
F0.6348109245300293
sg268
S'./stimfiles/chinese_characters/35357.jpg'
p445
sg270
F202.0
sg271
g300
sg273
I8
sg274
I1
sg275
F1.0
sg263
g280
sg276
I0
sg277
F202.01521015167236
ssI83
(dp446
g8
F0.4898679256439209
sg268
S'./stimfiles/chinese_characters/25261.jpg'
p447
sg270
F204.0
sg271
g300
sg273
I8
sg274
I1
sg275
F1.0
sg263
g280
sg276
I0
sg277
F204.0160791873932
ssI84
(dp448
g8
F0.5039849281311035
sg268
S'./stimfiles/chinese_characters/25261.jpg'
p449
sg270
F206.0
sg271
g300
sg273
I8
sg274
I1
sg275
F1.0
sg263
g287
sg276
I1
sg277
F206.01678919792175
ssI85
(dp450
g8
F0.4493680000305176
sg268
S'./stimfiles/chinese_characters/35556.jpg'
p451
sg270
F208.0
sg271
g300
sg273
I8
sg274
I1
sg275
F1.0
sg263
g280
sg276
I0
sg277
F208.01765418052673
ssI86
(dp452
g8
F0.5586209297180176
sg268
S'./stimfiles/chinese_characters/35556.jpg'
p453
sg270
F210.0
sg271
g300
sg273
I8
sg274
I1
sg275
F1.0
sg263
g287
sg276
I1
sg277
F210.01851511001587
ssI87
(dp454
g8
F0.7068641185760498
sg268
S'./stimfiles/chinese_characters/35556.jpg'
p455
sg270
F212.0
sg271
g300
sg273
I8
sg274
I1
sg275
F1.0
sg263
g287
sg276
I1
sg277
F212.01935005187988
ssI88
(dp456
g8
F0.636713981628418
sg268
S'./stimfiles/chinese_characters/35556.jpg'
p457
sg270
F214.0
sg271
g300
sg273
I8
sg274
I1
sg275
F1.0
sg263
g287
sg276
I1
sg277
F214.02015614509583
ssI89
(dp458
g8
F0.5593209266662598
sg268
S'./stimfiles/chinese_characters/35512.jpg'
p459
sg270
F216.0
sg271
g300
sg273
I8
sg274
I1
sg275
F1.0
sg263
g280
sg276
I0
sg277
F216.02096319198608
ssI90
(dp460
g8
F0.6127550601959229
sg268
S'./stimfiles/faces/cropped_kirsty1.png'
p461
sg270
F220.0
sg271
g341
sg273
I9
sg274
I1
sg275
F1.0
sg263
g280
sg276
I0
sg277
F220.0226330757141
ssI91
(dp462
g8
F0.7420458793640137
sg268
S'./stimfiles/faces/cropped_kirsty1.png'
p463
sg270
F222.0
sg271
g341
sg273
I9
sg274
I1
sg275
F1.0
sg263
g287
sg276
I1
sg277
F222.0233771800995
ssI92
(dp464
g8
F0.7041130065917969
sg268
S'./stimfiles/faces/cropped_m-061-01.png'
p465
sg270
F224.0
sg271
g341
sg273
I9
sg274
I1
sg275
F1.0
sg263
g280
sg276
I0
sg277
F224.02427101135254
ssI93
(dp466
g8
F0.9045360088348389
sg268
S'./stimfiles/faces/cropped_kirsty1.png'
p467
sg270
F226.0
sg271
g341
sg273
I9
sg274
I1
sg275
F1.0
sg263
g280
sg276
I2
sg277
F226.02512216567993
ssI94
(dp468
g8
F0.7947719097137451
sg268
S'./stimfiles/faces/cropped_630.png'
p469
sg270
F228.0
sg271
g341
sg273
I9
sg274
I1
sg275
F1.0
sg263
g280
sg276
I0
sg277
F228.02584409713745
ssI95
(dp470
g8
F0.5826559066772461
sg268
S'./stimfiles/faces/cropped_m13v1e1.png'
p471
sg270
F230.0
sg271
g341
sg273
I9
sg274
I1
sg275
F1.0
sg263
g280
sg276
I0
sg277
F230.01000118255615
ssI96
(dp472
g8
F0.5829207897186279
sg268
S'./stimfiles/faces/cropped_630.png'
p473
sg270
F232.0
sg271
g341
sg273
I9
sg274
I1
sg275
F1.0
sg263
g280
sg276
I2
sg277
F232.01087522506714
ssI97
(dp474
g8
F0.6600518226623535
sg268
S'./stimfiles/faces/cropped_m4042.png'
p475
sg270
F234.0
sg271
g341
sg273
I9
sg274
I1
sg275
F1.0
sg263
g280
sg276
I0
sg277
F234.01164722442627
ssI98
(dp476
g8
F0.46124887466430664
sg268
S'./stimfiles/faces/cropped_m4042.png'
p477
sg270
F236.0
sg271
g341
sg273
I9
sg274
I1
sg275
F1.0
sg263
g287
sg276
I1
sg277
F236.01250219345093
ssI99
(dp478
g8
F0.5756950378417969
sg268
S'./stimfiles/faces/cropped_630.png'
p479
sg270
F238.0
sg271
g341
sg273
I9
sg274
I1
sg275
F1.0
sg263
g280
sg276
I3
sg277
F238.0133399963379
ssI100
(dp480
g8
F0.6240370273590088
sg268
S'./stimfiles/faces/cropped_465.png'
p481
sg270
F242.0
sg271
g341
sg273
I10
sg274
I2
sg275
F1.0
sg263
g280
sg276
I0
sg277
F242.0149371623993
ssI101
(dp482
g8
F0.7482399940490723
sg268
S'./stimfiles/faces/cropped_465.png'
p483
sg270
F244.0
sg271
g341
sg273
I10
sg274
I2
sg275
F1.0
sg263
g280
sg276
I1
sg277
F244.01582717895508
ssI102
(dp484
g8
F0.7025349140167236
sg268
S'./stimfiles/faces/cropped_25a.png'
p485
sg270
F246.0
sg271
g341
sg273
I10
sg274
I2
sg275
F1.0
sg263
g280
sg276
I0
sg277
F246.01660418510437
ssI103
(dp486
g8
F0.5795881748199463
sg268
S'./stimfiles/faces/cropped_15.png'
p487
sg270
F248.0
sg271
g341
sg273
I10
sg274
I2
sg275
F1.0
sg263
g280
sg276
I0
sg277
F248.01748299598694
ssI104
(dp488
g8
F0.7579641342163086
sg268
S'./stimfiles/faces/cropped_15.png'
p489
sg270
F250.0
sg271
g341
sg273
I10
sg274
I2
sg275
F1.0
sg263
g280
sg276
I1
sg277
F250.01823902130127
ssI105
(dp490
g8
F0.7302839756011963
sg268
S'./stimfiles/faces/cropped_23.png'
p491
sg270
F252.0
sg271
g341
sg273
I10
sg274
I2
sg275
F1.0
sg263
g280
sg276
I0
sg277
F252.01909112930298
ssI106
(dp492
g8
F0.5075569152832031
sg268
S'./stimfiles/faces/cropped_15.png'
p493
sg270
F254.0
sg271
g341
sg273
I10
sg274
I2
sg275
F1.0
sg263
g287
sg276
I2
sg277
F254.01990509033203
ssI107
(dp494
g8
F0.7698159217834473
sg268
S'./stimfiles/faces/cropped_23.png'
p495
sg270
F256.0
sg271
g341
sg273
I10
sg274
I2
sg275
F1.0
sg263
g287
sg276
I2
sg277
F256.0207631587982
ssI108
(dp496
g268
S'./stimfiles/faces/cropped_23.png'
p497
sg270
F258.0
sg271
g341
sg273
I10
sg274
I2
sg275
F1.0
sg276
I1
sg277
F258.02156019210815
ssI109
(dp498
g8
F0.6221859455108643
sg268
S'./stimfiles/faces/cropped_521.png'
p499
sg270
F260.0
sg271
g341
sg273
I10
sg274
I2
sg275
F1.0
sg263
g280
sg276
I0
sg277
F260.0223591327667
ssI110
(dp500
g8
F0.6573648452758789
sg268
S'./stimfiles/scenes/644.jpg'
p501
sg270
F264.0
sg271
g272
sg273
I11
sg274
I2
sg275
F1.0
sg263
g280
sg276
I0
sg277
F264.0072681903839
ssI111
(dp502
g8
F0.3915560245513916
sg268
S'./stimfiles/scenes/644.jpg'
p503
sg270
F266.0
sg271
g272
sg273
I11
sg274
I2
sg275
F1.0
sg263
g280
sg276
I1
sg277
F266.0081820487976
ssI112
(dp504
g8
F0.5447900295257568
sg268
S'./stimfiles/scenes/1642.jpg'
p505
sg270
F268.0
sg271
g272
sg273
I11
sg274
I2
sg275
F1.0
sg263
g280
sg276
I0
sg277
F268.00899505615234
ssI113
(dp506
g8
F0.6241018772125244
sg268
S'./stimfiles/scenes/1119.jpg'
p507
sg270
F270.0
sg271
g272
sg273
I11
sg274
I2
sg275
F1.0
sg263
g280
sg276
I0
sg277
F270.0097391605377
ssI114
(dp508
g8
F0.7511990070343018
sg268
S'./stimfiles/scenes/1642.jpg'
p509
sg270
F272.0
sg271
g272
sg273
I11
sg274
I2
sg275
F1.0
sg263
g287
sg276
I2
sg277
F272.0106611251831
ssI115
(dp510
g8
F0.8424549102783203
sg268
S'./stimfiles/scenes/1347.jpg'
p511
sg270
F274.0
sg271
g272
sg273
I11
sg274
I2
sg275
F1.0
sg263
g280
sg276
I0
sg277
F274.0114312171936
ssI116
(dp512
g8
F0.685805082321167
sg268
S'./stimfiles/scenes/1119.jpg'
p513
sg270
F276.0
sg271
g272
sg273
I11
sg274
I2
sg275
F1.0
sg263
g280
sg276
I3
sg277
F276.012216091156
ssI117
(dp514
g8
F0.7659099102020264
sg268
S'./stimfiles/scenes/1245.jpg'
p515
sg270
F278.0
sg271
g272
sg273
I11
sg274
I2
sg275
F1.0
sg263
g280
sg276
I0
sg277
F278.013060092926
ssI118
(dp516
g8
F0.6481969356536865
sg268
S'./stimfiles/scenes/8.jpg'
p517
sg270
F280.0
sg271
g272
sg273
I11
sg274
I2
sg275
F1.0
sg263
g280
sg276
I0
sg277
F280.01396107673645
ssI119
(dp518
g8
F0.5994701385498047
sg268
S'./stimfiles/scenes/1119.jpg'
p519
sg270
F282.0
sg271
g272
sg273
I11
sg274
I2
sg275
F1.0
sg263
g287
sg276
I3
sg277
F282.0147330760956
ssI120
(dp520
g8
F0.5929951667785645
sg268
S'./stimfiles/scenes/815.jpg'
p521
sg270
F306.0
sg271
g272
sg273
I12
sg274
I1
sg275
F1.0
sg263
g280
sg276
I0
sg277
F306.0078990459442
ssI121
(dp522
g8
F0.45404720306396484
sg268
S'./stimfiles/scenes/1836.jpg'
p523
sg270
F308.0
sg271
g272
sg273
I12
sg274
I1
sg275
F1.0
sg263
g280
sg276
I0
sg277
F308.00877499580383
ssI122
(dp524
g8
F0.609417200088501
sg268
S'./stimfiles/scenes/1148.jpg'
p525
sg270
F310.0
sg271
g272
sg273
I12
sg274
I1
sg275
F1.0
sg263
g280
sg276
I0
sg277
F310.0095160007477
ssI123
(dp526
g8
F0.9107239246368408
sg268
S'./stimfiles/scenes/1148.jpg'
p527
sg270
F312.0
sg271
g272
sg273
I12
sg274
I1
sg275
F1.0
sg263
g287
sg276
I1
sg277
F312.01032614707947
ssI124
(dp528
g8
F0.7428901195526123
sg268
S'./stimfiles/scenes/1148.jpg'
p529
sg270
F314.0
sg271
g272
sg273
I12
sg274
I1
sg275
F1.0
sg263
g287
sg276
I1
sg277
F314.01122403144836
ssI125
(dp530
g8
F0.5713081359863281
sg268
S'./stimfiles/scenes/1148.jpg'
p531
sg270
F316.0
sg271
g272
sg273
I12
sg274
I1
sg275
F1.0
sg263
g287
sg276
I3
sg277
F316.01195907592773
ssI126
(dp532
g8
F0.6094150543212891
sg268
S'./stimfiles/scenes/1148.jpg'
p533
sg270
F318.0
sg271
g272
sg273
I12
sg274
I1
sg275
F1.0
sg263
g287
sg276
I2
sg277
F318.01280903816223
ssI127
(dp534
g8
F0.5196130275726318
sg268
S'./stimfiles/scenes/175.jpg'
p535
sg270
F320.0
sg271
g272
sg273
I12
sg274
I1
sg275
F1.0
sg263
g280
sg276
I0
sg277
F320.01362705230713
ssI128
(dp536
g8
F0.8879299163818359
sg268
S'./stimfiles/scenes/1148.jpg'
p537
sg270
F322.0
sg271
g272
sg273
I12
sg274
I1
sg275
F1.0
sg263
g280
sg276
I2
sg277
F322.0144281387329
ssI129
(dp538
g8
F0.5762639045715332
sg268
S'./stimfiles/scenes/201.jpg'
p539
sg270
F324.0
sg271
g272
sg273
I12
sg274
I1
sg275
F1.0
sg263
g280
sg276
I0
sg277
F324.01525115966797
ssI130
(dp540
g8
F0.6144311428070068
sg268
S'./stimfiles/chinese_characters/29396.jpg'
p541
sg270
F328.0
sg271
g300
sg273
I13
sg274
I2
sg275
F1.0
sg263
g280
sg276
I0
sg277
F328.0169460773468
ssI131
(dp542
g8
F0.7208058834075928
sg268
S'./stimfiles/chinese_characters/37207.jpg'
p543
sg270
F330.0
sg271
g300
sg273
I13
sg274
I2
sg275
F1.0
sg263
g280
sg276
I0
sg277
F330.01775217056274
ssI132
(dp544
g8
F0.602053165435791
sg268
S'./stimfiles/chinese_characters/26480.jpg'
p545
sg270
F332.0
sg271
g300
sg273
I13
sg274
I2
sg275
F1.0
sg263
g280
sg276
I0
sg277
F332.01861000061035
ssI133
(dp546
g8
F0.743323802947998
sg268
S'./stimfiles/chinese_characters/29335.jpg'
p547
sg270
F334.0
sg271
g300
sg273
I13
sg274
I2
sg275
F1.0
sg263
g280
sg276
I0
sg277
F334.0193932056427
ssI134
(dp548
g8
F0.6744701862335205
sg268
S'./stimfiles/chinese_characters/25154.jpg'
p549
sg270
F336.0
sg271
g300
sg273
I13
sg274
I2
sg275
F1.0
sg263
g280
sg276
I0
sg277
F336.02027201652527
ssI135
(dp550
g8
F0.7306418418884277
sg268
S'./stimfiles/chinese_characters/20637.jpg'
p551
sg270
F338.0
sg271
g300
sg273
I13
sg274
I2
sg275
F1.0
sg263
g280
sg276
I0
sg277
F338.0209991931915
ssI136
(dp552
g8
F0.5901710987091064
sg268
S'./stimfiles/chinese_characters/25154.jpg'
p553
sg270
F340.0
sg271
g300
sg273
I13
sg274
I2
sg275
F1.0
sg263
g287
sg276
I2
sg277
F340.02191710472107
ssI137
(dp554
g8
F0.6750919818878174
sg268
S'./stimfiles/chinese_characters/25394.jpg'
p555
sg270
F342.0
sg271
g300
sg273
I13
sg274
I2
sg275
F1.0
sg263
g280
sg276
I0
sg277
F342.02267503738403
ssI138
(dp556
g8
F0.6233210563659668
sg268
S'./stimfiles/chinese_characters/35410.jpg'
p557
sg270
F344.0
sg271
g300
sg273
I13
sg274
I2
sg275
F1.0
sg263
g287
sg276
I0
sg277
F344.0235140323639
ssI139
(dp558
g8
F0.9706070423126221
sg268
S'./stimfiles/chinese_characters/35410.jpg'
p559
sg270
F346.0
sg271
g300
sg273
I13
sg274
I2
sg275
F1.0
sg263
g280
sg276
I1
sg277
F346.0243721008301
ssI140
(dp560
g8
F0.8371679782867432
sg268
S'./stimfiles/chinese_characters/25928.jpg'
p561
sg270
F350.0
sg271
g300
sg273
I14
sg274
I1
sg275
F1.0
sg263
g280
sg276
I0
sg277
F350.0259611606598
ssI141
(dp562
g8
F0.5294349193572998
sg268
S'./stimfiles/chinese_characters/25928.jpg'
p563
sg270
F352.0
sg271
g300
sg273
I14
sg274
I1
sg275
F1.0
sg263
g287
sg276
I1
sg277
F352.02680110931396
ssI142
(dp564
g8
F0.5975191593170166
sg268
S'./stimfiles/chinese_characters/35380.jpg'
p565
sg270
F354.0
sg271
g300
sg273
I14
sg274
I1
sg275
F1.0
sg263
g280
sg276
I0
sg277
F354.0109519958496
ssI143
(dp566
g8
F0.6352789402008057
sg268
S'./stimfiles/chinese_characters/25928.jpg'
p567
sg270
F356.0
sg271
g300
sg273
I14
sg274
I1
sg275
F1.0
sg263
g280
sg276
I3
sg277
F356.0118291378021
ssI144
(dp568
g8
F0.6778280735015869
sg268
S'./stimfiles/chinese_characters/25928.jpg'
p569
sg270
F358.0
sg271
g300
sg273
I14
sg274
I1
sg275
F1.0
sg263
g287
sg276
I3
sg277
F358.0125560760498
ssI145
(dp570
g8
F0.674968957901001
sg268
S'./stimfiles/chinese_characters/25928.jpg'
p571
sg270
F360.0
sg271
g300
sg273
I14
sg274
I1
sg275
F1.0
sg263
g287
sg276
I2
sg277
F360.01337122917175
ssI146
(dp572
g8
F0.5132958889007568
sg268
S'./stimfiles/chinese_characters/33274.jpg'
p573
sg270
F362.0
sg271
g300
sg273
I14
sg274
I1
sg275
F1.0
sg263
g280
sg276
I0
sg277
F362.0142152309418
ssI147
(dp574
g8
F0.6324539184570312
sg268
S'./stimfiles/chinese_characters/37228.jpg'
p575
sg270
F364.0
sg271
g300
sg273
I14
sg274
I1
sg275
F1.0
sg263
g280
sg276
I0
sg277
F364.01509523391724
ssI148
(dp576
g8
F0.6967930793762207
sg268
S'./stimfiles/chinese_characters/25928.jpg'
p577
sg270
F366.0
sg271
g300
sg273
I14
sg274
I1
sg275
F1.0
sg263
g280
sg276
I3
sg277
F366.0158350467682
ssI149
(dp578
g8
F0.6711781024932861
sg268
S'./stimfiles/chinese_characters/24649.jpg'
p579
sg270
F368.0
sg271
g300
sg273
I14
sg274
I1
sg275
F1.0
sg263
g280
sg276
I0
sg277
F368.01668906211853
ssI150
(dp580
g8
F0.6204540729522705
sg268
S'./stimfiles/faces/cropped_m1-021-01.png'
p581
sg270
F372.0
sg271
g341
sg273
I15
sg274
I1
sg275
F1.0
sg263
g280
sg276
I0
sg277
F372.01831007003784
ssI151
(dp582
g8
F0.6405940055847168
sg268
S'./stimfiles/faces/cropped_m1-021-01.png'
p583
sg270
F374.0
sg271
g341
sg273
I15
sg274
I1
sg275
F1.0
sg263
g287
sg276
I1
sg277
F374.01912117004395
ssI152
(dp584
g8
F0.7430031299591064
sg268
S'./stimfiles/faces/cropped_551.png'
p585
sg270
F376.0
sg271
g341
sg273
I15
sg274
I1
sg275
F1.0
sg263
g280
sg276
I0
sg277
F376.01993703842163
ssI153
(dp586
g8
F0.708158016204834
sg268
S'./stimfiles/faces/cropped_176.png'
p587
sg270
F378.0
sg271
g341
sg273
I15
sg274
I1
sg275
F1.0
sg263
g280
sg276
I0
sg277
F378.02079701423645
ssI154
(dp588
g8
F0.6092171669006348
sg268
S'./stimfiles/faces/cropped_551.png'
p589
sg270
F380.0
sg271
g341
sg273
I15
sg274
I1
sg275
F1.0
sg263
g280
sg276
I2
sg277
F380.0216660499573
ssI155
(dp590
g8
F0.7705459594726562
sg268
S'./stimfiles/faces/cropped_551.png'
p591
sg270
F382.0
sg271
g341
sg273
I15
sg274
I1
sg275
F1.0
sg263
g287
sg276
I1
sg277
F382.02250123023987
ssI156
(dp592
g8
F0.5899930000305176
sg268
S'./stimfiles/faces/cropped_176.png'
p593
sg270
F384.0
sg271
g341
sg273
I15
sg274
I1
sg275
F1.0
sg263
g280
sg276
I3
sg277
F384.0232582092285
ssI157
(dp594
g8
F0.7020730972290039
sg268
S'./stimfiles/faces/cropped_123.png'
p595
sg270
F386.0
sg271
g341
sg273
I15
sg274
I1
sg275
F1.0
sg263
g280
sg276
I0
sg277
F386.024090051651
ssI158
(dp596
g8
F0.8111679553985596
sg268
S'./stimfiles/faces/cropped_123.png'
p597
sg270
F388.0
sg271
g341
sg273
I15
sg274
I1
sg275
F1.0
sg263
g287
sg276
I1
sg277
F388.0248692035675
ssI159
(dp598
g8
F0.7796881198883057
sg268
S'./stimfiles/faces/cropped_123.png'
p599
sg270
F390.0
sg271
g341
sg273
I15
sg274
I1
sg275
F1.0
sg263
g287
sg276
I1
sg277
F390.02576208114624
ssI160
(dp600
g8
F0.7840089797973633
sg268
S'./stimfiles/faces/cropped_m2v1e1.png'
p601
sg270
F394.0
sg271
g341
sg273
I16
sg274
I2
sg275
F1.0
sg263
g280
sg276
I0
sg277
F394.0273690223694
ssI161
(dp602
g8
F0.7328958511352539
sg268
S'./stimfiles/faces/cropped_658.png'
p603
sg270
F396.0
sg271
g341
sg273
I16
sg274
I2
sg275
F1.0
sg263
g280
sg276
I0
sg277
F396.01153016090393
ssI162
(dp604
g8
F0.8512229919433594
sg268
S'./stimfiles/faces/cropped_m4014.png'
p605
sg270
F398.0
sg271
g341
sg273
I16
sg274
I2
sg275
F1.0
sg263
g280
sg276
I0
sg277
F398.012323141098
ssI163
(dp606
g8
F0.8433840274810791
sg268
S'./stimfiles/faces/cropped_m2v1e1.png'
p607
sg270
F400.0
sg271
g341
sg273
I16
sg274
I2
sg275
F1.0
sg263
g280
sg276
I3
sg277
F400.0131940841675
ssI164
(dp608
g8
F0.8096990585327148
sg268
S'./stimfiles/faces/cropped_199.png'
p609
sg270
F402.0
sg271
g341
sg273
I16
sg274
I2
sg275
F1.0
sg263
g280
sg276
I0
sg277
F402.01397013664246
ssI165
(dp610
g8
F0.8328859806060791
sg268
S'./stimfiles/faces/cropped_m7v1e1.png'
p611
sg270
F404.0
sg271
g341
sg273
I16
sg274
I2
sg275
F1.0
sg263
g280
sg276
I0
sg277
F404.014799118042
ssI166
(dp612
g8
F0.7872288227081299
sg268
S'./stimfiles/faces/cropped_571.png'
p613
sg270
F406.0
sg271
g341
sg273
I16
sg274
I2
sg275
F1.0
sg263
g280
sg276
I0
sg277
F406.015652179718
ssI167
(dp614
g8
F0.9733500480651855
sg268
S'./stimfiles/faces/cropped_m7v1e1.png'
p615
sg270
F408.0
sg271
g341
sg273
I16
sg274
I2
sg275
F1.0
sg263
g287
sg276
I2
sg277
F408.0164051055908
ssI168
(dp616
g8
F0.9855618476867676
sg268
S'./stimfiles/faces/cropped_571.png'
p617
sg270
F410.0
sg271
g341
sg273
I16
sg274
I2
sg275
F1.0
sg263
g287
sg276
I2
sg277
F410.0172941684723
ssI169
(dp618
g8
F0.6648640632629395
sg268
S'./stimfiles/faces/cropped_212.png'
p619
sg270
F412.0
sg271
g341
sg273
I16
sg274
I2
sg275
F1.0
sg263
g280
sg276
I0
sg277
F412.01808309555054
ssI170
(dp620
g8
F0.659337043762207
sg268
S'./stimfiles/scenes/1081.jpg'
p621
sg270
F416.0
sg271
g272
sg273
I17
sg274
I2
sg275
F1.0
sg263
g280
sg276
I0
sg277
F416.01971912384033
ssI171
(dp622
g8
F0.6753630638122559
sg268
S'./stimfiles/scenes/1087.jpg'
p623
sg270
F418.0
sg271
g272
sg273
I17
sg274
I2
sg275
F1.0
sg263
g280
sg276
I0
sg277
F418.02058601379395
ssI172
(dp624
g8
F0.5136690139770508
sg268
S'./stimfiles/scenes/1081.jpg'
p625
sg270
F420.0
sg271
g272
sg273
I17
sg274
I2
sg275
F1.0
sg263
g287
sg276
I2
sg277
F420.0213460922241
ssI173
(dp626
g8
F0.7780148983001709
sg268
S'./stimfiles/scenes/1087.jpg'
p627
sg270
F422.0
sg271
g272
sg273
I17
sg274
I2
sg275
F1.0
sg263
g287
sg276
I2
sg277
F422.0222051143646
ssI174
(dp628
g8
F0.771233081817627
sg268
S'./stimfiles/scenes/435.jpg'
p629
sg270
F424.0
sg271
g272
sg273
I17
sg274
I2
sg275
F1.0
sg263
g280
sg276
I0
sg277
F424.0230391025543
ssI175
(dp630
g8
F0.7541830539703369
sg268
S'./stimfiles/scenes/435.jpg'
p631
sg270
F426.0
sg271
g272
sg273
I17
sg274
I2
sg275
F1.0
sg263
g280
sg276
I1
sg277
F426.0071790218353
ssI176
(dp632
g8
F0.8243520259857178
sg268
S'./stimfiles/scenes/1087.jpg'
p633
sg270
F428.0
sg271
g272
sg273
I17
sg274
I2
sg275
F1.0
sg263
g280
sg276
I3
sg277
F428.0080270767212
ssI177
(dp634
g8
F0.75559401512146
sg268
S'./stimfiles/scenes/1769.jpg'
p635
sg270
F430.0
sg271
g272
sg273
I17
sg274
I2
sg275
F1.0
sg263
g280
sg276
I0
sg277
F430.0088801383972
ssI178
(dp636
g8
F0.5307321548461914
sg268
S'./stimfiles/scenes/1087.jpg'
p637
sg270
F432.0
sg271
g272
sg273
I17
sg274
I2
sg275
F1.0
sg263
g287
sg276
I2
sg277
F432.0096700191498
ssI179
(dp638
g8
F0.872844934463501
sg268
S'./stimfiles/scenes/1769.jpg'
p639
sg270
F434.0
sg271
g272
sg273
I17
sg274
I2
sg275
F1.0
sg263
g287
sg276
I2
sg277
F434.01049518585205
sssS'stim_log'
p640
(dp641
sS'nstims'
p642
I5
sS'inter_stim_int'
p643
F1.0
sS'SS'
p644
(dp645
sS'inst_time'
p646
F1.0
sS'broke_on_trial'
p647
(dp648
sS'events'
p649
(lp650
(lp651
F0.0
aI0
aI1
aI0
aS'inst'
p652
aa(lp653
F2.0
aI0
aI1
aI0
ag269
aa(lp654
F4.0
aI0
aI1
aI0
ag279
aa(lp655
F6.0
aI0
aI1
aI0
ag282
aa(lp656
F8.0
aI0
aI1
aI0
ag284
aa(lp657
F10.0
aI0
aI1
aI1
ag286
aa(lp658
F12.0
aI0
aI1
aI0
ag289
aa(lp659
F14.0
aI0
aI1
aI0
ag291
aa(lp660
F16.0
aI0
aI1
aI0
ag293
aa(lp661
F18.0
aI0
aI1
aI1
ag295
aa(lp662
F20.0
aI0
aI1
aI3
ag297
aa(lp663
F22.0
aI1
aI2
aI0
aS'inst'
p664
aa(lp665
F24.0
aI1
aI2
aI0
ag299
aa(lp666
F26.0
aI1
aI2
aI0
ag302
aa(lp667
F28.0
aI1
aI2
aI0
ag304
aa(lp668
F30.0
aI1
aI2
aI1
ag306
aa(lp669
F32.0
aI1
aI2
aI0
ag308
aa(lp670
F34.0
aI1
aI2
aI3
ag310
aa(lp671
F36.0
aI1
aI2
aI2
ag312
aa(lp672
F38.0
aI1
aI2
aI1
ag314
aa(lp673
F40.0
aI1
aI2
aI3
ag316
aa(lp674
F42.0
aI1
aI2
aI0
ag318
aa(lp675
F44.0
aI2
aI1
aI0
aS'inst'
p676
aa(lp677
F46.0
aI2
aI1
aI0
ag320
aa(lp678
F48.0
aI2
aI1
aI0
ag322
aa(lp679
F50.0
aI2
aI1
aI2
ag324
aa(lp680
F52.0
aI2
aI1
aI2
ag326
aa(lp681
F54.0
aI2
aI1
aI0
ag328
aa(lp682
F56.0
aI2
aI1
aI1
ag330
aa(lp683
F58.0
aI2
aI1
aI0
ag332
aa(lp684
F60.0
aI2
aI1
aI0
ag334
aa(lp685
F62.0
aI2
aI1
aI0
ag336
aa(lp686
F64.0
aI2
aI1
aI0
ag338
aa(lp687
F66.0
aI3
aI1
aI0
aS'inst'
p688
aa(lp689
F68.0
aI3
aI1
aI0
ag340
aa(lp690
F70.0
aI3
aI1
aI0
ag343
aa(lp691
F72.0
aI3
aI1
aI0
ag345
aa(lp692
F74.0
aI3
aI1
aI0
ag347
aa(lp693
F76.0
aI3
aI1
aI0
ag349
aa(lp694
F78.0
aI3
aI1
aI3
ag351
aa(lp695
F80.0
aI3
aI1
aI0
ag353
aa(lp696
F82.0
aI3
aI1
aI0
ag355
aa(lp697
F84.0
aI3
aI1
aI0
ag357
aa(lp698
F86.0
aI3
aI1
aI0
ag359
aa(lp699
F88.0
aI4
aI2
aI0
aS'inst'
p700
aa(lp701
F90.0
aI4
aI2
aI0
ag361
aa(lp702
F92.0
aI4
aI2
aI0
ag363
aa(lp703
F94.0
aI4
aI2
aI0
ag365
aa(lp704
F96.0
aI4
aI2
aI3
ag367
aa(lp705
F98.0
aI4
aI2
aI2
ag369
aa(lp706
F100.0
aI4
aI2
aI0
ag371
aa(lp707
F102.0
aI4
aI2
aI2
ag373
aa(lp708
F104.0
aI4
aI2
aI0
ag375
aa(lp709
F106.0
aI4
aI2
aI0
ag377
aa(lp710
F108.0
aI4
aI2
aI3
ag379
aa(lp711
F110.0
aI5
aI2
aI0
aS'inst'
p712
aa(lp713
F112.0
aI5
aI2
aI0
ag381
aa(lp714
F114.0
aI5
aI2
aI1
ag383
aa(lp715
F116.0
aI5
aI2
aI0
ag385
aa(lp716
F118.0
aI5
aI2
aI0
ag387
aa(lp717
F120.0
aI5
aI2
aI0
ag389
aa(lp718
F122.0
aI5
aI2
aI0
ag391
aa(lp719
F124.0
aI5
aI2
aI0
ag393
aa(lp720
F126.0
aI5
aI2
aI0
ag395
aa(lp721
F128.0
aI5
aI2
aI0
ag397
aa(lp722
F130.0
aI5
aI2
aI2
ag399
aa(lp723
F152.0
aI0
aI1
aI0
aS'inst'
p724
aa(lp725
F154.0
aI6
aI1
aI0
ag401
aa(lp726
F156.0
aI6
aI1
aI1
ag403
aa(lp727
F158.0
aI6
aI1
aI0
ag405
aa(lp728
F160.0
aI6
aI1
aI3
ag407
aa(lp729
F162.0
aI6
aI1
aI2
ag409
aa(lp730
F164.0
aI6
aI1
aI0
ag411
aa(lp731
F166.0
aI6
aI1
aI1
ag413
aa(lp732
F168.0
aI6
aI1
aI0
ag415
aa(lp733
F170.0
aI6
aI1
aI0
ag417
aa(lp734
F172.0
aI6
aI1
aI0
ag419
aa(lp735
F174.0
aI1
aI2
aI0
aS'inst'
p736
aa(lp737
F176.0
aI7
aI2
aI0
ag421
aa(lp738
F178.0
aI7
aI2
aI0
ag423
aa(lp739
F180.0
aI7
aI2
aI2
ag425
aa(lp740
F182.0
aI7
aI2
aI0
ag427
aa(lp741
F184.0
aI7
aI2
aI0
ag429
aa(lp742
F186.0
aI7
aI2
aI2
ag431
aa(lp743
F188.0
aI7
aI2
aI2
ag433
aa(lp744
F190.0
aI7
aI2
aI2
ag435
aa(lp745
F192.0
aI7
aI2
aI0
ag437
aa(lp746
F194.0
aI7
aI2
aI3
ag439
aa(lp747
F196.0
aI2
aI1
aI0
aS'inst'
p748
aa(lp749
F198.0
aI8
aI1
aI0
ag441
aa(lp750
F200.0
aI8
aI1
aI0
ag443
aa(lp751
F202.0
aI8
aI1
aI0
ag445
aa(lp752
F204.0
aI8
aI1
aI0
ag447
aa(lp753
F206.0
aI8
aI1
aI1
ag449
aa(lp754
F208.0
aI8
aI1
aI0
ag451
aa(lp755
F210.0
aI8
aI1
aI1
ag453
aa(lp756
F212.0
aI8
aI1
aI1
ag455
aa(lp757
F214.0
aI8
aI1
aI1
ag457
aa(lp758
F216.0
aI8
aI1
aI0
ag459
aa(lp759
F218.0
aI3
aI1
aI0
aS'inst'
p760
aa(lp761
F220.0
aI9
aI1
aI0
ag461
aa(lp762
F222.0
aI9
aI1
aI1
ag463
aa(lp763
F224.0
aI9
aI1
aI0
ag465
aa(lp764
F226.0
aI9
aI1
aI2
ag467
aa(lp765
F228.0
aI9
aI1
aI0
ag469
aa(lp766
F230.0
aI9
aI1
aI0
ag471
aa(lp767
F232.0
aI9
aI1
aI2
ag473
aa(lp768
F234.0
aI9
aI1
aI0
ag475
aa(lp769
F236.0
aI9
aI1
aI1
ag477
aa(lp770
F238.0
aI9
aI1
aI3
ag479
aa(lp771
F240.0
aI4
aI2
aI0
aS'inst'
p772
aa(lp773
F242.0
aI10
aI2
aI0
ag481
aa(lp774
F244.0
aI10
aI2
aI1
ag483
aa(lp775
F246.0
aI10
aI2
aI0
ag485
aa(lp776
F248.0
aI10
aI2
aI0
ag487
aa(lp777
F250.0
aI10
aI2
aI1
ag489
aa(lp778
F252.0
aI10
aI2
aI0
ag491
aa(lp779
F254.0
aI10
aI2
aI2
ag493
aa(lp780
F256.0
aI10
aI2
aI2
ag495
aa(lp781
F258.0
aI10
aI2
aI1
ag497
aa(lp782
F260.0
aI10
aI2
aI0
ag499
aa(lp783
F262.0
aI5
aI2
aI0
aS'inst'
p784
aa(lp785
F264.0
aI11
aI2
aI0
ag501
aa(lp786
F266.0
aI11
aI2
aI1
ag503
aa(lp787
F268.0
aI11
aI2
aI0
ag505
aa(lp788
F270.0
aI11
aI2
aI0
ag507
aa(lp789
F272.0
aI11
aI2
aI2
ag509
aa(lp790
F274.0
aI11
aI2
aI0
ag511
aa(lp791
F276.0
aI11
aI2
aI3
ag513
aa(lp792
F278.0
aI11
aI2
aI0
ag515
aa(lp793
F280.0
aI11
aI2
aI0
ag517
aa(lp794
F282.0
aI11
aI2
aI3
ag519
aa(lp795
F304.0
aI0
aI1
aI0
aS'inst'
p796
aa(lp797
F306.0
aI12
aI1
aI0
ag521
aa(lp798
F308.0
aI12
aI1
aI0
ag523
aa(lp799
F310.0
aI12
aI1
aI0
ag525
aa(lp800
F312.0
aI12
aI1
aI1
ag527
aa(lp801
F314.0
aI12
aI1
aI1
ag529
aa(lp802
F316.0
aI12
aI1
aI3
ag531
aa(lp803
F318.0
aI12
aI1
aI2
ag533
aa(lp804
F320.0
aI12
aI1
aI0
ag535
aa(lp805
F322.0
aI12
aI1
aI2
ag537
aa(lp806
F324.0
aI12
aI1
aI0
ag539
aa(lp807
F326.0
aI1
aI2
aI0
aS'inst'
p808
aa(lp809
F328.0
aI13
aI2
aI0
ag541
aa(lp810
F330.0
aI13
aI2
aI0
ag543
aa(lp811
F332.0
aI13
aI2
aI0
ag545
aa(lp812
F334.0
aI13
aI2
aI0
ag547
aa(lp813
F336.0
aI13
aI2
aI0
ag549
aa(lp814
F338.0
aI13
aI2
aI0
ag551
aa(lp815
F340.0
aI13
aI2
aI2
ag553
aa(lp816
F342.0
aI13
aI2
aI0
ag555
aa(lp817
F344.0
aI13
aI2
aI0
ag557
aa(lp818
F346.0
aI13
aI2
aI1
ag559
aa(lp819
F348.0
aI2
aI1
aI0
aS'inst'
p820
aa(lp821
F350.0
aI14
aI1
aI0
ag561
aa(lp822
F352.0
aI14
aI1
aI1
ag563
aa(lp823
F354.0
aI14
aI1
aI0
ag565
aa(lp824
F356.0
aI14
aI1
aI3
ag567
aa(lp825
F358.0
aI14
aI1
aI3
ag569
aa(lp826
F360.0
aI14
aI1
aI2
ag571
aa(lp827
F362.0
aI14
aI1
aI0
ag573
aa(lp828
F364.0
aI14
aI1
aI0
ag575
aa(lp829
F366.0
aI14
aI1
aI3
ag577
aa(lp830
F368.0
aI14
aI1
aI0
ag579
aa(lp831
F370.0
aI3
aI1
aI0
aS'inst'
p832
aa(lp833
F372.0
aI15
aI1
aI0
ag581
aa(lp834
F374.0
aI15
aI1
aI1
ag583
aa(lp835
F376.0
aI15
aI1
aI0
ag585
aa(lp836
F378.0
aI15
aI1
aI0
ag587
aa(lp837
F380.0
aI15
aI1
aI2
ag589
aa(lp838
F382.0
aI15
aI1
aI1
ag591
aa(lp839
F384.0
aI15
aI1
aI3
ag593
aa(lp840
F386.0
aI15
aI1
aI0
ag595
aa(lp841
F388.0
aI15
aI1
aI1
ag597
aa(lp842
F390.0
aI15
aI1
aI1
ag599
aa(lp843
F392.0
aI4
aI2
aI0
aS'inst'
p844
aa(lp845
F394.0
aI16
aI2
aI0
ag601
aa(lp846
F396.0
aI16
aI2
aI0
ag603
aa(lp847
F398.0
aI16
aI2
aI0
ag605
aa(lp848
F400.0
aI16
aI2
aI3
ag607
aa(lp849
F402.0
aI16
aI2
aI0
ag609
aa(lp850
F404.0
aI16
aI2
aI0
ag611
aa(lp851
F406.0
aI16
aI2
aI0
ag613
aa(lp852
F408.0
aI16
aI2
aI2
ag615
aa(lp853
F410.0
aI16
aI2
aI2
ag617
aa(lp854
F412.0
aI16
aI2
aI0
ag619
aa(lp855
F414.0
aI5
aI2
aI0
aS'inst'
p856
aa(lp857
F416.0
aI17
aI2
aI0
ag621
aa(lp858
F418.0
aI17
aI2
aI0
ag623
aa(lp859
F420.0
aI17
aI2
aI2
ag625
aa(lp860
F422.0
aI17
aI2
aI2
ag627
aa(lp861
F424.0
aI17
aI2
aI0
ag629
aa(lp862
F426.0
aI17
aI2
aI1
ag631
aa(lp863
F428.0
aI17
aI2
aI3
ag633
aa(lp864
F430.0
aI17
aI2
aI0
ag635
aa(lp865
F432.0
aI17
aI2
aI2
ag637
aa(lp866
F434.0
aI17
aI2
aI2
ag639
aasS'is_this_SS_trial'
p867
(dp868
sS'subcode'
p869
S'self_tracking_0023'
p870
sS'start_key'
p871
S'5'
p872
s.