(dp0
S'stim_onset_time'
p1
(dp2
sS'datestamp'
p3
S'2013-01-17-07_49_44'
p4
sS'ntrials_per_block'
p5
I6
sS'expt_title'
p6
S'Self_Tracking'
p7
sS'rt'
p8
(dp9
sS'simulated_response'
p10
I00
sS'script'
p11
(lp12
S'#!/usr/bin/env python\n'
p13
aS'\n'
p14
aS'import psychopy\n'
p15
aS'from psychopy import visual, core, event, logging, data, misc, sound\n'
p16
aS'import numpy as N\n'
p17
aS'import pickle,csv\n'
p18
aS'import datetime\n'
p19
aS'import sys\n'
p20
aS'import os, socket, random\n'
p21
aS'import inspect\n'
p22
aS'import hashlib\n'
p23
aS'from socket import gethostname\n'
p24
aS'import exptutils\n'
p25
aS'from exptutils import *\n'
p26
aS'from pylab import imread\n'
p27
ag14
aS'try:\n'
p28
aS'    from save_data_to_db import *\n'
p29
aS'    save_data=1\n'
p30
aS'except:\n'
p31
aS"    print 'cannnot import save_data_to_db'\n"
p32
aS'    save_data=0\n'
p33
ag14
aS'def store_scriptfile():\n'
p34
aS'    scriptfile= inspect.getfile(inspect.currentframe())# save a copy of the script in the data file\n'
p35
aS'    f=open(scriptfile)\n'
p36
aS'    script=f.readlines()\n'
p37
aS'    f.close()\n'
p38
aS'    return script\n'
p39
ag14
aS'#\n'
p40
aS'#- - - - - - - - - - - - - - - - - - - - - - - - - - - - - - - - - - - - - - - - - - - - - - - - - - - - - - - - - - - - - - - - - - - - - - - - - - - - - -\n'
p41
aS'#define functions for awaiting keyboard input & displaying initial instructions\n'
p42
aS'#these functions will be called prior to the stim_block() function (at bottom)\n'
p43
ag14
aS'def wait_for_trigger():\n'
p44
aS'    event.clearEvents()\n'
p45
aS"    if subdata['simulated_response']:\n"
p46
aS'        msg="SIMULATION MODE"\n'
p47
aS'    else:\n'
p48
aS"        msg=''\n"
p49
aS"    message=visual.TextStim(win, text='%s Waiting for start key (or press %s)'%(msg,subdata['start_key']),\n"
p50
aS"    font='BiauKai', height=1,color=u'white', colorSpace=u'rgb', opacity=1,depth=0.0,\n"
p51
aS"    alignHoriz='center',wrapWidth=50)\n"
p52
aS'    message.setAutoDraw(True) #automatically draw every frame\n'
p53
aS'    win.flip()\n'
p54
aS'    start=False\n'
p55
aS'    while start==False:\n'
p56
aS'        k=event.waitKeys()\n'
p57
aS"        if k.count(subdata['start_key'])>0:#as soon as subdata['start_key'] is pressed...\n"
p58
aS'            start=True\n'
p59
aS"            message.setText('')#this clears the screen\n"
p60
aS'            win.flip()\n'
p61
aS"        if k.count(subdata['quit_key']) >0:# if subdata['quit_key'] is pressed...\n"
p62
aS'            exptutils.shut_down_cleanly(subdata,win)\n'
p63
aS'            return subdata\n'
p64
aS'            \n'
p65
aS"def instructions(n,duration):#n here changes depending on the n-back level; yes/no will also switch between 'u' & 'i' keys depending on the Order number selected\n"
p66
aS'    event.clearEvents()\n'
p67
aS"    instructions=visual.TextStim(win=win, ori=0, name='instructions',font='BiauKai',\n"
p68
aS"        text='%d back'%n,\n"
p69
aS"        height=2,color=u'white', colorSpace=u'rgb', alignHoriz='center',wrapWidth=50)\n"
p70
aS'    instructions.setAutoDraw(True)\n'
p71
aS'    win.flip()\n'
p72
aS'    core.wait(duration)#currently it is set up to keep instructions on screen the designated amt of time; a button press will not end these instructions sooner\n'
p73
aS"    instructions.setText('')\n"
p74
aS'    win.flip()\n'
p75
ag14
aS'#- - - - - - - - - - - - - - - - - - - - - - - - - - - - - - - - - - - - - - - - - - - - - - - - - - - - - - - - - - - - - - - - - - - - - - - - \n'
p76
ag14
ag14
aS'#define function for displaying visual stims for each trial on n-back task\n'
p77
ag14
aS'def draw_stim(win,event_info,subdata,visual_stim):\n'
p78
aS'    trialdata={}\n'
p79
aS"    trialdata['duration']=subdata['stim_dur']\n"
p80
aS"    trialdata['onset'],trialdata['block'],trialdata['nback'],trialdata['match'],trialdata['stim']=event_info\n"
p81
aS'    # NB: I removed a lot of data handling stuff from within this function\n'
p82
aS'    # instead, the data get returned and handled at the calling level\n'
p83
aS"    print trialdata['stim']\n"
p84
aS"    if trialdata['stim'].find('faces')>-1:#if it is a face image, display vertically\n"
p85
aS"        stim_type='faces'\n"
p86
aS"    elif trialdata['stim'].find('scenes')>-1:#\n"
p87
aS"        stim_type='scenes'\n"
p88
aS'    else:#if it is a character, display as text\n'
p89
aS"        stim_type='chinese_characters'\n"
p90
aS'        \n'
p91
aS"    visual_stim.setImage(trialdata['stim'])\n"
p92
aS"    trialdata['stim_type']=stim_type\n"
p93
aS'    \n'
p94
aS'        #visual_stim[stim_type].setAutoDraw(True)#get the image ready to display\n'
p95
aS'    visual_stim.draw()\n'
p96
aS"    while clock.getTime()<trialdata['onset']:#wait until the specified onset time to display image_file\n"
p97
aS'        pass\n'
p98
aS'    win.flip()\n'
p99
aS"    trialdata['actual_onset_time']=clock.getTime()\n"
p100
aS'    event.clearEvents()#clear all button presses\n'
p101
aS'    thisResp=None\n'
p102
aS'    simulated_rt=0.5 + N.random.rand()*0.1\n'
p103
aS"    while clock.getTime() < (trialdata['actual_onset_time'] + trialdata['duration']):#before the subdata['stim_dur'] time is exceeded, do this stuff...\n"
p104
aS'            key_response=event.getKeys()#look for yes,no, and quit commands\n'
p105
aS"            if subdata['simulated_response']:\n"
p106
aS"                if clock.getTime()> trialdata['actual_onset_time'] + simulated_rt:\n"
p107
aS'                    thisResp=1\n'
p108
aS"                    trialdata['rt']=clock.getTime() - trialdata['actual_onset_time'] #collect rt\n"
p109
aS"                    if trialdata['match']==trialdata['nback']:\n"
p110
aS"                        trialdata['response']='4'\n"
p111
aS'                    else:\n'
p112
aS"                        trialdata['response']='1'\n"
p113
ag14
aS'            elif key_response:#if they press any button\n'
p114
aS"                if key_response.count(subdata['quit_key'])>0:#if subj hits subdata['quit_key']...\n"
p115
aS'                    keep_going=0\n'
p116
aS"                    #subdata['broke_on_trial'][which_block]=trial_num\n"
p117
aS'                    #shut_down_cleanly(subdata,win)\n'
p118
aS'                    return None\n'
p119
aS"                elif key_response.count('5')>0:\n"
p120
aS"                    subdata['trigger_times'].append(clock.getTime())\n"
p121
aS'                else:\n'
p122
aS'                    thisResp=1\n'
p123
aS"                    trialdata['rt']=clock.getTime() - trialdata['actual_onset_time'] #collect rt\n"
p124
aS"                    trialdata['response']=key_response[0]#collect response\n"
p125
ag14
aS'    visual_stim.clearTextures()\n'
p126
ag14
aS'    win.flip()\n'
p127
ag14
aS'    #del visual_stim\n'
p128
aS'    return trialdata\n'
p129
aS'    \n'
p130
ag14
ag14
aS'#Text saying the task has finished. Disappears with key press\n'
p131
ag14
aS'def display_finished_text():#finished with experiment\n'
p132
aS'    event.clearEvents()\n'
p133
aS'    message=visual.TextStim(win=win, ori=0,\n'
p134
aS"    text='All finished! Thanks  :) \\n Press any key to clear the screen.',\n"
p135
aS"    font=u'BiauKai',pos=[0, 0], height=2,color=u'white', colorSpace=u'rgb', opacity=1,depth=0.0,alignHoriz='center',wrapWidth=50)\n"
p136
aS'    message.setAutoDraw(True) \n'
p137
aS'    win.flip()\n'
p138
aS'    start=False\n'
p139
aS'    while start==False:\n'
p140
aS'        key_response=event.getKeys()\n'
p141
aS'        if len(key_response)>0:\n'
p142
aS'            start=True\n'
p143
aS"            message.setText('')#this clears the screen\n"
p144
aS'            win.flip()\n'
p145
aS'    return start\n'
p146
aS'#- - - - - - - - - - - - - - - - - - - - - - - - - - - - - - - - - - - - - - - - - - - - - - - - - - - - - - - - - - - - - - - - - - - - - - \n'
p147
ag14
aS'    \n'
p148
aS'#set-up some variables\n'
p149
ag14
aS'verbose=True\n'
p150
aS'fullscr=False  # change to True for full screen display\n'
p151
ag14
aS"stim_types=['faces','scenes','chinese_characters']\n"
p152
aS'subdata={}\n'
p153
aS'finish_time=440\n'
p154
ag14
aS"subdata['start_key']='5'\n"
p155
aS"subdata['quit_key']='q'\n"
p156
aS"subdata['discard_time_to_wait']=0.0\n"
p157
aS"subdata['expt_title']='Self_Tracking'\n"
p158
aS"subdata['stim_dur']=1.0\n"
p159
aS"subdata['inter_stim_int']=1.0\n"
p160
aS"subdata['inst_time']=1.0\n"
p161
aS"subdata['rest_time']=10.0\n"
p162
aS"subdata['ExpVersion']=0.1\n"
p163
aS"subdata['nstims']=5\n"
p164
aS"subdata['ntrials_per_block']=6\n"
p165
aS"subdata['simulated_response']=False\n"
p166
aS"subdata['trigger_times']=[]\n"
p167
ag14
aS'if len(sys.argv)<2:\n'
p168
aS"    print 'USAGE: self_tracking.py <stimlist> <session code>'\n"
p169
aS'    sys.exit()\n'
p170
aS"    #subdata['onsetfile']='/Users/poldrack/Dropbox/Documents/Projects/self-tracking/task/onsetlists/stimlist_000.txt'\n"
p171
aS'else:\n'
p172
aS"    subdata['onsetfile']=sys.argv[1]\n"
p173
aS"    subdata['subcode']=sys.argv[2]\n"
p174
ag14
ag14
aS'# initialize subdata dictionary to store info about the study\n'
p175
aS"subdata['completed']=0\n"
p176
aS"subdata['cwd']=os.getcwd()\n"
p177
aS"subdata['hostname']=socket.gethostname()\n"
p178
aS'clock=core.Clock()\n'
p179
aS'datestamp=datetime.datetime.now().strftime("%Y-%m-%d-%H_%M_%S")\n'
p180
aS"subdata['datestamp']=datestamp\n"
p181
aS"subdata['expt_title']=subdata['expt_title']\n"
p182
aS"subdata['script']=store_scriptfile()\n"
p183
aS"subdata['onsets']=subdata['onsetfile']\n"
p184
ag14
aS'#these are all sub-dictionaries which will be appended w/separate info for each block & each trial\n'
p185
aS"#i.e., the 'response' dictionary will contain the following dictionaries: face_1, face_2, scenes_1, scenes_2, whose keys are trial_num and values are the responses on that trial\n"
p186
aS"subdata['response']={}\n"
p187
aS"subdata['score']={}\n"
p188
aS"subdata['rt']={}\n"
p189
aS"subdata['stim_onset_time']={}\n"
p190
aS"subdata['stim_log']={}\n"
p191
aS"subdata['is_this_SS_trial']={}\n"
p192
aS"subdata['SS']={}\n"
p193
aS"subdata['broke_on_trial']={}\n"
p194
ag14
aS'# set up logging information & create Output directories\n'
p195
aS"if not os.path.isdir('Output'):#make an Output directory if necessary\n"
p196
aS"    os.makedirs('Output') \n"
p197
ag14
aS"dataFileName='Output/%s_%s_subdata.log'%(subdata['subcode'],subdata['datestamp'])\n"
p198
aS'logging.console.setLevel(logging.INFO)\n'
p199
aS'logfile=logging.LogFile(dataFileName,level=logging.INFO)\n'
p200
ag14
aS'# load stimulus file\n'
p201
ag14
aS'def load_stimulus_file(onsfile):\n'
p202
aS'    events=[]\n'
p203
aS'    f=open(onsfile)\n'
p204
aS'    l=f.readlines()\n'
p205
aS'    for line in l:\n'
p206
aS"        l_s=line.strip('\\n').split('\\t')\n"
p207
aS'        events.append([float(l_s[0]),int(l_s[1]),int(l_s[2]),int(l_s[3]),l_s[4]])\n'
p208
aS'    f.close()\n'
p209
aS'    return events\n'
p210
ag14
aS"events=load_stimulus_file(subdata['onsetfile'])\n"
p211
ag14
aS'# set up the window \n'
p212
aS"win = visual.Window([800,600],allowGUI=True, fullscr=True, monitor='testMonitor', units='deg')\n"
p213
aS"win.setColor('black')\n"
p214
aS'win.flip()\n'
p215
aS'win.flip()\n'
p216
ag14
aS'#integrating everything together\n'
p217
ag14
aS"subdata['trialdata']={}\n"
p218
aS'#chardict=create_characters_dict()\n'
p219
ag14
aS"wait_for_trigger()#wait for subdata['start_key'] to be pressed\n"
p220
ag14
aS'visual_stim={}\n'
p221
aS"visual_stim=visual.ImageStim(win, image=N.zeros((10,10)), size=(0.75,0.75),units='height')\n"
p222
ag14
aS'# set clock to zero\n'
p223
aS'clock.reset()\n'
p224
aS'trialctr=0\n'
p225
aS'for i in range(len(events)):\n'
p226
aS"    if events[i][4]=='inst':\n"
p227
aS'        while clock.getTime() < events[i][0]:\n'
p228
aS'            pass\n'
p229
aS"        instructions(events[i][2],subdata['inst_time'])\n"
p230
aS'    else:\n'
p231
aS"        subdata['trialdata'][trialctr]=draw_stim(win,events[i],subdata,visual_stim)\n"
p232
aS"        if subdata['trialdata'][trialctr]==None:\n"
p233
aS'            break\n'
p234
aS'        trialctr+=1\n'
p235
aS"        print 'return time:',clock.getTime()\n"
p236
ag14
aS'#display_finished_text()\n'
p237
aS'while clock.getTime()<finish_time:\n'
p238
aS'\tpass\n'
p239
aS'\t\n'
p240
aS"subdata['events']=events\n"
p241
aS'if save_data==1:\n'
p242
aS"    docId,docRev=save_data_to_db(subdata,'selftracking-taskdata')\n"
p243
ag14
aS'shut_down_cleanly(subdata,win)\n'
p244
asS'onsets'
p245
S'onsetlists/stimlist_005.txt'
p246
sS'hostname'
p247
S'IRC-arizona'
p248
sS'score'
p249
(dp250
sS'rest_time'
p251
F10.0
sS'cwd'
p252
S'/Users/rap2623/Dropbox/Documents/Projects/self-tracking/task'
p253
sS'trigger_times'
p254
(lp255
F2.2762861251831055
aF4.596373081207275
aF6.916368007659912
aF8.076584100723267
aF10.396548986434937
aF12.716447114944458
aF16.196686029434204
aF18.516746997833252
aF20.836801052093506
aF24.316972970962524
aF26.636969089508057
aF28.9570209980011
aF30.11715793609619
aF32.43704104423523
aF34.75723195075989
aF38.23738408088684
aF40.55740308761597
aF42.877387046813965
aF46.35753011703491
aF48.677541971206665
aF50.99664807319641
aF52.15678310394287
aF54.4767849445343
aF56.79680800437927
aF60.27703094482422
aF62.59698414802551
aF64.91700506210327
aF68.39715504646301
aF70.71725392341614
aF74.197340965271
aF76.51743698120117
aF78.83750510215759
aF82.31755900382996
aF84.63769292831421
aF86.9576780796051
aF90.43778991699219
aF92.75786995887756
aF96.23793196678162
aF98.55818200111389
aF100.87706995010376
aF102.03732705116272
aF104.35709810256958
aF106.67724299430847
aF108.9972939491272
aF112.47748494148254
aF114.79741096496582
aF118.2775981426239
aF120.59756398200989
aF122.91760110855103
aF124.0778341293335
aF126.39781403541565
aF128.71784496307373
aF154.23784708976746
aF156.5576810836792
aF158.87773394584656
aF160.03789710998535
aF162.35780096054077
aF164.6779170036316
aF166.99793410301208
aF168.158105134964
aF170.4781219959259
aF172.79815793037415
aF176.2783019542694
aF178.59839296340942
aF180.91829299926758
aF182.07852506637573
aF184.39846205711365
aF186.71852707862854
aF190.19866299629211
aF192.518639087677
aF194.83876013755798
aF198.3190040588379
aF200.63892912864685
aF202.95800113677979
aF204.1181559562683
aF206.4380829334259
aF208.75815796852112
aF212.23824095726013
aF214.5583460330963
aF216.87835311889648
aF220.35837197303772
aF222.67848801612854
aF224.9985909461975
aF226.1586630344391
aF228.4787471294403
aF230.79876899719238
aF234.2788951396942
aF236.59894704818726
aF238.91902709007263
aF242.3991129398346
aF244.71915411949158
aF248.19932007789612
aF250.5193841457367
aF252.83839201927185
aF256.3185329437256
aF258.6385850906372
aF260.9586420059204
aF264.43882298469543
aF266.75872802734375
aF270.2389409542084
aF272.559072971344
aF274.879154920578
aF276.0392220020294
aF278.35917496681213
aF280.67903304100037
aF282.99926710128784
aF306.19897508621216
aF308.5190460681915
aF310.8390579223633
aF314.31913208961487
aF316.6392340660095
aF318.9592750072479
aF320.1194770336151
aF322.4394419193268
aF324.7596709728241
aF328.2393980026245
aF330.55963110923767
aF332.8797209262848
aF334.0398700237274
aF336.359827041626
aF338.6798930168152
aF340.9999461174011
aF342.1600799560547
aF344.48011803627014
aF346.8000741004944
aF350.2802290916443
aF352.60025000572205
aF354.919310092926
aF356.0794939994812
aF358.399512052536
aF360.7194459438324
aF364.19967103004456
aF366.51942205429077
aF368.83976101875305
aF372.3198299407959
aF374.63990807533264
aF376.95996713638306
aF378.1201379299164
aF380.4401490688324
aF382.7601399421692
aF386.24021100997925
aF388.5602560043335
aF390.88033413887024
aF394.36051511764526
aF396.68054008483887
aF399.00060510635376
aF400.16061997413635
aF402.4807231426239
aF404.7996139526367
aF408.27982211112976
aF410.5998661518097
aF412.91996908187866
aF416.4001009464264
aF418.72008204460144
aF422.2002899646759
aF424.52031111717224
aF426.8403401374817
aF430.32049107551575
aF432.6405429840088
aF434.9604871273041
asS'ExpVersion'
p256
F0.1
sS'completed'
p257
I0
sS'stim_dur'
p258
F1.0
sS'quit_key'
p259
S'q'
p260
sS'onsetfile'
p261
g246
sS'discard_time_to_wait'
p262
F0.0
sS'response'
p263
(dp264
sS'trialdata'
p265
(dp266
I0
(dp267
g8
F0.44979405403137207
sS'stim'
p268
S'./stimfiles/chinese_characters/25166.jpg'
p269
sS'onset'
p270
F2.0
sS'stim_type'
p271
S'chinese_characters'
p272
sS'block'
p273
I0
sS'nback'
p274
I2
sS'duration'
p275
F1.0
sg263
S'1'
p276
sS'match'
p277
I0
sS'actual_onset_time'
p278
F2.016474962234497
ssI1
(dp279
g8
F0.9500579833984375
sg268
S'./stimfiles/chinese_characters/24575.jpg'
p280
sg270
F4.0
sg271
g272
sg273
I0
sg274
I2
sg275
F1.0
sg263
g276
sg277
I0
sg278
F4.017280101776123
ssI2
(dp281
g8
F0.7801492214202881
sg268
S'./stimfiles/chinese_characters/24575.jpg'
p282
sg270
F6.0
sg271
g272
sg273
I0
sg274
I2
sg275
F1.0
sg263
g276
sg277
I1
sg278
F6.018127918243408
ssI3
(dp283
g8
F0.8414928913116455
sg268
S'./stimfiles/chinese_characters/25166.jpg'
p284
sg270
F8.0
sg271
g272
sg273
I0
sg274
I2
sg275
F1.0
sg263
g276
sg277
I3
sg278
F8.018948078155518
ssI4
(dp285
g8
F0.622776985168457
sg268
S'./stimfiles/chinese_characters/24575.jpg'
p286
sg270
F10.0
sg271
g272
sg273
I0
sg274
I2
sg275
F1.0
sg263
S'4'
p287
sg277
I2
sg278
F10.019705057144165
ssI5
(dp288
g8
F0.6610479354858398
sg268
S'./stimfiles/chinese_characters/24953.jpg'
p289
sg270
F12.0
sg271
g272
sg273
I0
sg274
I2
sg275
F1.0
sg263
g276
sg277
I0
sg278
F12.020554065704346
ssI6
(dp290
g8
F0.7212798595428467
sg268
S'./stimfiles/chinese_characters/25166.jpg'
p291
sg270
F14.0
sg271
g272
sg273
I0
sg274
I2
sg275
F1.0
sg263
g276
sg277
I3
sg278
F14.021366119384766
ssI7
(dp292
g8
F0.8182699680328369
sg268
S'./stimfiles/chinese_characters/35468.jpg'
p293
sg270
F16.0
sg271
g272
sg273
I0
sg274
I2
sg275
F1.0
sg263
g276
sg277
I0
sg278
F16.022279977798462
ssI8
(dp294
g8
F0.6876070499420166
sg268
S'./stimfiles/chinese_characters/31381.jpg'
p295
sg270
F18.0
sg271
g272
sg273
I0
sg274
I2
sg275
F1.0
sg263
g276
sg277
I0
sg278
F18.023047924041748
ssI9
(dp296
g8
F0.7769558429718018
sg268
S'./stimfiles/chinese_characters/25166.jpg'
p297
sg270
F20.0
sg271
g272
sg273
I0
sg274
I2
sg275
F1.0
sg263
g276
sg277
I3
sg278
F20.02384114265442
ssI10
(dp298
g8
F0.6251630783081055
sg268
S'./stimfiles/faces/cropped_100.png'
p299
sg270
F24.0
sg271
S'faces'
p300
sg273
I1
sg274
I2
sg275
F1.0
sg263
g276
sg277
I0
sg278
F24.008739948272705
ssI11
(dp301
g8
F0.5893800258636475
sg268
S'./stimfiles/faces/cropped_f-024-01.png'
p302
sg270
F26.0
sg271
g300
sg273
I1
sg274
I2
sg275
F1.0
sg263
g276
sg277
I0
sg278
F26.009634971618652
ssI12
(dp303
g8
F0.6365118026733398
sg268
S'./stimfiles/faces/cropped_698.png'
p304
sg270
F28.0
sg271
g300
sg273
I1
sg274
I2
sg275
F1.0
sg263
g276
sg277
I0
sg278
F28.010491132736206
ssI13
(dp305
g8
F0.6627991199493408
sg268
S'./stimfiles/faces/cropped_292.png'
p306
sg270
F30.0
sg271
g300
sg273
I1
sg274
I2
sg275
F1.0
sg263
g276
sg277
I0
sg278
F30.011250972747803
ssI14
(dp307
g8
F0.8230879306793213
sg268
S'./stimfiles/faces/cropped_f-024-01.png'
p308
sg270
F32.0
sg271
g300
sg273
I1
sg274
I2
sg275
F1.0
sg263
g276
sg277
I3
sg278
F32.01211214065552
ssI15
(dp309
g8
F0.8322911262512207
sg268
S'./stimfiles/faces/cropped_698.png'
p310
sg270
F34.0
sg271
g300
sg273
I1
sg274
I2
sg275
F1.0
sg263
g276
sg277
I3
sg278
F34.012913942337036
ssI16
(dp311
g8
F0.7284591197967529
sg268
S'./stimfiles/faces/cropped_f-024-01.png'
p312
sg270
F36.0
sg271
g300
sg273
I1
sg274
I2
sg275
F1.0
sg263
g287
sg277
I2
sg278
F36.013782024383545
ssI17
(dp313
g8
F0.7528371810913086
sg268
S'./stimfiles/faces/cropped_f-024-01.png'
p314
sg270
F38.0
sg271
g300
sg273
I1
sg274
I2
sg275
F1.0
sg263
g276
sg277
I1
sg278
F38.01448893547058
ssI18
(dp315
g8
F0.7038779258728027
sg268
S'./stimfiles/faces/cropped_67MVC-003F.png'
p316
sg270
F40.0
sg271
g300
sg273
I1
sg274
I2
sg275
F1.0
sg263
g276
sg277
I0
sg278
F40.015382051467896
ssI19
(dp317
g8
F0.6461889743804932
sg268
S'./stimfiles/faces/cropped_1017.png'
p318
sg270
F42.0
sg271
g300
sg273
I1
sg274
I2
sg275
F1.0
sg263
g276
sg277
I0
sg278
F42.01621198654175
ssI20
(dp319
g8
F0.5856640338897705
sg268
S'./stimfiles/faces/cropped_60a.png'
p320
sg270
F46.0
sg271
g300
sg273
I2
sg274
I1
sg275
F1.0
sg263
g276
sg277
I0
sg278
F46.017826080322266
ssI21
(dp321
g8
F0.5048859119415283
sg268
S'./stimfiles/faces/cropped_187.png'
p322
sg270
F48.0
sg271
g300
sg273
I2
sg274
I1
sg275
F1.0
sg263
g276
sg277
I0
sg278
F48.01864504814148
ssI22
(dp323
g8
F0.5872840881347656
sg268
S'./stimfiles/faces/cropped_m-028-01.png'
p324
sg270
F50.0
sg271
g300
sg273
I2
sg274
I1
sg275
F1.0
sg263
g276
sg277
I0
sg278
F50.019458055496216
ssI23
(dp325
g8
F0.54740309715271
sg268
S'./stimfiles/faces/cropped_305.png'
p326
sg270
F52.0
sg271
g300
sg273
I2
sg274
I1
sg275
F1.0
sg263
g276
sg277
I0
sg278
F52.02031397819519
ssI24
(dp327
g8
F0.5285911560058594
sg268
S'./stimfiles/faces/cropped_438.png'
p328
sg270
F54.0
sg271
g300
sg273
I2
sg274
I1
sg275
F1.0
sg263
g276
sg277
I0
sg278
F54.02115797996521
ssI25
(dp329
g8
F0.6238789558410645
sg268
S'./stimfiles/faces/cropped_305.png'
p330
sg270
F56.0
sg271
g300
sg273
I2
sg274
I1
sg275
F1.0
sg263
g276
sg277
I2
sg278
F56.02195906639099
ssI26
(dp331
g8
F0.6170079708099365
sg268
S'./stimfiles/faces/cropped_16.png'
p332
sg270
F58.0
sg271
g300
sg273
I2
sg274
I1
sg275
F1.0
sg263
g276
sg277
I0
sg278
F58.02273201942444
ssI27
(dp333
g8
F0.5714099407196045
sg268
S'./stimfiles/faces/cropped_00411015.png'
p334
sg270
F60.0
sg271
g300
sg273
I2
sg274
I1
sg275
F1.0
sg263
g276
sg277
I0
sg278
F60.02352213859558
ssI28
(dp335
g8
F0.6045470237731934
sg268
S'./stimfiles/faces/cropped_00411015.png'
p336
sg270
F62.0
sg271
g300
sg273
I2
sg274
I1
sg275
F1.0
sg263
g287
sg277
I1
sg278
F62.02441596984863
ssI29
(dp337
g8
F0.7718610763549805
sg268
S'./stimfiles/faces/cropped_00411015.png'
p338
sg270
F64.0
sg271
g300
sg273
I2
sg274
I1
sg275
F1.0
sg263
g276
sg277
I1
sg278
F64.02520394325256
ssI30
(dp339
g8
F0.742987871170044
sg268
S'./stimfiles/scenes/407.jpg'
p340
sg270
F68.0
sg271
S'scenes'
p341
sg273
I3
sg274
I2
sg275
F1.0
sg263
g276
sg277
I0
sg278
F68.01020312309265
ssI31
(dp342
g8
F0.7411479949951172
sg268
S'./stimfiles/scenes/407.jpg'
p343
sg270
F70.0
sg271
g341
sg273
I3
sg274
I2
sg275
F1.0
sg263
g287
sg277
I1
sg278
F70.01102805137634
ssI32
(dp344
g8
F0.6053481101989746
sg268
S'./stimfiles/scenes/464.jpg'
p345
sg270
F72.0
sg271
g341
sg273
I3
sg274
I2
sg275
F1.0
sg263
g276
sg277
I0
sg278
F72.01187491416931
ssI33
(dp346
g8
F0.799720048904419
sg268
S'./stimfiles/scenes/407.jpg'
p347
sg270
F74.0
sg271
g341
sg273
I3
sg274
I2
sg275
F1.0
sg263
g287
sg277
I2
sg278
F74.01262307167053
ssI34
(dp348
g8
F0.6748881340026855
sg268
S'./stimfiles/scenes/3121.jpg'
p349
sg270
F76.0
sg271
g341
sg273
I3
sg274
I2
sg275
F1.0
sg263
g276
sg277
I0
sg278
F76.01349997520447
ssI35
(dp350
g8
F0.6541728973388672
sg268
S'./stimfiles/scenes/1476.jpg'
p351
sg270
F78.0
sg271
g341
sg273
I3
sg274
I2
sg275
F1.0
sg263
g276
sg277
I0
sg278
F78.01425909996033
ssI36
(dp352
g8
F0.6743309497833252
sg268
S'./stimfiles/scenes/407.jpg'
p353
sg270
F80.0
sg271
g341
sg273
I3
sg274
I2
sg275
F1.0
sg263
g276
sg277
I3
sg278
F80.01507997512817
ssI37
(dp354
g8
F0.9065618515014648
sg268
S'./stimfiles/scenes/1476.jpg'
p355
sg270
F82.0
sg271
g341
sg273
I3
sg274
I2
sg275
F1.0
sg263
g276
sg277
I2
sg278
F82.01598811149597
ssI38
(dp356
g268
S'./stimfiles/scenes/407.jpg'
p357
sg270
F84.0
sg271
g341
sg273
I3
sg274
I2
sg275
F1.0
sg277
I2
sg278
F84.01682591438293
ssI39
(dp358
g8
F0.7261369228363037
sg268
S'./stimfiles/scenes/407.jpg'
p359
sg270
F86.0
sg271
g341
sg273
I3
sg274
I2
sg275
F1.0
sg263
g276
sg277
I1
sg278
F86.01753902435303
ssI40
(dp360
g8
F0.5195209980010986
sg268
S'./stimfiles/scenes/149.jpg'
p361
sg270
F90.0
sg271
g341
sg273
I4
sg274
I1
sg275
F1.0
sg263
g276
sg277
I0
sg278
F90.01926112174988
ssI41
(dp362
g8
F0.5377390384674072
sg268
S'./stimfiles/scenes/993.jpg'
p363
sg270
F92.0
sg271
g341
sg273
I4
sg274
I1
sg275
F1.0
sg263
g276
sg277
I0
sg278
F92.02002191543579
ssI42
(dp364
g8
F0.8370850086212158
sg268
S'./stimfiles/scenes/149.jpg'
p365
sg270
F94.0
sg271
g341
sg273
I4
sg274
I1
sg275
F1.0
sg263
g276
sg277
I2
sg278
F94.02080297470093
ssI43
(dp366
g8
F0.8077058792114258
sg268
S'./stimfiles/scenes/149.jpg'
p367
sg270
F96.0
sg271
g341
sg273
I4
sg274
I1
sg275
F1.0
sg263
g287
sg277
I1
sg278
F96.0049901008606
ssI44
(dp368
g8
F0.7101900577545166
sg268
S'./stimfiles/scenes/149.jpg'
p369
sg270
F98.0
sg271
g341
sg273
I4
sg274
I1
sg275
F1.0
sg263
g287
sg277
I1
sg278
F98.00584602355957
ssI45
(dp370
g8
F0.5124828815460205
sg268
S'./stimfiles/scenes/206.jpg'
p371
sg270
F100.0
sg271
g341
sg273
I4
sg274
I1
sg275
F1.0
sg263
g276
sg277
I0
sg278
F100.0066831111908
ssI46
(dp372
g8
F0.6756820678710938
sg268
S'./stimfiles/scenes/149.jpg'
p373
sg270
F102.0
sg271
g341
sg273
I4
sg274
I1
sg275
F1.0
sg263
g276
sg277
I2
sg278
F102.0074200630188
ssI47
(dp374
g8
F0.7738230228424072
sg268
S'./stimfiles/scenes/149.jpg'
p375
sg270
F104.0
sg271
g341
sg273
I4
sg274
I1
sg275
F1.0
sg263
g276
sg277
I1
sg278
F104.0083680152893
ssI48
(dp376
g8
F0.7430551052093506
sg268
S'./stimfiles/scenes/206.jpg'
p377
sg270
F106.0
sg271
g341
sg273
I4
sg274
I1
sg275
F1.0
sg263
g276
sg277
I3
sg278
F106.0091609954834
ssI49
(dp378
g8
F0.8613860607147217
sg268
S'./stimfiles/scenes/149.jpg'
p379
sg270
F108.0
sg271
g341
sg273
I4
sg274
I1
sg275
F1.0
sg263
g276
sg277
I2
sg278
F108.0099949836731
ssI50
(dp380
g8
F0.7902100086212158
sg268
S'./stimfiles/chinese_characters/35427.jpg'
p381
sg270
F112.0
sg271
g272
sg273
I5
sg274
I1
sg275
F1.0
sg263
g276
sg277
I0
sg278
F112.02827906608582
ssI51
(dp382
g8
F0.8120849132537842
sg268
S'./stimfiles/chinese_characters/26383.jpg'
p383
sg270
F114.0
sg271
g272
sg273
I5
sg274
I1
sg275
F1.0
sg263
g276
sg277
I0
sg278
F114.01239609718323
ssI52
(dp384
g8
F0.5092599391937256
sg268
S'./stimfiles/chinese_characters/20510.jpg'
p385
sg270
F116.0
sg271
g272
sg273
I5
sg274
I1
sg275
F1.0
sg263
g276
sg277
I0
sg278
F116.01322197914124
ssI53
(dp386
g8
F0.4835081100463867
sg268
S'./stimfiles/chinese_characters/35427.jpg'
p387
sg270
F118.0
sg271
g272
sg273
I5
sg274
I1
sg275
F1.0
sg263
g276
sg277
I3
sg278
F118.01403093338013
ssI54
(dp388
g8
F0.5057032108306885
sg268
S'./stimfiles/chinese_characters/26383.jpg'
p389
sg270
F120.0
sg271
g272
sg273
I5
sg274
I1
sg275
F1.0
sg263
g276
sg277
I3
sg278
F120.01490092277527
ssI55
(dp390
g8
F0.49898815155029297
sg268
S'./stimfiles/chinese_characters/31644.jpg'
p391
sg270
F122.0
sg271
g272
sg273
I5
sg274
I1
sg275
F1.0
sg263
g276
sg277
I0
sg278
F122.01563596725464
ssI56
(dp392
g8
F0.6091880798339844
sg268
S'./stimfiles/chinese_characters/31644.jpg'
p393
sg270
F124.0
sg271
g272
sg273
I5
sg274
I1
sg275
F1.0
sg263
g287
sg277
I1
sg278
F124.01655292510986
ssI57
(dp394
g8
F0.6544930934906006
sg268
S'./stimfiles/chinese_characters/31409.jpg'
p395
sg270
F126.0
sg271
g272
sg273
I5
sg274
I1
sg275
F1.0
sg263
g276
sg277
I0
sg278
F126.01731300354004
ssI58
(dp396
g8
F0.7138419151306152
sg268
S'./stimfiles/chinese_characters/31409.jpg'
p397
sg270
F128.0
sg271
g272
sg273
I5
sg274
I1
sg275
F1.0
sg263
g287
sg277
I1
sg278
F128.0182011127472
ssI59
(dp398
g8
F0.5258798599243164
sg268
S'./stimfiles/chinese_characters/35345.jpg'
p399
sg270
F130.0
sg271
g272
sg273
I5
sg274
I1
sg275
F1.0
sg263
g276
sg277
I0
sg278
F130.0189790725708
ssI60
(dp400
g8
F0.6847870349884033
sg268
S'./stimfiles/chinese_characters/25541.jpg'
p401
sg270
F154.0
sg271
g272
sg273
I6
sg274
I2
sg275
F1.0
sg263
g276
sg277
I0
sg278
F154.0288450717926
ssI61
(dp402
g8
F0.7105591297149658
sg268
S'./stimfiles/chinese_characters/31394.jpg'
p403
sg270
F156.0
sg271
g272
sg273
I6
sg274
I2
sg275
F1.0
sg263
g276
sg277
I0
sg278
F156.01301097869873
ssI62
(dp404
g8
F0.7429311275482178
sg268
S'./stimfiles/chinese_characters/25060.jpg'
p405
sg270
F158.0
sg271
g272
sg273
I6
sg274
I2
sg275
F1.0
sg263
g276
sg277
I0
sg278
F158.01381397247314
ssI63
(dp406
g8
F0.9631850719451904
sg268
S'./stimfiles/chinese_characters/31394.jpg'
p407
sg270
F160.0
sg271
g272
sg273
I6
sg274
I2
sg275
F1.0
sg263
g287
sg277
I2
sg278
F160.0145800113678
ssI64
(dp408
g8
F0.8104360103607178
sg268
S'./stimfiles/chinese_characters/25048.jpg'
p409
sg270
F162.0
sg271
g272
sg273
I6
sg274
I2
sg275
F1.0
sg263
g276
sg277
I0
sg278
F162.01543998718262
ssI65
(dp410
g8
F0.7075819969177246
sg268
S'./stimfiles/chinese_characters/25048.jpg'
p411
sg270
F164.0
sg271
g272
sg273
I6
sg274
I2
sg275
F1.0
sg263
g276
sg277
I1
sg278
F164.01627397537231
ssI66
(dp412
g8
F0.6998269557952881
sg268
S'./stimfiles/chinese_characters/37251.jpg'
p413
sg270
F166.0
sg271
g272
sg273
I6
sg274
I2
sg275
F1.0
sg263
g276
sg277
I0
sg278
F166.0171000957489
ssI67
(dp414
g8
F0.6970431804656982
sg268
S'./stimfiles/chinese_characters/26389.jpg'
p415
sg270
F168.0
sg271
g272
sg273
I6
sg274
I2
sg275
F1.0
sg263
g276
sg277
I0
sg278
F168.0178599357605
ssI68
(dp416
g8
F0.7443850040435791
sg268
S'./stimfiles/chinese_characters/26078.jpg'
p417
sg270
F170.0
sg271
g272
sg273
I6
sg274
I2
sg275
F1.0
sg263
g276
sg277
I0
sg278
F170.01871013641357
ssI69
(dp418
g268
S'./stimfiles/chinese_characters/26389.jpg'
p419
sg270
F172.0
sg271
g272
sg273
I6
sg274
I2
sg275
F1.0
sg277
I2
sg278
F172.0195701122284
ssI70
(dp420
g8
F0.6891148090362549
sg268
S'./stimfiles/faces/cropped_m1-029-01.png'
p421
sg270
F176.0
sg271
g300
sg273
I7
sg274
I2
sg275
F1.0
sg263
g276
sg277
I0
sg278
F176.0211341381073
ssI71
(dp422
g8
F0.707298994064331
sg268
S'./stimfiles/faces/cropped_s27_15.png'
p423
sg270
F178.0
sg271
g300
sg273
I7
sg274
I2
sg275
F1.0
sg263
g276
sg277
I0
sg278
F178.02196097373962
ssI72
(dp424
g8
F0.7346301078796387
sg268
S'./stimfiles/faces/cropped_m1-029-01.png'
p425
sg270
F180.0
sg271
g300
sg273
I7
sg274
I2
sg275
F1.0
sg263
g287
sg277
I2
sg278
F180.02278900146484
ssI73
(dp426
g8
F0.8117280006408691
sg268
S'./stimfiles/faces/cropped_m1-029-01.png'
p427
sg270
F182.0
sg271
g300
sg273
I7
sg274
I2
sg275
F1.0
sg263
g276
sg277
I1
sg278
F182.023677110672
ssI74
(dp428
g8
F0.6580350399017334
sg268
S'./stimfiles/faces/cropped_63.png'
p429
sg270
F184.0
sg271
g300
sg273
I7
sg274
I2
sg275
F1.0
sg263
g276
sg277
I0
sg278
F184.02448391914368
ssI75
(dp430
g8
F0.7043299674987793
sg268
S'./stimfiles/faces/cropped_image_0411.png'
p431
sg270
F186.0
sg271
g300
sg273
I7
sg274
I2
sg275
F1.0
sg263
g276
sg277
I0
sg278
F186.02529001235962
ssI76
(dp432
g8
F0.8285079002380371
sg268
S'./stimfiles/faces/cropped_image_0411.png'
p433
sg270
F188.0
sg271
g300
sg273
I7
sg274
I2
sg275
F1.0
sg263
g276
sg277
I1
sg278
F188.02611804008484
ssI77
(dp434
g8
F0.7084290981292725
sg268
S'./stimfiles/faces/cropped_684.png'
p435
sg270
F190.0
sg271
g300
sg273
I7
sg274
I2
sg275
F1.0
sg263
g276
sg277
I0
sg278
F190.01027393341064
ssI78
(dp436
g8
F0.7124550342559814
sg268
S'./stimfiles/faces/cropped_770.png'
p437
sg270
F192.0
sg271
g300
sg273
I7
sg274
I2
sg275
F1.0
sg263
g276
sg277
I0
sg278
F192.01111602783203
ssI79
(dp438
g8
F0.6518549919128418
sg268
S'./stimfiles/faces/cropped_image_0301.png'
p439
sg270
F194.0
sg271
g300
sg273
I7
sg274
I2
sg275
F1.0
sg263
g276
sg277
I0
sg278
F194.01189303398132
ssI80
(dp440
g8
F0.545320987701416
sg268
S'./stimfiles/faces/cropped_gfindley1.png'
p441
sg270
F198.0
sg271
g300
sg273
I8
sg274
I1
sg275
F1.0
sg263
g276
sg277
I0
sg278
F198.0135509967804
ssI81
(dp442
g8
F0.4894828796386719
sg268
S'./stimfiles/faces/cropped_469.png'
p443
sg270
F200.0
sg271
g300
sg273
I8
sg274
I1
sg275
F1.0
sg263
g276
sg277
I0
sg278
F200.01435708999634
ssI82
(dp444
g8
F0.7387709617614746
sg268
S'./stimfiles/faces/cropped_469.png'
p445
sg270
F202.0
sg271
g300
sg273
I8
sg274
I1
sg275
F1.0
sg263
g287
sg277
I1
sg278
F202.01522302627563
ssI83
(dp446
g8
F0.5529360771179199
sg268
S'./stimfiles/faces/cropped_gfindley1.png'
p447
sg270
F204.0
sg271
g300
sg273
I8
sg274
I1
sg275
F1.0
sg263
g276
sg277
I3
sg278
F204.0159969329834
ssI84
(dp448
g8
F0.575329065322876
sg268
S'./stimfiles/faces/cropped_469.png'
p449
sg270
F206.0
sg271
g300
sg273
I8
sg274
I1
sg275
F1.0
sg263
g276
sg277
I2
sg278
F206.01682305335999
ssI85
(dp450
g8
F0.6305279731750488
sg268
S'./stimfiles/faces/cropped_216.png'
p451
sg270
F208.0
sg271
g300
sg273
I8
sg274
I1
sg275
F1.0
sg263
g276
sg277
I0
sg278
F208.01765608787537
ssI86
(dp452
g8
F0.5497457981109619
sg268
S'./stimfiles/faces/cropped_gfindley1.png'
p453
sg270
F210.0
sg271
g300
sg273
I8
sg274
I1
sg275
F1.0
sg263
g276
sg277
I3
sg278
F210.01847314834595
ssI87
(dp454
g8
F0.5530059337615967
sg268
S'./stimfiles/faces/cropped_153.png'
p455
sg270
F212.0
sg271
g300
sg273
I8
sg274
I1
sg275
F1.0
sg263
g276
sg277
I0
sg278
F212.01925802230835
ssI88
(dp456
g8
F0.5582840442657471
sg268
S'./stimfiles/faces/cropped_153.png'
p457
sg270
F214.0
sg271
g300
sg273
I8
sg274
I1
sg275
F1.0
sg263
g287
sg277
I1
sg278
F214.02012991905212
ssI89
(dp458
g8
F0.8374710083007812
sg268
S'./stimfiles/faces/cropped_m-080-01.png'
p459
sg270
F216.0
sg271
g300
sg273
I8
sg274
I1
sg275
F1.0
sg263
g276
sg277
I0
sg278
F216.0209081172943
ssI90
(dp460
g8
F0.7049040794372559
sg268
S'./stimfiles/scenes/1618.jpg'
p461
sg270
F220.0
sg271
g341
sg273
I9
sg274
I2
sg275
F1.0
sg263
g276
sg277
I0
sg278
F220.02258801460266
ssI91
(dp462
g8
F0.602910041809082
sg268
S'./stimfiles/scenes/400.jpg'
p463
sg270
F222.0
sg271
g341
sg273
I9
sg274
I2
sg275
F1.0
sg263
g276
sg277
I0
sg278
F222.00667309761047
ssI92
(dp464
g8
F0.5180988311767578
sg268
S'./stimfiles/scenes/368.jpg'
p465
sg270
F224.0
sg271
g341
sg273
I9
sg274
I2
sg275
F1.0
sg263
g276
sg277
I0
sg278
F224.00756311416626
ssI93
(dp466
g8
F0.758202075958252
sg268
S'./stimfiles/scenes/368.jpg'
p467
sg270
F226.0
sg271
g341
sg273
I9
sg274
I2
sg275
F1.0
sg263
g276
sg277
I1
sg278
F226.00840497016907
ssI94
(dp468
g8
F0.7914309501647949
sg268
S'./stimfiles/scenes/400.jpg'
p469
sg270
F228.0
sg271
g341
sg273
I9
sg274
I2
sg275
F1.0
sg263
g276
sg277
I3
sg278
F228.00920009613037
ssI95
(dp470
g8
F0.6908349990844727
sg268
S'./stimfiles/scenes/3035.jpg'
p471
sg270
F230.0
sg271
g341
sg273
I9
sg274
I2
sg275
F1.0
sg263
g276
sg277
I0
sg278
F230.00995206832886
ssI96
(dp472
g8
F0.6941170692443848
sg268
S'./stimfiles/scenes/1577.jpg'
p473
sg270
F232.0
sg271
g341
sg273
I9
sg274
I2
sg275
F1.0
sg263
g276
sg277
I0
sg278
F232.01076793670654
ssI97
(dp474
g8
F0.6132569313049316
sg268
S'./stimfiles/scenes/3035.jpg'
p475
sg270
F234.0
sg271
g341
sg273
I9
sg274
I2
sg275
F1.0
sg263
g287
sg277
I2
sg278
F234.0116159915924
ssI98
(dp476
g8
F0.5975689888000488
sg268
S'./stimfiles/scenes/674.jpg'
p477
sg270
F236.0
sg271
g341
sg273
I9
sg274
I2
sg275
F1.0
sg263
g276
sg277
I0
sg278
F236.01249194145203
ssI99
(dp478
g8
F0.6665859222412109
sg268
S'./stimfiles/scenes/462.jpg'
p479
sg270
F238.0
sg271
g341
sg273
I9
sg274
I2
sg275
F1.0
sg263
g276
sg277
I0
sg278
F238.01341104507446
ssI100
(dp480
g8
F0.620140790939331
sg268
S'./stimfiles/scenes/105.jpg'
p481
sg270
F242.0
sg271
g341
sg273
I10
sg274
I1
sg275
F1.0
sg263
g276
sg277
I0
sg278
F242.01495814323425
ssI101
(dp482
g8
F0.5394821166992188
sg268
S'./stimfiles/scenes/30.jpg'
p483
sg270
F244.0
sg271
g341
sg273
I10
sg274
I1
sg275
F1.0
sg263
g276
sg277
I0
sg278
F244.0157289505005
ssI102
(dp484
g8
F0.47965097427368164
sg268
S'./stimfiles/scenes/753.jpg'
p485
sg270
F246.0
sg271
g341
sg273
I10
sg274
I1
sg275
F1.0
sg263
g276
sg277
I0
sg278
F246.01657915115356
ssI103
(dp486
g8
F0.4579029083251953
sg268
S'./stimfiles/scenes/105.jpg'
p487
sg270
F248.0
sg271
g341
sg273
I10
sg274
I1
sg275
F1.0
sg263
g276
sg277
I3
sg278
F248.01739311218262
ssI104
(dp488
g8
F0.5182700157165527
sg268
S'./stimfiles/scenes/781.jpg'
p489
sg270
F250.0
sg271
g341
sg273
I10
sg274
I1
sg275
F1.0
sg263
g276
sg277
I0
sg278
F250.01818108558655
ssI105
(dp490
g8
F0.5044219493865967
sg268
S'./stimfiles/scenes/148.jpg'
p491
sg270
F252.0
sg271
g341
sg273
I10
sg274
I1
sg275
F1.0
sg263
g276
sg277
I0
sg278
F252.01899409294128
ssI106
(dp492
g8
F0.507605791091919
sg268
S'./stimfiles/scenes/148.jpg'
p493
sg270
F254.0
sg271
g341
sg273
I10
sg274
I1
sg275
F1.0
sg263
g287
sg277
I1
sg278
F254.01989912986755
ssI107
(dp494
g8
F0.48381495475769043
sg268
S'./stimfiles/scenes/1895.jpg'
p495
sg270
F256.0
sg271
g341
sg273
I10
sg274
I1
sg275
F1.0
sg263
g276
sg277
I0
sg278
F256.0207030773163
ssI108
(dp496
g8
F0.5450079441070557
sg268
S'./stimfiles/scenes/426.jpg'
p497
sg270
F258.0
sg271
g341
sg273
I10
sg274
I1
sg275
F1.0
sg263
g276
sg277
I0
sg278
F258.02150297164917
ssI109
(dp498
g8
F0.5863029956817627
sg268
S'./stimfiles/scenes/1703.jpg'
p499
sg270
F260.0
sg271
g341
sg273
I10
sg274
I1
sg275
F1.0
sg263
g276
sg277
I0
sg278
F260.0223751068115
ssI110
(dp500
g8
F0.49777698516845703
sg268
S'./stimfiles/chinese_characters/29802.jpg'
p501
sg270
F264.0
sg271
g272
sg273
I11
sg274
I1
sg275
F1.0
sg263
g276
sg277
I0
sg278
F264.02395510673523
ssI111
(dp502
g8
F0.6369121074676514
sg268
S'./stimfiles/chinese_characters/20664.jpg'
p503
sg270
F266.0
sg271
g272
sg273
I11
sg274
I1
sg275
F1.0
sg263
g276
sg277
I0
sg278
F266.02482295036316
ssI112
(dp504
g8
F0.6253318786621094
sg268
S'./stimfiles/chinese_characters/37237.jpg'
p505
sg270
F268.0
sg271
g272
sg273
I11
sg274
I1
sg275
F1.0
sg263
g276
sg277
I0
sg278
F268.0255560874939
ssI113
(dp506
g8
F0.685509204864502
sg268
S'./stimfiles/chinese_characters/26071.jpg'
p507
sg270
F270.0
sg271
g272
sg273
I11
sg274
I1
sg275
F1.0
sg263
g276
sg277
I0
sg278
F270.0264239311218
ssI114
(dp508
g8
F0.7993650436401367
sg268
S'./stimfiles/chinese_characters/20664.jpg'
p509
sg270
F272.0
sg271
g272
sg273
I11
sg274
I1
sg275
F1.0
sg263
g276
sg277
I3
sg278
F272.01056599617004
ssI115
(dp510
g8
F0.8126609325408936
sg268
S'./stimfiles/chinese_characters/26071.jpg'
p511
sg270
F274.0
sg271
g272
sg273
I11
sg274
I1
sg275
F1.0
sg263
g276
sg277
I2
sg278
F274.0113379955292
ssI116
(dp512
g8
F0.5728380680084229
sg268
S'./stimfiles/chinese_characters/26071.jpg'
p513
sg270
F276.0
sg271
g272
sg273
I11
sg274
I1
sg275
F1.0
sg263
g287
sg277
I1
sg278
F276.01227593421936
ssI117
(dp514
g8
F0.6791369915008545
sg268
S'./stimfiles/chinese_characters/26071.jpg'
p515
sg270
F278.0
sg271
g272
sg273
I11
sg274
I1
sg275
F1.0
sg263
g287
sg277
I1
sg278
F278.01298999786377
ssI118
(dp516
g8
F0.5973589420318604
sg268
S'./stimfiles/chinese_characters/29339.jpg'
p517
sg270
F280.0
sg271
g272
sg273
I11
sg274
I1
sg275
F1.0
sg263
g276
sg277
I0
sg278
F280.01395201683044
ssI119
(dp518
g8
F0.6996438503265381
sg268
S'./stimfiles/chinese_characters/29339.jpg'
p519
sg270
F282.0
sg271
g272
sg273
I11
sg274
I1
sg275
F1.0
sg263
g287
sg277
I1
sg278
F282.0146300792694
ssI120
(dp520
g8
F0.45147109031677246
sg268
S'./stimfiles/chinese_characters/26095.jpg'
p521
sg270
F306.0
sg271
g272
sg273
I12
sg274
I2
sg275
F1.0
sg263
g276
sg277
I0
sg278
F306.02448201179504
ssI121
(dp522
g8
F0.5088169574737549
sg268
S'./stimfiles/chinese_characters/24836.jpg'
p523
sg270
F308.0
sg271
g272
sg273
I12
sg274
I2
sg275
F1.0
sg263
g276
sg277
I0
sg278
F308.02534914016724
ssI122
(dp524
g8
F0.7531051635742188
sg268
S'./stimfiles/chinese_characters/20686.jpg'
p525
sg270
F310.0
sg271
g272
sg273
I12
sg274
I2
sg275
F1.0
sg263
g276
sg277
I0
sg278
F310.0261969566345
ssI123
(dp526
g8
F0.7237608432769775
sg268
S'./stimfiles/chinese_characters/24836.jpg'
p527
sg270
F312.0
sg271
g272
sg273
I12
sg274
I2
sg275
F1.0
sg263
g287
sg277
I2
sg278
F312.0103521347046
ssI124
(dp528
g8
F0.8779909610748291
sg268
S'./stimfiles/chinese_characters/29844.jpg'
p529
sg270
F314.0
sg271
g272
sg273
I12
sg274
I2
sg275
F1.0
sg263
g276
sg277
I0
sg278
F314.01117610931396
ssI125
(dp530
g8
F0.7082371711730957
sg268
S'./stimfiles/chinese_characters/24836.jpg'
p531
sg270
F316.0
sg271
g272
sg273
I12
sg274
I2
sg275
F1.0
sg263
g287
sg277
I2
sg278
F316.01199293136597
ssI126
(dp532
g8
F0.9204201698303223
sg268
S'./stimfiles/chinese_characters/24836.jpg'
p533
sg270
F318.0
sg271
g272
sg273
I12
sg274
I2
sg275
F1.0
sg263
g276
sg277
I1
sg278
F318.0128059387207
ssI127
(dp534
g268
S'./stimfiles/chinese_characters/25496.jpg'
p535
sg270
F320.0
sg271
g272
sg273
I12
sg274
I2
sg275
F1.0
sg277
I0
sg278
F320.01361203193665
ssI128
(dp536
g268
S'./stimfiles/chinese_characters/24836.jpg'
p537
sg270
F322.0
sg271
g272
sg273
I12
sg274
I2
sg275
F1.0
sg277
I2
sg278
F322.0144200325012
ssI129
(dp538
g8
F0.9122259616851807
sg268
S'./stimfiles/chinese_characters/26223.jpg'
p539
sg270
F324.0
sg271
g272
sg273
I12
sg274
I2
sg275
F1.0
sg263
g276
sg277
I0
sg278
F324.01520013809204
ssI130
(dp540
g8
F0.6586198806762695
sg268
S'./stimfiles/faces/cropped_921.png'
p541
sg270
F328.0
sg271
g300
sg273
I13
sg274
I2
sg275
F1.0
sg263
g276
sg277
I0
sg278
F328.01691913604736
ssI131
(dp542
g8
F0.4769859313964844
sg268
S'./stimfiles/faces/cropped_00701016.png'
p543
sg270
F330.0
sg271
g300
sg273
I13
sg274
I2
sg275
F1.0
sg263
g276
sg277
I0
sg278
F330.0176570415497
ssI132
(dp544
g8
F0.6191849708557129
sg268
S'./stimfiles/faces/cropped_921.png'
p545
sg270
F332.0
sg271
g300
sg273
I13
sg274
I2
sg275
F1.0
sg263
g287
sg277
I2
sg278
F332.01851296424866
ssI133
(dp546
g8
F0.6323840618133545
sg268
S'./stimfiles/faces/cropped_00701016.png'
p547
sg270
F334.0
sg271
g300
sg273
I13
sg274
I2
sg275
F1.0
sg263
g287
sg277
I2
sg278
F334.0193099975586
ssI134
(dp548
g8
F0.9416038990020752
sg268
S'./stimfiles/faces/cropped_921.png'
p549
sg270
F336.0
sg271
g300
sg273
I13
sg274
I2
sg275
F1.0
sg263
g287
sg277
I2
sg278
F336.02020502090454
ssI135
(dp550
g8
F0.7878599166870117
sg268
S'./stimfiles/faces/cropped_00701016.png'
p551
sg270
F338.0
sg271
g300
sg273
I13
sg274
I2
sg275
F1.0
sg263
g287
sg277
I2
sg278
F338.02102303504944
ssI136
(dp552
g8
F0.666085958480835
sg268
S'./stimfiles/faces/cropped_m4006.png'
p553
sg270
F340.0
sg271
g300
sg273
I13
sg274
I2
sg275
F1.0
sg263
g276
sg277
I0
sg278
F340.02187514305115
ssI137
(dp554
g8
F0.6783390045166016
sg268
S'./stimfiles/faces/cropped_m-068-01.png'
p555
sg270
F342.0
sg271
g300
sg273
I13
sg274
I2
sg275
F1.0
sg263
g276
sg277
I0
sg278
F342.0226709842682
ssI138
(dp556
g8
F0.667504072189331
sg268
S'./stimfiles/faces/cropped_00701016.png'
p557
sg270
F344.0
sg271
g300
sg273
I13
sg274
I2
sg275
F1.0
sg263
g276
sg277
I3
sg278
F344.02348494529724
ssI139
(dp558
g8
F0.7288699150085449
sg268
S'./stimfiles/faces/cropped_651.png'
p559
sg270
F346.0
sg271
g300
sg273
I13
sg274
I2
sg275
F1.0
sg263
g276
sg277
I0
sg278
F346.02423906326294
ssI140
(dp560
g8
F0.5203180313110352
sg268
S'./stimfiles/faces/cropped_00731015.png'
p561
sg270
F350.0
sg271
g300
sg273
I14
sg274
I1
sg275
F1.0
sg263
g276
sg277
I0
sg278
F350.02590703964233
ssI141
(dp562
g8
F0.4995918273925781
sg268
S'./stimfiles/faces/cropped_406.png'
p563
sg270
F352.0
sg271
g300
sg273
I14
sg274
I1
sg275
F1.0
sg263
g276
sg277
I0
sg278
F352.02671813964844
ssI142
(dp564
g8
F0.6783061027526855
sg268
S'./stimfiles/faces/cropped_406.png'
p565
sg270
F354.0
sg271
g300
sg273
I14
sg274
I1
sg275
F1.0
sg263
g287
sg277
I1
sg278
F354.0109930038452
ssI143
(dp566
g8
F0.835712194442749
sg268
S'./stimfiles/faces/cropped_f-035-01.png'
p567
sg270
F356.0
sg271
g300
sg273
I14
sg274
I1
sg275
F1.0
sg263
g276
sg277
I0
sg278
F356.0117299556732
ssI144
(dp568
g8
F0.6618762016296387
sg268
S'./stimfiles/faces/cropped_406.png'
p569
sg270
F358.0
sg271
g300
sg273
I14
sg274
I1
sg275
F1.0
sg263
g276
sg277
I3
sg278
F358.01255893707275
ssI145
(dp570
g8
F0.766103982925415
sg268
S'./stimfiles/faces/cropped_406.png'
p571
sg270
F360.0
sg271
g300
sg273
I14
sg274
I1
sg275
F1.0
sg263
g287
sg277
I1
sg278
F360.0133080482483
ssI146
(dp572
g8
F0.9393558502197266
sg268
S'./stimfiles/faces/cropped_f13v1e1.png'
p573
sg270
F362.0
sg271
g300
sg273
I14
sg274
I1
sg275
F1.0
sg263
g276
sg277
I0
sg278
F362.0142021179199
ssI147
(dp574
g8
F0.7326600551605225
sg268
S'./stimfiles/faces/cropped_907.png'
p575
sg270
F364.0
sg271
g300
sg273
I14
sg274
I1
sg275
F1.0
sg263
g276
sg277
I0
sg278
F364.0149459838867
ssI148
(dp576
g8
F0.6108181476593018
sg268
S'./stimfiles/faces/cropped_18.png'
p577
sg270
F366.0
sg271
g300
sg273
I14
sg274
I1
sg275
F1.0
sg263
g276
sg277
I0
sg278
F366.0158259868622
ssI149
(dp578
g8
F0.8352458477020264
sg268
S'./stimfiles/faces/cropped_907.png'
p579
sg270
F368.0
sg271
g300
sg273
I14
sg274
I1
sg275
F1.0
sg263
g276
sg277
I2
sg278
F368.01660108566284
ssI150
(dp580
g8
F0.5455291271209717
sg268
S'./stimfiles/scenes/302.jpg'
p581
sg270
F372.0
sg271
g341
sg273
I15
sg274
I2
sg275
F1.0
sg263
g276
sg277
I0
sg278
F372.0182909965515
ssI151
(dp582
g8
F0.5498290061950684
sg268
S'./stimfiles/scenes/1533.jpg'
p583
sg270
F374.0
sg271
g341
sg273
I15
sg274
I2
sg275
F1.0
sg263
g276
sg277
I0
sg278
F374.01909494400024
ssI152
(dp584
g8
F0.49803900718688965
sg268
S'./stimfiles/scenes/823.jpg'
p585
sg270
F376.0
sg271
g341
sg273
I15
sg274
I2
sg275
F1.0
sg263
g276
sg277
I0
sg278
F376.01989793777466
ssI153
(dp586
g8
F0.6000430583953857
sg268
S'./stimfiles/scenes/887.jpg'
p587
sg270
F378.0
sg271
g341
sg273
I15
sg274
I2
sg275
F1.0
sg263
g276
sg277
I0
sg278
F378.0207509994507
ssI154
(dp588
g8
F0.584453821182251
sg268
S'./stimfiles/scenes/1385.jpg'
p589
sg270
F380.0
sg271
g341
sg273
I15
sg274
I2
sg275
F1.0
sg263
g276
sg277
I0
sg278
F380.02159810066223
ssI155
(dp590
g8
F0.6596579551696777
sg268
S'./stimfiles/scenes/904.jpg'
p591
sg270
F382.0
sg271
g341
sg273
I15
sg274
I2
sg275
F1.0
sg263
g276
sg277
I0
sg278
F382.0223460197449
ssI156
(dp592
g8
F0.8039200305938721
sg268
S'./stimfiles/scenes/887.jpg'
p593
sg270
F384.0
sg271
g341
sg273
I15
sg274
I2
sg275
F1.0
sg263
g276
sg277
I3
sg278
F384.02326011657715
ssI157
(dp594
g8
F0.6268901824951172
sg268
S'./stimfiles/scenes/904.jpg'
p595
sg270
F386.0
sg271
g341
sg273
I15
sg274
I2
sg275
F1.0
sg263
g287
sg277
I2
sg278
F386.0073149204254
ssI158
(dp596
g8
F0.46111392974853516
sg268
S'./stimfiles/scenes/1246.jpg'
p597
sg270
F388.0
sg271
g341
sg273
I15
sg274
I2
sg275
F1.0
sg263
g276
sg277
I0
sg278
F388.0082290172577
ssI159
(dp598
g8
F0.65938401222229
sg268
S'./stimfiles/scenes/904.jpg'
p599
sg270
F390.0
sg271
g341
sg273
I15
sg274
I2
sg275
F1.0
sg263
g287
sg277
I2
sg278
F390.0089681148529
ssI160
(dp600
g8
F0.6348938941955566
sg268
S'./stimfiles/scenes/1796.jpg'
p601
sg270
F394.0
sg271
g341
sg273
I16
sg274
I1
sg275
F1.0
sg263
g276
sg277
I0
sg278
F394.0106041431427
ssI161
(dp602
g8
F0.6801431179046631
sg268
S'./stimfiles/scenes/609.jpg'
p603
sg270
F396.0
sg271
g341
sg273
I16
sg274
I1
sg275
F1.0
sg263
g276
sg277
I0
sg278
F396.0114939212799
ssI162
(dp604
g268
S'./stimfiles/scenes/1345.jpg'
p605
sg270
F398.0
sg271
g341
sg273
I16
sg274
I1
sg275
F1.0
sg277
I0
sg278
F398.01230096817017
ssI163
(dp606
g8
F0.6814999580383301
sg268
S'./stimfiles/scenes/1796.jpg'
p607
sg270
F400.0
sg271
g341
sg273
I16
sg274
I1
sg275
F1.0
sg263
g276
sg277
I3
sg278
F400.0131161212921
ssI164
(dp608
g8
F0.6427621841430664
sg268
S'./stimfiles/scenes/1796.jpg'
p609
sg270
F402.0
sg271
g341
sg273
I16
sg274
I1
sg275
F1.0
sg263
g287
sg277
I1
sg278
F402.01392793655396
ssI165
(dp610
g8
F0.5889239311218262
sg268
S'./stimfiles/scenes/1796.jpg'
p611
sg270
F404.0
sg271
g341
sg273
I16
sg274
I1
sg275
F1.0
sg263
g287
sg277
I1
sg278
F404.014769077301
ssI166
(dp612
g8
F0.5163798332214355
sg268
S'./stimfiles/scenes/1.jpg'
p613
sg270
F406.0
sg271
g341
sg273
I16
sg274
I1
sg275
F1.0
sg263
g276
sg277
I0
sg278
F406.01552414894104
ssI167
(dp614
g8
F0.5024540424346924
sg268
S'./stimfiles/scenes/979.jpg'
p615
sg270
F408.0
sg271
g341
sg273
I16
sg274
I1
sg275
F1.0
sg263
g276
sg277
I0
sg278
F408.0164029598236
ssI168
(dp616
g8
F0.5256979465484619
sg268
S'./stimfiles/scenes/150.jpg'
p617
sg270
F410.0
sg271
g341
sg273
I16
sg274
I1
sg275
F1.0
sg263
g276
sg277
I0
sg278
F410.01724004745483
ssI169
(dp618
g8
F0.5579421520233154
sg268
S'./stimfiles/scenes/3020.jpg'
p619
sg270
F412.0
sg271
g341
sg273
I16
sg274
I1
sg275
F1.0
sg263
g276
sg277
I0
sg278
F412.01806592941284
ssI170
(dp620
g8
F0.6353569030761719
sg268
S'./stimfiles/chinese_characters/25360.jpg'
p621
sg270
F416.0
sg271
g272
sg273
I17
sg274
I1
sg275
F1.0
sg263
g276
sg277
I0
sg278
F416.0197241306305
ssI171
(dp622
g8
F0.5497770309448242
sg268
S'./stimfiles/chinese_characters/29856.jpg'
p623
sg270
F418.0
sg271
g272
sg273
I17
sg274
I1
sg275
F1.0
sg263
g276
sg277
I0
sg278
F418.020446062088
ssI172
(dp624
g8
F0.6258900165557861
sg268
S'./stimfiles/chinese_characters/35477.jpg'
p625
sg270
F420.0
sg271
g272
sg273
I17
sg274
I1
sg275
F1.0
sg263
g276
sg277
I0
sg278
F420.02125811576843
ssI173
(dp626
g8
F0.5261240005493164
sg268
S'./stimfiles/chinese_characters/24973.jpg'
p627
sg270
F422.0
sg271
g272
sg273
I17
sg274
I1
sg275
F1.0
sg263
g276
sg277
I0
sg278
F422.0221381187439
ssI174
(dp628
g8
F0.6212990283966064
sg268
S'./stimfiles/chinese_characters/35477.jpg'
p629
sg270
F424.0
sg271
g272
sg273
I17
sg274
I1
sg275
F1.0
sg263
g276
sg277
I2
sg278
F424.0229489803314
ssI175
(dp630
g8
F0.5636270046234131
sg268
S'./stimfiles/chinese_characters/35477.jpg'
p631
sg270
F426.0
sg271
g272
sg273
I17
sg274
I1
sg275
F1.0
sg263
g287
sg277
I1
sg278
F426.023775100708
ssI176
(dp632
g8
F0.5699009895324707
sg268
S'./stimfiles/chinese_characters/35553.jpg'
p633
sg270
F428.0
sg271
g272
sg273
I17
sg274
I1
sg275
F1.0
sg263
g276
sg277
I0
sg278
F428.024640083313
ssI177
(dp634
g8
F0.7940521240234375
sg268
S'./stimfiles/chinese_characters/32078.jpg'
p635
sg270
F430.0
sg271
g272
sg273
I17
sg274
I1
sg275
F1.0
sg263
g276
sg277
I0
sg278
F430.0254499912262
ssI178
(dp636
g8
F0.5602478981018066
sg268
S'./stimfiles/chinese_characters/26489.jpg'
p637
sg270
F432.0
sg271
g272
sg273
I17
sg274
I1
sg275
F1.0
sg263
g276
sg277
I0
sg278
F432.0263011455536
ssI179
(dp638
g8
F0.613548994064331
sg268
S'./stimfiles/chinese_characters/32078.jpg'
p639
sg270
F434.0
sg271
g272
sg273
I17
sg274
I1
sg275
F1.0
sg263
g276
sg277
I2
sg278
F434.02707505226135
sssS'stim_log'
p640
(dp641
sS'nstims'
p642
I5
sS'inter_stim_int'
p643
F1.0
sS'SS'
p644
(dp645
sS'inst_time'
p646
F1.0
sS'broke_on_trial'
p647
(dp648
sS'events'
p649
(lp650
(lp651
F0.0
aI0
aI2
aI0
aS'inst'
p652
aa(lp653
F2.0
aI0
aI2
aI0
ag269
aa(lp654
F4.0
aI0
aI2
aI0
ag280
aa(lp655
F6.0
aI0
aI2
aI1
ag282
aa(lp656
F8.0
aI0
aI2
aI3
ag284
aa(lp657
F10.0
aI0
aI2
aI2
ag286
aa(lp658
F12.0
aI0
aI2
aI0
ag289
aa(lp659
F14.0
aI0
aI2
aI3
ag291
aa(lp660
F16.0
aI0
aI2
aI0
ag293
aa(lp661
F18.0
aI0
aI2
aI0
ag295
aa(lp662
F20.0
aI0
aI2
aI3
ag297
aa(lp663
F22.0
aI1
aI2
aI0
aS'inst'
p664
aa(lp665
F24.0
aI1
aI2
aI0
ag299
aa(lp666
F26.0
aI1
aI2
aI0
ag302
aa(lp667
F28.0
aI1
aI2
aI0
ag304
aa(lp668
F30.0
aI1
aI2
aI0
ag306
aa(lp669
F32.0
aI1
aI2
aI3
ag308
aa(lp670
F34.0
aI1
aI2
aI3
ag310
aa(lp671
F36.0
aI1
aI2
aI2
ag312
aa(lp672
F38.0
aI1
aI2
aI1
ag314
aa(lp673
F40.0
aI1
aI2
aI0
ag316
aa(lp674
F42.0
aI1
aI2
aI0
ag318
aa(lp675
F44.0
aI2
aI1
aI0
aS'inst'
p676
aa(lp677
F46.0
aI2
aI1
aI0
ag320
aa(lp678
F48.0
aI2
aI1
aI0
ag322
aa(lp679
F50.0
aI2
aI1
aI0
ag324
aa(lp680
F52.0
aI2
aI1
aI0
ag326
aa(lp681
F54.0
aI2
aI1
aI0
ag328
aa(lp682
F56.0
aI2
aI1
aI2
ag330
aa(lp683
F58.0
aI2
aI1
aI0
ag332
aa(lp684
F60.0
aI2
aI1
aI0
ag334
aa(lp685
F62.0
aI2
aI1
aI1
ag336
aa(lp686
F64.0
aI2
aI1
aI1
ag338
aa(lp687
F66.0
aI3
aI2
aI0
aS'inst'
p688
aa(lp689
F68.0
aI3
aI2
aI0
ag340
aa(lp690
F70.0
aI3
aI2
aI1
ag343
aa(lp691
F72.0
aI3
aI2
aI0
ag345
aa(lp692
F74.0
aI3
aI2
aI2
ag347
aa(lp693
F76.0
aI3
aI2
aI0
ag349
aa(lp694
F78.0
aI3
aI2
aI0
ag351
aa(lp695
F80.0
aI3
aI2
aI3
ag353
aa(lp696
F82.0
aI3
aI2
aI2
ag355
aa(lp697
F84.0
aI3
aI2
aI2
ag357
aa(lp698
F86.0
aI3
aI2
aI1
ag359
aa(lp699
F88.0
aI4
aI1
aI0
aS'inst'
p700
aa(lp701
F90.0
aI4
aI1
aI0
ag361
aa(lp702
F92.0
aI4
aI1
aI0
ag363
aa(lp703
F94.0
aI4
aI1
aI2
ag365
aa(lp704
F96.0
aI4
aI1
aI1
ag367
aa(lp705
F98.0
aI4
aI1
aI1
ag369
aa(lp706
F100.0
aI4
aI1
aI0
ag371
aa(lp707
F102.0
aI4
aI1
aI2
ag373
aa(lp708
F104.0
aI4
aI1
aI1
ag375
aa(lp709
F106.0
aI4
aI1
aI3
ag377
aa(lp710
F108.0
aI4
aI1
aI2
ag379
aa(lp711
F110.0
aI5
aI1
aI0
aS'inst'
p712
aa(lp713
F112.0
aI5
aI1
aI0
ag381
aa(lp714
F114.0
aI5
aI1
aI0
ag383
aa(lp715
F116.0
aI5
aI1
aI0
ag385
aa(lp716
F118.0
aI5
aI1
aI3
ag387
aa(lp717
F120.0
aI5
aI1
aI3
ag389
aa(lp718
F122.0
aI5
aI1
aI0
ag391
aa(lp719
F124.0
aI5
aI1
aI1
ag393
aa(lp720
F126.0
aI5
aI1
aI0
ag395
aa(lp721
F128.0
aI5
aI1
aI1
ag397
aa(lp722
F130.0
aI5
aI1
aI0
ag399
aa(lp723
F152.0
aI0
aI2
aI0
aS'inst'
p724
aa(lp725
F154.0
aI6
aI2
aI0
ag401
aa(lp726
F156.0
aI6
aI2
aI0
ag403
aa(lp727
F158.0
aI6
aI2
aI0
ag405
aa(lp728
F160.0
aI6
aI2
aI2
ag407
aa(lp729
F162.0
aI6
aI2
aI0
ag409
aa(lp730
F164.0
aI6
aI2
aI1
ag411
aa(lp731
F166.0
aI6
aI2
aI0
ag413
aa(lp732
F168.0
aI6
aI2
aI0
ag415
aa(lp733
F170.0
aI6
aI2
aI0
ag417
aa(lp734
F172.0
aI6
aI2
aI2
ag419
aa(lp735
F174.0
aI1
aI2
aI0
aS'inst'
p736
aa(lp737
F176.0
aI7
aI2
aI0
ag421
aa(lp738
F178.0
aI7
aI2
aI0
ag423
aa(lp739
F180.0
aI7
aI2
aI2
ag425
aa(lp740
F182.0
aI7
aI2
aI1
ag427
aa(lp741
F184.0
aI7
aI2
aI0
ag429
aa(lp742
F186.0
aI7
aI2
aI0
ag431
aa(lp743
F188.0
aI7
aI2
aI1
ag433
aa(lp744
F190.0
aI7
aI2
aI0
ag435
aa(lp745
F192.0
aI7
aI2
aI0
ag437
aa(lp746
F194.0
aI7
aI2
aI0
ag439
aa(lp747
F196.0
aI2
aI1
aI0
aS'inst'
p748
aa(lp749
F198.0
aI8
aI1
aI0
ag441
aa(lp750
F200.0
aI8
aI1
aI0
ag443
aa(lp751
F202.0
aI8
aI1
aI1
ag445
aa(lp752
F204.0
aI8
aI1
aI3
ag447
aa(lp753
F206.0
aI8
aI1
aI2
ag449
aa(lp754
F208.0
aI8
aI1
aI0
ag451
aa(lp755
F210.0
aI8
aI1
aI3
ag453
aa(lp756
F212.0
aI8
aI1
aI0
ag455
aa(lp757
F214.0
aI8
aI1
aI1
ag457
aa(lp758
F216.0
aI8
aI1
aI0
ag459
aa(lp759
F218.0
aI3
aI2
aI0
aS'inst'
p760
aa(lp761
F220.0
aI9
aI2
aI0
ag461
aa(lp762
F222.0
aI9
aI2
aI0
ag463
aa(lp763
F224.0
aI9
aI2
aI0
ag465
aa(lp764
F226.0
aI9
aI2
aI1
ag467
aa(lp765
F228.0
aI9
aI2
aI3
ag469
aa(lp766
F230.0
aI9
aI2
aI0
ag471
aa(lp767
F232.0
aI9
aI2
aI0
ag473
aa(lp768
F234.0
aI9
aI2
aI2
ag475
aa(lp769
F236.0
aI9
aI2
aI0
ag477
aa(lp770
F238.0
aI9
aI2
aI0
ag479
aa(lp771
F240.0
aI4
aI1
aI0
aS'inst'
p772
aa(lp773
F242.0
aI10
aI1
aI0
ag481
aa(lp774
F244.0
aI10
aI1
aI0
ag483
aa(lp775
F246.0
aI10
aI1
aI0
ag485
aa(lp776
F248.0
aI10
aI1
aI3
ag487
aa(lp777
F250.0
aI10
aI1
aI0
ag489
aa(lp778
F252.0
aI10
aI1
aI0
ag491
aa(lp779
F254.0
aI10
aI1
aI1
ag493
aa(lp780
F256.0
aI10
aI1
aI0
ag495
aa(lp781
F258.0
aI10
aI1
aI0
ag497
aa(lp782
F260.0
aI10
aI1
aI0
ag499
aa(lp783
F262.0
aI5
aI1
aI0
aS'inst'
p784
aa(lp785
F264.0
aI11
aI1
aI0
ag501
aa(lp786
F266.0
aI11
aI1
aI0
ag503
aa(lp787
F268.0
aI11
aI1
aI0
ag505
aa(lp788
F270.0
aI11
aI1
aI0
ag507
aa(lp789
F272.0
aI11
aI1
aI3
ag509
aa(lp790
F274.0
aI11
aI1
aI2
ag511
aa(lp791
F276.0
aI11
aI1
aI1
ag513
aa(lp792
F278.0
aI11
aI1
aI1
ag515
aa(lp793
F280.0
aI11
aI1
aI0
ag517
aa(lp794
F282.0
aI11
aI1
aI1
ag519
aa(lp795
F304.0
aI0
aI2
aI0
aS'inst'
p796
aa(lp797
F306.0
aI12
aI2
aI0
ag521
aa(lp798
F308.0
aI12
aI2
aI0
ag523
aa(lp799
F310.0
aI12
aI2
aI0
ag525
aa(lp800
F312.0
aI12
aI2
aI2
ag527
aa(lp801
F314.0
aI12
aI2
aI0
ag529
aa(lp802
F316.0
aI12
aI2
aI2
ag531
aa(lp803
F318.0
aI12
aI2
aI1
ag533
aa(lp804
F320.0
aI12
aI2
aI0
ag535
aa(lp805
F322.0
aI12
aI2
aI2
ag537
aa(lp806
F324.0
aI12
aI2
aI0
ag539
aa(lp807
F326.0
aI1
aI2
aI0
aS'inst'
p808
aa(lp809
F328.0
aI13
aI2
aI0
ag541
aa(lp810
F330.0
aI13
aI2
aI0
ag543
aa(lp811
F332.0
aI13
aI2
aI2
ag545
aa(lp812
F334.0
aI13
aI2
aI2
ag547
aa(lp813
F336.0
aI13
aI2
aI2
ag549
aa(lp814
F338.0
aI13
aI2
aI2
ag551
aa(lp815
F340.0
aI13
aI2
aI0
ag553
aa(lp816
F342.0
aI13
aI2
aI0
ag555
aa(lp817
F344.0
aI13
aI2
aI3
ag557
aa(lp818
F346.0
aI13
aI2
aI0
ag559
aa(lp819
F348.0
aI2
aI1
aI0
aS'inst'
p820
aa(lp821
F350.0
aI14
aI1
aI0
ag561
aa(lp822
F352.0
aI14
aI1
aI0
ag563
aa(lp823
F354.0
aI14
aI1
aI1
ag565
aa(lp824
F356.0
aI14
aI1
aI0
ag567
aa(lp825
F358.0
aI14
aI1
aI3
ag569
aa(lp826
F360.0
aI14
aI1
aI1
ag571
aa(lp827
F362.0
aI14
aI1
aI0
ag573
aa(lp828
F364.0
aI14
aI1
aI0
ag575
aa(lp829
F366.0
aI14
aI1
aI0
ag577
aa(lp830
F368.0
aI14
aI1
aI2
ag579
aa(lp831
F370.0
aI3
aI2
aI0
aS'inst'
p832
aa(lp833
F372.0
aI15
aI2
aI0
ag581
aa(lp834
F374.0
aI15
aI2
aI0
ag583
aa(lp835
F376.0
aI15
aI2
aI0
ag585
aa(lp836
F378.0
aI15
aI2
aI0
ag587
aa(lp837
F380.0
aI15
aI2
aI0
ag589
aa(lp838
F382.0
aI15
aI2
aI0
ag591
aa(lp839
F384.0
aI15
aI2
aI3
ag593
aa(lp840
F386.0
aI15
aI2
aI2
ag595
aa(lp841
F388.0
aI15
aI2
aI0
ag597
aa(lp842
F390.0
aI15
aI2
aI2
ag599
aa(lp843
F392.0
aI4
aI1
aI0
aS'inst'
p844
aa(lp845
F394.0
aI16
aI1
aI0
ag601
aa(lp846
F396.0
aI16
aI1
aI0
ag603
aa(lp847
F398.0
aI16
aI1
aI0
ag605
aa(lp848
F400.0
aI16
aI1
aI3
ag607
aa(lp849
F402.0
aI16
aI1
aI1
ag609
aa(lp850
F404.0
aI16
aI1
aI1
ag611
aa(lp851
F406.0
aI16
aI1
aI0
ag613
aa(lp852
F408.0
aI16
aI1
aI0
ag615
aa(lp853
F410.0
aI16
aI1
aI0
ag617
aa(lp854
F412.0
aI16
aI1
aI0
ag619
aa(lp855
F414.0
aI5
aI1
aI0
aS'inst'
p856
aa(lp857
F416.0
aI17
aI1
aI0
ag621
aa(lp858
F418.0
aI17
aI1
aI0
ag623
aa(lp859
F420.0
aI17
aI1
aI0
ag625
aa(lp860
F422.0
aI17
aI1
aI0
ag627
aa(lp861
F424.0
aI17
aI1
aI2
ag629
aa(lp862
F426.0
aI17
aI1
aI1
ag631
aa(lp863
F428.0
aI17
aI1
aI0
ag633
aa(lp864
F430.0
aI17
aI1
aI0
ag635
aa(lp865
F432.0
aI17
aI1
aI0
ag637
aa(lp866
F434.0
aI17
aI1
aI2
ag639
aasS'is_this_SS_trial'
p867
(dp868
sS'subcode'
p869
S'self_tracking_0038'
p870
sS'start_key'
p871
S'5'
p872
s.