(dp0
S'stim_onset_time'
p1
(dp2
sS'datestamp'
p3
S'2012-11-08-07_42_02'
p4
sS'ntrials_per_block'
p5
I6
sS'expt_title'
p6
S'Self_Tracking'
p7
sS'rt'
p8
(dp9
sS'simulated_response'
p10
I00
sS'script'
p11
(lp12
S'#!/usr/bin/env python\n'
p13
aS'\n'
p14
aS'import psychopy\n'
p15
aS'from psychopy import visual, core, event, logging, data, misc, sound\n'
p16
aS'import numpy as N\n'
p17
aS'import pickle,csv\n'
p18
aS'import datetime\n'
p19
aS'import sys\n'
p20
aS'import os, socket, random\n'
p21
aS'import inspect\n'
p22
aS'import hashlib\n'
p23
aS'from socket import gethostname\n'
p24
aS'import exptutils\n'
p25
aS'from exptutils import *\n'
p26
aS'from pylab import imread\n'
p27
ag14
aS'try:\n'
p28
aS'    from save_data_to_db import *\n'
p29
aS'    save_data=1\n'
p30
aS'except:\n'
p31
aS"    print 'cannnot import save_data_to_db'\n"
p32
aS'    save_data=0\n'
p33
ag14
aS'def store_scriptfile():\n'
p34
aS'    scriptfile= inspect.getfile(inspect.currentframe())# save a copy of the script in the data file\n'
p35
aS'    f=open(scriptfile)\n'
p36
aS'    script=f.readlines()\n'
p37
aS'    f.close()\n'
p38
aS'    return script\n'
p39
ag14
aS'#\n'
p40
aS'#- - - - - - - - - - - - - - - - - - - - - - - - - - - - - - - - - - - - - - - - - - - - - - - - - - - - - - - - - - - - - - - - - - - - - - - - - - - - - -\n'
p41
aS'#define functions for awaiting keyboard input & displaying initial instructions\n'
p42
aS'#these functions will be called prior to the stim_block() function (at bottom)\n'
p43
ag14
aS'def wait_for_trigger():\n'
p44
aS'    event.clearEvents()\n'
p45
aS"    if subdata['simulated_response']:\n"
p46
aS'        msg="SIMULATION MODE"\n'
p47
aS'    else:\n'
p48
aS"        msg=''\n"
p49
aS"    message=visual.TextStim(win, text='%s Waiting for start key (or press %s)'%(msg,subdata['start_key']),\n"
p50
aS"    font='BiauKai', height=1,color=u'white', colorSpace=u'rgb', opacity=1,depth=0.0,\n"
p51
aS"    alignHoriz='center',wrapWidth=50)\n"
p52
aS'    message.setAutoDraw(True) #automatically draw every frame\n'
p53
aS'    win.flip()\n'
p54
aS'    start=False\n'
p55
aS'    while start==False:\n'
p56
aS'        k=event.waitKeys()\n'
p57
aS"        if k.count(subdata['start_key'])>0:#as soon as subdata['start_key'] is pressed...\n"
p58
aS'            start=True\n'
p59
aS"            message.setText('')#this clears the screen\n"
p60
aS'            win.flip()\n'
p61
aS"        if k.count(subdata['quit_key']) >0:# if subdata['quit_key'] is pressed...\n"
p62
aS'            exptutils.shut_down_cleanly(subdata,win)\n'
p63
aS'            return subdata\n'
p64
aS'            \n'
p65
aS"def instructions(n,duration):#n here changes depending on the n-back level; yes/no will also switch between 'u' & 'i' keys depending on the Order number selected\n"
p66
aS'    event.clearEvents()\n'
p67
aS"    instructions=visual.TextStim(win=win, ori=0, name='instructions',font='BiauKai',\n"
p68
aS"        text='%d back'%n,\n"
p69
aS"        height=2,color=u'white', colorSpace=u'rgb', alignHoriz='center',wrapWidth=50)\n"
p70
aS'    instructions.setAutoDraw(True)\n'
p71
aS'    win.flip()\n'
p72
aS'    core.wait(duration)#currently it is set up to keep instructions on screen the designated amt of time; a button press will not end these instructions sooner\n'
p73
aS"    instructions.setText('')\n"
p74
aS'    win.flip()\n'
p75
ag14
aS'#- - - - - - - - - - - - - - - - - - - - - - - - - - - - - - - - - - - - - - - - - - - - - - - - - - - - - - - - - - - - - - - - - - - - - - - - \n'
p76
ag14
ag14
aS'#define function for displaying visual stims for each trial on n-back task\n'
p77
ag14
aS'def draw_stim(win,event_info,subdata,visual_stim):\n'
p78
aS'    trialdata={}\n'
p79
aS"    trialdata['duration']=subdata['stim_dur']\n"
p80
aS"    trialdata['onset'],trialdata['block'],trialdata['nback'],trialdata['match'],trialdata['stim']=event_info\n"
p81
aS'    # NB: I removed a lot of data handling stuff from within this function\n'
p82
aS'    # instead, the data get returned and handled at the calling level\n'
p83
aS"    print trialdata['stim']\n"
p84
aS"    if trialdata['stim'].find('faces')>-1:#if it is a face image, display vertically\n"
p85
aS"        stim_type='faces'\n"
p86
aS"    elif trialdata['stim'].find('scenes')>-1:#\n"
p87
aS"        stim_type='scenes'\n"
p88
aS'    else:#if it is a character, display as text\n'
p89
aS"        stim_type='chinese_characters'\n"
p90
aS'        \n'
p91
aS"    visual_stim.setImage(trialdata['stim'])\n"
p92
aS"    trialdata['stim_type']=stim_type\n"
p93
aS'    \n'
p94
aS'        #visual_stim[stim_type].setAutoDraw(True)#get the image ready to display\n'
p95
aS'    visual_stim.draw()\n'
p96
aS"    while clock.getTime()<trialdata['onset']:#wait until the specified onset time to display image_file\n"
p97
aS'        pass\n'
p98
aS'    win.flip()\n'
p99
aS"    trialdata['actual_onset_time']=clock.getTime()\n"
p100
aS'    event.clearEvents()#clear all button presses\n'
p101
aS'    thisResp=None\n'
p102
aS'    simulated_rt=0.5 + N.random.rand()*0.1\n'
p103
aS"    while clock.getTime() < (trialdata['actual_onset_time'] + trialdata['duration']):#before the subdata['stim_dur'] time is exceeded, do this stuff...\n"
p104
aS'            key_response=event.getKeys()#look for yes,no, and quit commands\n'
p105
aS"            if subdata['simulated_response']:\n"
p106
aS"                if clock.getTime()> trialdata['actual_onset_time'] + simulated_rt:\n"
p107
aS'                    thisResp=1\n'
p108
aS"                    trialdata['rt']=clock.getTime() - trialdata['actual_onset_time'] #collect rt\n"
p109
aS"                    if trialdata['match']==trialdata['nback']:\n"
p110
aS"                        trialdata['response']='4'\n"
p111
aS'                    else:\n'
p112
aS"                        trialdata['response']='1'\n"
p113
ag14
aS'            elif key_response:#if they press any button\n'
p114
aS"                if key_response.count(subdata['quit_key'])>0:#if subj hits subdata['quit_key']...\n"
p115
aS'                    keep_going=0\n'
p116
aS"                    #subdata['broke_on_trial'][which_block]=trial_num\n"
p117
aS'                    #shut_down_cleanly(subdata,win)\n'
p118
aS'                    return None\n'
p119
aS"                elif key_response.count('5')>0:\n"
p120
aS"                    subdata['trigger_times'].append(clock.getTime())\n"
p121
aS'                else:\n'
p122
aS'                    thisResp=1\n'
p123
aS"                    trialdata['rt']=clock.getTime() - trialdata['actual_onset_time'] #collect rt\n"
p124
aS"                    trialdata['response']=key_response[0]#collect response\n"
p125
ag14
aS'    visual_stim.clearTextures()\n'
p126
ag14
aS'    win.flip()\n'
p127
ag14
aS'    #del visual_stim\n'
p128
aS'    return trialdata\n'
p129
aS'    \n'
p130
ag14
ag14
aS'#Text saying the task has finished. Disappears with key press\n'
p131
ag14
aS'def display_finished_text():#finished with experiment\n'
p132
aS'    event.clearEvents()\n'
p133
aS'    message=visual.TextStim(win=win, ori=0,\n'
p134
aS"    text='All finished! Thanks  :) \\n Press any key to clear the screen.',\n"
p135
aS"    font=u'BiauKai',pos=[0, 0], height=2,color=u'white', colorSpace=u'rgb', opacity=1,depth=0.0,alignHoriz='center',wrapWidth=50)\n"
p136
aS'    message.setAutoDraw(True) \n'
p137
aS'    win.flip()\n'
p138
aS'    start=False\n'
p139
aS'    while start==False:\n'
p140
aS'        key_response=event.getKeys()\n'
p141
aS'        if len(key_response)>0:\n'
p142
aS'            start=True\n'
p143
aS"            message.setText('')#this clears the screen\n"
p144
aS'            win.flip()\n'
p145
aS'    return start\n'
p146
aS'#- - - - - - - - - - - - - - - - - - - - - - - - - - - - - - - - - - - - - - - - - - - - - - - - - - - - - - - - - - - - - - - - - - - - - - \n'
p147
ag14
aS'    \n'
p148
aS'#set-up some variables\n'
p149
ag14
aS'verbose=True\n'
p150
aS'fullscr=False  # change to True for full screen display\n'
p151
ag14
aS"stim_types=['faces','scenes','chinese_characters']\n"
p152
aS'subdata={}\n'
p153
aS'finish_time=440\n'
p154
ag14
aS"subdata['start_key']='5'\n"
p155
aS"subdata['quit_key']='q'\n"
p156
aS"subdata['discard_time_to_wait']=0.0\n"
p157
aS"subdata['expt_title']='Self_Tracking'\n"
p158
aS"subdata['stim_dur']=1.0\n"
p159
aS"subdata['inter_stim_int']=1.0\n"
p160
aS"subdata['inst_time']=1.0\n"
p161
aS"subdata['rest_time']=10.0\n"
p162
aS"subdata['ExpVersion']=0.1\n"
p163
aS"subdata['nstims']=5\n"
p164
aS"subdata['ntrials_per_block']=6\n"
p165
aS"subdata['simulated_response']=False\n"
p166
aS"subdata['trigger_times']=[]\n"
p167
ag14
aS'if len(sys.argv)<2:\n'
p168
aS"    print 'USAGE: self_tracking.py <stimlist> <session code>'\n"
p169
aS'    sys.exit()\n'
p170
aS"    #subdata['onsetfile']='/Users/poldrack/Dropbox/Documents/Projects/self-tracking/task/onsetlists/stimlist_000.txt'\n"
p171
aS'else:\n'
p172
aS"    subdata['onsetfile']=sys.argv[1]\n"
p173
aS"    subdata['subcode']=sys.argv[2]\n"
p174
ag14
ag14
aS'# initialize subdata dictionary to store info about the study\n'
p175
aS"subdata['completed']=0\n"
p176
aS"subdata['cwd']=os.getcwd()\n"
p177
aS"subdata['hostname']=socket.gethostname()\n"
p178
aS'clock=core.Clock()\n'
p179
aS'datestamp=datetime.datetime.now().strftime("%Y-%m-%d-%H_%M_%S")\n'
p180
aS"subdata['datestamp']=datestamp\n"
p181
aS"subdata['expt_title']=subdata['expt_title']\n"
p182
aS"subdata['script']=store_scriptfile()\n"
p183
aS"subdata['onsets']=subdata['onsetfile']\n"
p184
ag14
aS'#these are all sub-dictionaries which will be appended w/separate info for each block & each trial\n'
p185
aS"#i.e., the 'response' dictionary will contain the following dictionaries: face_1, face_2, scenes_1, scenes_2, whose keys are trial_num and values are the responses on that trial\n"
p186
aS"subdata['response']={}\n"
p187
aS"subdata['score']={}\n"
p188
aS"subdata['rt']={}\n"
p189
aS"subdata['stim_onset_time']={}\n"
p190
aS"subdata['stim_log']={}\n"
p191
aS"subdata['is_this_SS_trial']={}\n"
p192
aS"subdata['SS']={}\n"
p193
aS"subdata['broke_on_trial']={}\n"
p194
ag14
aS'# set up logging information & create Output directories\n'
p195
aS"if not os.path.isdir('Output'):#make an Output directory if necessary\n"
p196
aS"    os.makedirs('Output') \n"
p197
ag14
aS"dataFileName='Output/%s_%s_subdata.log'%(subdata['subcode'],subdata['datestamp'])\n"
p198
aS'logging.console.setLevel(logging.INFO)\n'
p199
aS'logfile=logging.LogFile(dataFileName,level=logging.INFO)\n'
p200
ag14
aS'# load stimulus file\n'
p201
ag14
aS'def load_stimulus_file(onsfile):\n'
p202
aS'    events=[]\n'
p203
aS'    f=open(onsfile)\n'
p204
aS'    l=f.readlines()\n'
p205
aS'    for line in l:\n'
p206
aS"        l_s=line.strip('\\n').split('\\t')\n"
p207
aS'        events.append([float(l_s[0]),int(l_s[1]),int(l_s[2]),int(l_s[3]),l_s[4]])\n'
p208
aS'    f.close()\n'
p209
aS'    return events\n'
p210
ag14
aS"events=load_stimulus_file(subdata['onsetfile'])\n"
p211
ag14
aS'# set up the window \n'
p212
aS"win = visual.Window([800,600],allowGUI=True, fullscr=True, monitor='testMonitor', units='deg')\n"
p213
aS"win.setColor('black')\n"
p214
aS'win.flip()\n'
p215
aS'win.flip()\n'
p216
ag14
aS'#integrating everything together\n'
p217
ag14
aS"subdata['trialdata']={}\n"
p218
aS'#chardict=create_characters_dict()\n'
p219
ag14
aS"wait_for_trigger()#wait for subdata['start_key'] to be pressed\n"
p220
ag14
aS'visual_stim={}\n'
p221
aS"visual_stim=visual.ImageStim(win, image=N.zeros((10,10)), size=(0.75,0.75),units='height')\n"
p222
ag14
aS'# set clock to zero\n'
p223
aS'clock.reset()\n'
p224
aS'trialctr=0\n'
p225
aS'for i in range(len(events)):\n'
p226
aS"    if events[i][4]=='inst':\n"
p227
aS'        while clock.getTime() < events[i][0]:\n'
p228
aS'            pass\n'
p229
aS"        instructions(events[i][2],subdata['inst_time'])\n"
p230
aS'    else:\n'
p231
aS"        subdata['trialdata'][trialctr]=draw_stim(win,events[i],subdata,visual_stim)\n"
p232
aS"        if subdata['trialdata'][trialctr]==None:\n"
p233
aS'            break\n'
p234
aS'        trialctr+=1\n'
p235
aS"        print 'return time:',clock.getTime()\n"
p236
ag14
aS'#display_finished_text()\n'
p237
aS'while clock.getTime()<finish_time:\n'
p238
aS'\tpass\n'
p239
aS'\t\n'
p240
aS"subdata['events']=events\n"
p241
aS'if save_data==1:\n'
p242
aS"    docId,docRev=save_data_to_db(subdata,'selftracking-taskdata')\n"
p243
ag14
aS'shut_down_cleanly(subdata,win)\n'
p244
asS'onsets'
p245
S'onsetlists/stimlist_000.txt'
p246
sS'hostname'
p247
S'IRC-arizona'
p248
sS'score'
p249
(dp250
sS'rest_time'
p251
F10.0
sS'cwd'
p252
S'/Users/rap2623/Dropbox/Documents/Projects/self-tracking/task'
p253
sS'trigger_times'
p254
(lp255
F2.2785451412200928
aF4.598564147949219
aF6.918661117553711
aF8.078986167907715
aF10.39781403541565
aF12.71771502494812
aF16.198058128356934
aF18.51793909072876
aF20.83808708190918
aF24.318174123764038
aF26.638322114944458
aF28.958303213119507
aF30.118491172790527
aF32.43847417831421
aF34.75856113433838
aF38.238627195358276
aF40.55862212181091
aF42.87873721122742
aF46.357892990112305
aF48.67803406715393
aF50.99805808067322
aF52.15810418128967
aF54.4781551361084
aF56.79811906814575
aF60.27823805809021
aF62.59835600852966
aF64.91832900047302
aF68.39853811264038
aF70.71868014335632
aF74.19868397712708
aF76.51868605613708
aF78.83784914016724
aF82.31790018081665
aF84.63797211647034
aF86.95796298980713
aF90.43797016143799
aF92.75814819335938
aF96.23831820487976
aF98.55838513374329
aF100.87840819358826
aF102.03853416442871
aF104.35850310325623
aF106.67854118347168
aF108.99866104125977
aF112.47874402999878
aF114.79780602455139
aF118.27803421020508
aF120.59806108474731
aF122.91804313659668
aF124.07822108268738
aF126.3982400894165
aF128.71840000152588
aF154.23784708976746
aF156.55805897712708
aF158.87808918952942
aF160.0381941795349
aF162.35820817947388
aF164.67817401885986
aF166.99830603599548
aF168.15844798088074
aF170.47845101356506
aF172.79845118522644
aF176.27867817878723
aF178.59876608848572
aF180.91875505447388
aF182.07893919944763
aF184.3978660106659
aF186.71796011924744
aF190.19800806045532
aF192.5181601047516
aF194.8380150794983
aF198.31827998161316
aF200.63832807540894
aF202.95837306976318
aF204.1183841228485
aF206.43848204612732
aF208.75870203971863
aF212.23854613304138
aF214.55868315696716
aF216.87856602668762
aF220.35776710510254
aF222.67783904075623
aF224.99816298484802
aF226.15808200836182
aF228.47814202308655
aF230.79828715324402
aF234.2782859802246
aF236.59841108322144
aF238.91853499412537
aF242.39845514297485
aF244.71850609779358
aF248.19863104820251
aF250.51873397827148
aF252.83759903907776
aF256.31796002388
aF258.6379761695862
aF260.9579930305481
aF264.4378590583801
aF266.7581582069397
aF270.2383110523224
aF272.5583770275116
aF274.87823820114136
aF276.038516998291
aF278.3585081100464
aF280.67865109443665
aF282.9985661506653
aF306.19842410087585
aF308.51844120025635
aF310.8384370803833
aF314.31866216659546
aF316.6386179924011
aF318.9586901664734
aF320.11885499954224
aF322.43870210647583
aF324.75795221328735
aF328.23808908462524
aF330.5599989891052
aF332.8780210018158
aF334.0382401943207
aF336.3581120967865
aF338.67821407318115
aF340.99828720092773
aF342.15827107429504
aF344.4785521030426
aF346.7985050678253
aF350.2784700393677
aF352.5986909866333
aF354.9186770915985
aF356.0788140296936
aF358.3979740142822
aF360.71784114837646
aF364.19799399375916
aF366.5181121826172
aF368.8380780220032
aF372.3182849884033
aF374.6384060382843
aF376.9583930969238
aF378.118479013443
aF380.4385712146759
aF382.7585370540619
aF386.2386350631714
aF388.5588450431824
aF390.87875509262085
aF394.35797119140625
aF396.6780071258545
aF398.9979920387268
aF400.1581029891968
aF402.47821617126465
aF404.7981400489807
aF408.2782871723175
aF410.5982880592346
aF412.91863918304443
aF416.3985080718994
aF418.71852111816406
aF422.1987931728363
aF424.51877212524414
aF426.8387801647186
aF430.31808400154114
aF432.6380121707916
aF434.95798206329346
asS'ExpVersion'
p256
F0.1
sS'completed'
p257
I0
sS'stim_dur'
p258
F1.0
sS'quit_key'
p259
S'q'
p260
sS'onsetfile'
p261
g246
sS'discard_time_to_wait'
p262
F0.0
sS'response'
p263
(dp264
sS'trialdata'
p265
(dp266
I0
(dp267
g8
F0.9821350574493408
sS'stim'
p268
S'./stimfiles/chinese_characters/24832.jpg'
p269
sS'onset'
p270
F2.0
sS'stim_type'
p271
S'chinese_characters'
p272
sS'block'
p273
I0
sS'nback'
p274
I1
sS'duration'
p275
F1.0
sg263
S'1'
p276
sS'match'
p277
I0
sS'actual_onset_time'
p278
F2.016453981399536
ssI1
(dp279
g8
F0.6993200778961182
sg268
S'./stimfiles/chinese_characters/25176.jpg'
p280
sg270
F4.0
sg271
g272
sg273
I0
sg274
I1
sg275
F1.0
sg263
g276
sg277
I0
sg278
F4.0172669887542725
ssI2
(dp281
g8
F0.461716890335083
sg268
S'./stimfiles/chinese_characters/25176.jpg'
p282
sg270
F6.0
sg271
g272
sg273
I0
sg274
I1
sg275
F1.0
sg263
S'4'
p283
sg277
I1
sg278
F6.018036127090454
ssI3
(dp284
g8
F0.6636850833892822
sg268
S'./stimfiles/chinese_characters/25176.jpg'
p285
sg270
F8.0
sg271
g272
sg273
I0
sg274
I1
sg275
F1.0
sg263
g283
sg277
I1
sg278
F8.018965005874634
ssI4
(dp286
g8
F0.5210220813751221
sg268
S'./stimfiles/chinese_characters/25176.jpg'
p287
sg270
F10.0
sg271
g272
sg273
I0
sg274
I1
sg275
F1.0
sg263
g283
sg277
I3
sg278
F10.019720077514648
ssI5
(dp288
g8
F0.4903290271759033
sg268
S'./stimfiles/chinese_characters/35592.jpg'
p289
sg270
F12.0
sg271
g272
sg273
I0
sg274
I1
sg275
F1.0
sg263
g276
sg277
I0
sg278
F12.020575046539307
ssI6
(dp290
g8
F0.8266439437866211
sg268
S'./stimfiles/chinese_characters/26512.jpg'
p291
sg270
F14.0
sg271
g272
sg273
I0
sg274
I1
sg275
F1.0
sg263
g276
sg277
I0
sg278
F14.021362066268921
ssI7
(dp292
g8
F0.7247838973999023
sg268
S'./stimfiles/chinese_characters/26152.jpg'
p293
sg270
F16.0
sg271
g272
sg273
I0
sg274
I1
sg275
F1.0
sg263
g276
sg277
I0
sg278
F16.022159099578857
ssI8
(dp294
g8
F0.6080491542816162
sg268
S'./stimfiles/chinese_characters/25696.jpg'
p295
sg270
F18.0
sg271
g272
sg273
I0
sg274
I1
sg275
F1.0
sg263
g276
sg277
I0
sg278
F18.022958040237427
ssI9
(dp296
g8
F0.5882449150085449
sg268
S'./stimfiles/chinese_characters/25696.jpg'
p297
sg270
F20.0
sg271
g272
sg273
I0
sg274
I1
sg275
F1.0
sg263
g283
sg277
I1
sg278
F20.023800134658813
ssI10
(dp298
g8
F0.785620927810669
sg268
S'./stimfiles/faces/cropped_361.png'
p299
sg270
F24.0
sg271
S'faces'
p300
sg273
I1
sg274
I1
sg275
F1.0
sg263
g276
sg277
I0
sg278
F24.025459051132202
ssI11
(dp301
g8
F0.7096130847930908
sg268
S'./stimfiles/faces/cropped_m5n1.png'
p302
sg270
F26.0
sg271
g300
sg273
I1
sg274
I1
sg275
F1.0
sg263
g276
sg277
I0
sg278
F26.00959610939026
ssI12
(dp303
g8
F0.7160768508911133
sg268
S'./stimfiles/faces/cropped_04063.png'
p304
sg270
F28.0
sg271
g300
sg273
I1
sg274
I1
sg275
F1.0
sg263
g276
sg277
I0
sg278
F28.01041316986084
ssI13
(dp305
g8
F0.6340398788452148
sg268
S'./stimfiles/faces/cropped_534.png'
p306
sg270
F30.0
sg271
g300
sg273
I1
sg274
I1
sg275
F1.0
sg263
g276
sg277
I0
sg278
F30.011237144470215
ssI14
(dp307
g8
F0.6293380260467529
sg268
S'./stimfiles/faces/cropped_534.png'
p308
sg270
F32.0
sg271
g300
sg273
I1
sg274
I1
sg275
F1.0
sg263
g283
sg277
I1
sg278
F32.012057065963745
ssI15
(dp309
g8
F0.7635228633880615
sg268
S'./stimfiles/faces/cropped_00311015.png'
p310
sg270
F34.0
sg271
g300
sg273
I1
sg274
I1
sg275
F1.0
sg263
g276
sg277
I0
sg278
F34.01293611526489
ssI16
(dp311
g8
F0.9779300689697266
sg268
S'./stimfiles/faces/cropped_534.png'
p312
sg270
F36.0
sg271
g300
sg273
I1
sg274
I1
sg275
F1.0
sg263
g276
sg277
I3
sg278
F36.01375412940979
ssI17
(dp313
g268
S'./stimfiles/faces/cropped_image_0097.png'
p314
sg270
F38.0
sg271
g300
sg273
I1
sg274
I1
sg275
F1.0
sg277
I0
sg278
F38.01450204849243
ssI18
(dp315
g268
S'./stimfiles/faces/cropped_240.png'
p316
sg270
F40.0
sg271
g300
sg273
I1
sg274
I1
sg275
F1.0
sg277
I0
sg278
F40.01536703109741
ssI19
(dp317
g268
S'./stimfiles/faces/cropped_543.png'
p318
sg270
F42.0
sg271
g300
sg273
I1
sg274
I1
sg275
F1.0
sg277
I0
sg278
F42.016205072402954
ssI20
(dp319
g268
S'./stimfiles/scenes/1726.jpg'
p320
sg270
F46.0
sg271
S'scenes'
p321
sg273
I2
sg274
I2
sg275
F1.0
sg277
I0
sg278
F46.017898082733154
ssI21
(dp322
g268
S'./stimfiles/scenes/1726.jpg'
p323
sg270
F48.0
sg271
g321
sg273
I2
sg274
I2
sg275
F1.0
sg277
I1
sg278
F48.01872420310974
ssI22
(dp324
g268
S'./stimfiles/scenes/837.jpg'
p325
sg270
F50.0
sg271
g321
sg273
I2
sg274
I2
sg275
F1.0
sg277
I0
sg278
F50.019448041915894
ssI23
(dp326
g268
S'./stimfiles/scenes/539.jpg'
p327
sg270
F52.0
sg271
g321
sg273
I2
sg274
I2
sg275
F1.0
sg277
I0
sg278
F52.00365710258484
ssI24
(dp328
g268
S'./stimfiles/scenes/837.jpg'
p329
sg270
F54.0
sg271
g321
sg273
I2
sg274
I2
sg275
F1.0
sg277
I2
sg278
F54.0211021900177
ssI25
(dp330
g8
F0.6638948917388916
sg268
S'./stimfiles/scenes/837.jpg'
p331
sg270
F56.0
sg271
g321
sg273
I2
sg274
I2
sg275
F1.0
sg263
g283
sg277
I1
sg278
F56.00523519515991
ssI26
(dp332
g8
F0.8802661895751953
sg268
S'./stimfiles/scenes/134.jpg'
p333
sg270
F58.0
sg271
g321
sg273
I2
sg274
I2
sg275
F1.0
sg263
g276
sg277
I0
sg278
F58.00605797767639
ssI27
(dp334
g8
F0.5363061428070068
sg268
S'./stimfiles/scenes/837.jpg'
p335
sg270
F60.0
sg271
g321
sg273
I2
sg274
I2
sg275
F1.0
sg263
g276
sg277
I2
sg278
F60.00688600540161
ssI28
(dp336
g8
F0.7675869464874268
sg268
S'./stimfiles/scenes/3007.jpg'
p337
sg270
F62.0
sg271
g321
sg273
I2
sg274
I2
sg275
F1.0
sg263
g276
sg277
I0
sg278
F62.00770020484924
ssI29
(dp338
g8
F0.6966907978057861
sg268
S'./stimfiles/scenes/837.jpg'
p339
sg270
F64.0
sg271
g321
sg273
I2
sg274
I2
sg275
F1.0
sg263
g276
sg277
I2
sg278
F64.00861120223999
ssI30
(dp340
g8
F0.8395547866821289
sg268
S'./stimfiles/faces/cropped_582.png'
p341
sg270
F68.0
sg271
g300
sg273
I3
sg274
I2
sg275
F1.0
sg263
g276
sg277
I0
sg278
F68.02691221237183
ssI31
(dp342
g8
F0.7674291133880615
sg268
S'./stimfiles/faces/cropped_582.png'
p343
sg270
F70.0
sg271
g300
sg273
I3
sg274
I2
sg275
F1.0
sg263
g276
sg277
I1
sg278
F70.01109600067139
ssI32
(dp344
g8
F0.7158000469207764
sg268
S'./stimfiles/faces/cropped_582.png'
p345
sg270
F72.0
sg271
g300
sg273
I3
sg274
I2
sg275
F1.0
sg263
g283
sg277
I1
sg278
F72.01188898086548
ssI33
(dp346
g8
F0.7160158157348633
sg268
S'./stimfiles/faces/cropped_f1-012-01.png'
p347
sg270
F74.0
sg271
g300
sg273
I3
sg274
I2
sg275
F1.0
sg263
g276
sg277
I0
sg278
F74.0127341747284
ssI34
(dp348
g8
F0.6611380577087402
sg268
S'./stimfiles/faces/cropped_simon1.png'
p349
sg270
F76.0
sg271
g300
sg273
I3
sg274
I2
sg275
F1.0
sg263
g276
sg277
I0
sg278
F76.013512134552
ssI35
(dp350
g8
F0.7576448917388916
sg268
S'./stimfiles/faces/cropped_582.png'
p351
sg270
F78.0
sg271
g300
sg273
I3
sg274
I2
sg275
F1.0
sg263
g276
sg277
I3
sg278
F78.01435017585754
ssI36
(dp352
g268
S'./stimfiles/faces/cropped_simon1.png'
p353
sg270
F80.0
sg271
g300
sg273
I3
sg274
I2
sg275
F1.0
sg277
I2
sg278
F80.0151960849762
ssI37
(dp354
g8
F0.69480299949646
sg268
S'./stimfiles/faces/cropped_859.png'
p355
sg270
F82.0
sg271
g300
sg273
I3
sg274
I2
sg275
F1.0
sg263
g276
sg277
I0
sg278
F82.0159740447998
ssI38
(dp356
g8
F0.6451311111450195
sg268
S'./stimfiles/faces/cropped_f1-003-01.png'
p357
sg270
F84.0
sg271
g300
sg273
I3
sg274
I2
sg275
F1.0
sg263
g276
sg277
I0
sg278
F84.0167670249939
ssI39
(dp358
g8
F0.7145421504974365
sg268
S'./stimfiles/faces/cropped_859.png'
p359
sg270
F86.0
sg271
g300
sg273
I3
sg274
I2
sg275
F1.0
sg263
g283
sg277
I2
sg278
F86.01755404472351
ssI40
(dp360
g8
F0.7206799983978271
sg268
S'./stimfiles/scenes/1777.jpg'
p361
sg270
F90.0
sg271
g321
sg273
I4
sg274
I1
sg275
F1.0
sg263
g276
sg277
I0
sg278
F90.01924204826355
ssI41
(dp362
g8
F0.6511240005493164
sg268
S'./stimfiles/scenes/3034.jpg'
p363
sg270
F92.0
sg271
g321
sg273
I4
sg274
I1
sg275
F1.0
sg263
g276
sg277
I0
sg278
F92.02009201049805
ssI42
(dp364
g8
F0.9213459491729736
sg268
S'./stimfiles/scenes/1777.jpg'
p365
sg270
F94.0
sg271
g321
sg273
I4
sg274
I1
sg275
F1.0
sg263
g283
sg277
I2
sg278
F94.02091813087463
ssI43
(dp366
g8
F0.748384952545166
sg268
S'./stimfiles/scenes/1777.jpg'
p367
sg270
F96.0
sg271
g321
sg273
I4
sg274
I1
sg275
F1.0
sg263
g276
sg277
I1
sg278
F96.00503420829773
ssI44
(dp368
g8
F0.6344068050384521
sg268
S'./stimfiles/scenes/327.jpg'
p369
sg270
F98.0
sg271
g321
sg273
I4
sg274
I1
sg275
F1.0
sg263
g276
sg277
I0
sg278
F98.00587821006775
ssI45
(dp370
g8
F0.5186779499053955
sg268
S'./stimfiles/scenes/1591.jpg'
p371
sg270
F100.0
sg271
g321
sg273
I4
sg274
I1
sg275
F1.0
sg263
g276
sg277
I0
sg278
F100.00674605369568
ssI46
(dp372
g8
F0.6589081287384033
sg268
S'./stimfiles/scenes/327.jpg'
p373
sg270
F102.0
sg271
g321
sg273
I4
sg274
I1
sg275
F1.0
sg263
g276
sg277
I2
sg278
F102.00752401351929
ssI47
(dp374
g8
F0.9052350521087646
sg268
S'./stimfiles/scenes/327.jpg'
p375
sg270
F104.0
sg271
g321
sg273
I4
sg274
I1
sg275
F1.0
sg263
g283
sg277
I1
sg278
F104.00831007957458
ssI48
(dp376
g8
F0.5484709739685059
sg268
S'./stimfiles/scenes/1865.jpg'
p377
sg270
F106.0
sg271
g321
sg273
I4
sg274
I1
sg275
F1.0
sg263
g276
sg277
I0
sg278
F106.00914907455444
ssI49
(dp378
g8
F0.8687839508056641
sg268
S'./stimfiles/scenes/1819.jpg'
p379
sg270
F108.0
sg271
g321
sg273
I4
sg274
I1
sg275
F1.0
sg263
g276
sg277
I0
sg278
F108.01001405715942
ssI50
(dp380
g8
F0.8814859390258789
sg268
S'./stimfiles/chinese_characters/25468.jpg'
p381
sg270
F112.0
sg271
g272
sg273
I5
sg274
I2
sg275
F1.0
sg263
g276
sg277
I0
sg278
F112.02835011482239
ssI51
(dp382
g8
F0.5994410514831543
sg268
S'./stimfiles/chinese_characters/25746.jpg'
p383
sg270
F114.0
sg271
g272
sg273
I5
sg274
I2
sg275
F1.0
sg263
g276
sg277
I0
sg278
F114.0124580860138
ssI52
(dp384
g8
F0.6167972087860107
sg268
S'./stimfiles/chinese_characters/26262.jpg'
p385
sg270
F116.0
sg271
g272
sg273
I5
sg274
I2
sg275
F1.0
sg263
g276
sg277
I0
sg278
F116.01323699951172
ssI53
(dp386
g8
F0.9088089466094971
sg268
S'./stimfiles/chinese_characters/25746.jpg'
p387
sg270
F118.0
sg271
g272
sg273
I5
sg274
I2
sg275
F1.0
sg263
g283
sg277
I2
sg278
F118.0140950679779
ssI54
(dp388
g8
F0.7900390625
sg268
S'./stimfiles/chinese_characters/26262.jpg'
p389
sg270
F120.0
sg271
g272
sg273
I5
sg274
I2
sg275
F1.0
sg263
g283
sg277
I2
sg278
F120.01491212844849
ssI55
(dp390
g8
F0.558398962020874
sg268
S'./stimfiles/chinese_characters/35436.jpg'
p391
sg270
F122.0
sg271
g272
sg273
I5
sg274
I2
sg275
F1.0
sg263
g276
sg277
I0
sg278
F122.0157470703125
ssI56
(dp392
g8
F0.8974349498748779
sg268
S'./stimfiles/chinese_characters/35436.jpg'
p393
sg270
F124.0
sg271
g272
sg273
I5
sg274
I2
sg275
F1.0
sg263
g276
sg277
I1
sg278
F124.01660919189453
ssI57
(dp394
g8
F0.9689168930053711
sg268
S'./stimfiles/chinese_characters/25406.jpg'
p395
sg270
F126.0
sg271
g272
sg273
I5
sg274
I2
sg275
F1.0
sg263
g283
sg277
I0
sg278
F126.01737809181213
ssI58
(dp396
g8
F0.8059120178222656
sg268
S'./stimfiles/chinese_characters/35436.jpg'
p397
sg270
F128.0
sg271
g272
sg273
I5
sg274
I2
sg275
F1.0
sg263
g276
sg277
I3
sg278
F128.01818919181824
ssI59
(dp398
g8
F0.8093709945678711
sg268
S'./stimfiles/chinese_characters/35436.jpg'
p399
sg270
F130.0
sg271
g272
sg273
I5
sg274
I2
sg275
F1.0
sg263
g276
sg277
I1
sg278
F130.01905012130737
ssI60
(dp400
g8
F0.3690059185028076
sg268
S'./stimfiles/chinese_characters/25079.jpg'
p401
sg270
F154.0
sg271
g272
sg273
I6
sg274
I1
sg275
F1.0
sg263
g276
sg277
I0
sg278
F154.02889919281006
ssI61
(dp402
g8
F0.6839869022369385
sg268
S'./stimfiles/chinese_characters/20677.jpg'
p403
sg270
F156.0
sg271
g272
sg273
I6
sg274
I1
sg275
F1.0
sg263
g283
sg277
I0
sg278
F156.0129930973053
ssI62
(dp404
g8
F0.6950259208679199
sg268
S'./stimfiles/chinese_characters/29256.jpg'
p405
sg270
F158.0
sg271
g272
sg273
I6
sg274
I1
sg275
F1.0
sg263
g276
sg277
I0
sg278
F158.01385712623596
ssI63
(dp406
g8
F0.9484829902648926
sg268
S'./stimfiles/chinese_characters/25023.jpg'
p407
sg270
F160.0
sg271
g272
sg273
I6
sg274
I1
sg275
F1.0
sg263
g276
sg277
I0
sg278
F160.01465821266174
ssI64
(dp408
g8
F0.6457018852233887
sg268
S'./stimfiles/chinese_characters/31648.jpg'
p409
sg270
F162.0
sg271
g272
sg273
I6
sg274
I1
sg275
F1.0
sg263
g276
sg277
I0
sg278
F162.01549816131592
ssI65
(dp410
g8
F0.6637930870056152
sg268
S'./stimfiles/chinese_characters/20704.jpg'
p411
sg270
F164.0
sg271
g272
sg273
I6
sg274
I1
sg275
F1.0
sg263
g276
sg277
I0
sg278
F164.01632404327393
ssI66
(dp412
g8
F0.6840119361877441
sg268
S'./stimfiles/chinese_characters/20574.jpg'
p413
sg270
F166.0
sg271
g272
sg273
I6
sg274
I1
sg275
F1.0
sg263
g276
sg277
I0
sg278
F166.0171821117401
ssI67
(dp414
g8
F0.6434690952301025
sg268
S'./stimfiles/chinese_characters/20704.jpg'
p415
sg270
F168.0
sg271
g272
sg273
I6
sg274
I1
sg275
F1.0
sg263
g276
sg277
I2
sg278
F168.01790308952332
ssI68
(dp416
g8
F0.49753284454345703
sg268
S'./stimfiles/chinese_characters/20704.jpg'
p417
sg270
F170.0
sg271
g272
sg273
I6
sg274
I1
sg275
F1.0
sg263
g283
sg277
I1
sg278
F170.01879620552063
ssI69
(dp418
g8
F0.6699161529541016
sg268
S'./stimfiles/chinese_characters/30281.jpg'
p419
sg270
F172.0
sg271
g272
sg273
I6
sg274
I1
sg275
F1.0
sg263
g276
sg277
I0
sg278
F172.0196189880371
ssI70
(dp420
g8
F0.5353240966796875
sg268
S'./stimfiles/faces/cropped_200.png'
p421
sg270
F176.0
sg271
g300
sg273
I7
sg274
I1
sg275
F1.0
sg263
g276
sg277
I0
sg278
F176.021301984787
ssI71
(dp422
g8
F0.6245450973510742
sg268
S'./stimfiles/faces/cropped_200.png'
p423
sg270
F178.0
sg271
g300
sg273
I7
sg274
I1
sg275
F1.0
sg263
g283
sg277
I1
sg278
F178.02205610275269
ssI72
(dp424
g8
F0.6209850311279297
sg268
S'./stimfiles/faces/cropped_blair1.png'
p425
sg270
F180.0
sg271
g300
sg273
I7
sg274
I1
sg275
F1.0
sg263
g276
sg277
I0
sg278
F180.02286005020142
ssI73
(dp426
g8
F0.6500399112701416
sg268
S'./stimfiles/faces/cropped_blair1.png'
p427
sg270
F182.0
sg271
g300
sg273
I7
sg274
I1
sg275
F1.0
sg263
g283
sg277
I1
sg278
F182.02376914024353
ssI74
(dp428
g8
F0.7102680206298828
sg268
S'./stimfiles/faces/cropped_200.png'
p429
sg270
F184.0
sg271
g300
sg273
I7
sg274
I1
sg275
F1.0
sg263
g276
sg277
I3
sg278
F184.02457809448242
ssI75
(dp430
g8
F0.9475867748260498
sg268
S'./stimfiles/faces/cropped_blair1.png'
p431
sg270
F186.0
sg271
g300
sg273
I7
sg274
I1
sg275
F1.0
sg263
g276
sg277
I2
sg278
F186.02529120445251
ssI76
(dp432
g8
F0.6835949420928955
sg268
S'./stimfiles/faces/cropped_blair1.png'
p433
sg270
F188.0
sg271
g300
sg273
I7
sg274
I1
sg275
F1.0
sg263
g283
sg277
I1
sg278
F188.02621817588806
ssI77
(dp434
g8
F0.6375329494476318
sg268
S'./stimfiles/faces/cropped_1003.png'
p435
sg270
F190.0
sg271
g300
sg273
I7
sg274
I1
sg275
F1.0
sg263
g276
sg277
I0
sg278
F190.01042008399963
ssI78
(dp436
g8
F0.7308080196380615
sg268
S'./stimfiles/faces/cropped_1003.png'
p437
sg270
F192.0
sg271
g300
sg273
I7
sg274
I1
sg275
F1.0
sg263
g283
sg277
I1
sg278
F192.01121306419373
ssI79
(dp438
g8
F0.7051799297332764
sg268
S'./stimfiles/faces/cropped_1003.png'
p439
sg270
F194.0
sg271
g300
sg273
I7
sg274
I1
sg275
F1.0
sg263
g283
sg277
I1
sg278
F194.01197504997253
ssI80
(dp440
g8
F0.6675460338592529
sg268
S'./stimfiles/scenes/946.jpg'
p441
sg270
F198.0
sg271
g321
sg273
I8
sg274
I2
sg275
F1.0
sg263
g276
sg277
I0
sg278
F198.01367712020874
ssI81
(dp442
g8
F0.6338160037994385
sg268
S'./stimfiles/scenes/1679.jpg'
p443
sg270
F200.0
sg271
g321
sg273
I8
sg274
I2
sg275
F1.0
sg263
g276
sg277
I0
sg278
F200.01447701454163
ssI82
(dp444
g8
F0.6071631908416748
sg268
S'./stimfiles/scenes/946.jpg'
p445
sg270
F202.0
sg271
g321
sg273
I8
sg274
I2
sg275
F1.0
sg263
g283
sg277
I2
sg278
F202.015202999115
ssI83
(dp446
g8
F0.6263599395751953
sg268
S'./stimfiles/scenes/820.jpg'
p447
sg270
F204.0
sg271
g321
sg273
I8
sg274
I2
sg275
F1.0
sg263
g276
sg277
I0
sg278
F204.0160391330719
ssI84
(dp448
g8
F0.9074888229370117
sg268
S'./stimfiles/scenes/1679.jpg'
p449
sg270
F206.0
sg271
g321
sg273
I8
sg274
I2
sg275
F1.0
sg263
g276
sg277
I3
sg278
F206.01691818237305
ssI85
(dp450
g8
F0.8605968952178955
sg268
S'./stimfiles/scenes/820.jpg'
p451
sg270
F208.0
sg271
g321
sg273
I8
sg274
I2
sg275
F1.0
sg263
g283
sg277
I2
sg278
F208.01770114898682
ssI86
(dp452
g8
F0.9110620021820068
sg268
S'./stimfiles/scenes/846.jpg'
p453
sg270
F210.0
sg271
g321
sg273
I8
sg274
I2
sg275
F1.0
sg263
g276
sg277
I0
sg278
F210.01852297782898
ssI87
(dp454
g8
F0.8532681465148926
sg268
S'./stimfiles/scenes/871.jpg'
p455
sg270
F212.0
sg271
g321
sg273
I8
sg274
I2
sg275
F1.0
sg263
g276
sg277
I0
sg278
F212.01936101913452
ssI88
(dp456
g8
F0.9226150512695312
sg268
S'./stimfiles/scenes/989.jpg'
p457
sg270
F214.0
sg271
g321
sg273
I8
sg274
I2
sg275
F1.0
sg263
g276
sg277
I0
sg278
F214.02017402648926
ssI89
(dp458
g8
F0.8378019332885742
sg268
S'./stimfiles/scenes/871.jpg'
p459
sg270
F216.0
sg271
g321
sg273
I8
sg274
I2
sg275
F1.0
sg263
g283
sg277
I2
sg278
F216.02099418640137
ssI90
(dp460
g8
F0.9312009811401367
sg268
S'./stimfiles/faces/cropped_381.png'
p461
sg270
F220.0
sg271
g300
sg273
I9
sg274
I2
sg275
F1.0
sg263
g276
sg277
I0
sg278
F220.02265310287476
ssI91
(dp462
g8
F0.6326050758361816
sg268
S'./stimfiles/faces/cropped_182.png'
p463
sg270
F222.0
sg271
g300
sg273
I9
sg274
I2
sg275
F1.0
sg263
g276
sg277
I0
sg278
F222.02350997924805
ssI92
(dp464
g8
F0.6587848663330078
sg268
S'./stimfiles/faces/cropped_381.png'
p465
sg270
F224.0
sg271
g300
sg273
I9
sg274
I2
sg275
F1.0
sg263
g283
sg277
I2
sg278
F224.0242931842804
ssI93
(dp466
g8
F0.6768159866333008
sg268
S'./stimfiles/faces/cropped_f12n2.png'
p467
sg270
F226.0
sg271
g300
sg273
I9
sg274
I2
sg275
F1.0
sg263
g276
sg277
I0
sg278
F226.0251841545105
ssI94
(dp468
g8
F0.8852450847625732
sg268
S'./stimfiles/faces/cropped_109MVC-003F.png'
p469
sg270
F228.0
sg271
g300
sg273
I9
sg274
I2
sg275
F1.0
sg263
g276
sg277
I0
sg278
F228.02596807479858
ssI95
(dp470
g268
S'./stimfiles/faces/cropped_f12n2.png'
p471
sg270
F230.0
sg271
g300
sg273
I9
sg274
I2
sg275
F1.0
sg277
I2
sg278
F230.02677202224731
ssI96
(dp472
g8
F0.9274768829345703
sg268
S'./stimfiles/faces/cropped_6MVC-003F.png'
p473
sg270
F232.0
sg271
g300
sg273
I9
sg274
I2
sg275
F1.0
sg263
g276
sg277
I0
sg278
F232.01090812683105
ssI97
(dp474
g268
S'./stimfiles/faces/cropped_6MVC-003F.png'
p475
sg270
F234.0
sg271
g300
sg273
I9
sg274
I2
sg275
F1.0
sg277
I1
sg278
F234.01169300079346
ssI98
(dp476
g8
F0.9978017807006836
sg268
S'./stimfiles/faces/cropped_f12n2.png'
p477
sg270
F236.0
sg271
g300
sg273
I9
sg274
I2
sg275
F1.0
sg263
g276
sg277
I3
sg278
F236.0125172138214
ssI99
(dp478
g268
S'./stimfiles/faces/cropped_6MVC-003F.png'
p479
sg270
F238.0
sg271
g300
sg273
I9
sg274
I2
sg275
F1.0
sg277
I2
sg278
F238.0133411884308
ssI100
(dp480
g8
F0.6174509525299072
sg268
S'./stimfiles/scenes/1678.jpg'
p481
sg270
F242.0
sg271
g321
sg273
I10
sg274
I1
sg275
F1.0
sg263
g276
sg277
I0
sg278
F242.01501607894897
ssI101
(dp482
g8
F0.5836598873138428
sg268
S'./stimfiles/scenes/1275.jpg'
p483
sg270
F244.0
sg271
g321
sg273
I10
sg274
I1
sg275
F1.0
sg263
g276
sg277
I0
sg278
F244.01584815979004
ssI102
(dp484
g268
S'./stimfiles/scenes/1678.jpg'
p485
sg270
F246.0
sg271
g321
sg273
I10
sg274
I1
sg275
F1.0
sg277
I2
sg278
F246.01671504974365
ssI103
(dp486
g8
F0.6311008930206299
sg268
S'./stimfiles/scenes/597.jpg'
p487
sg270
F248.0
sg271
g321
sg273
I10
sg274
I1
sg275
F1.0
sg263
g276
sg277
I0
sg278
F248.01745009422302
ssI104
(dp488
g8
F0.6333270072937012
sg268
S'./stimfiles/scenes/597.jpg'
p489
sg270
F250.0
sg271
g321
sg273
I10
sg274
I1
sg275
F1.0
sg263
g283
sg277
I1
sg278
F250.01836514472961
ssI105
(dp490
g8
F0.7927358150482178
sg268
S'./stimfiles/scenes/392.jpg'
p491
sg270
F252.0
sg271
g321
sg273
I10
sg274
I1
sg275
F1.0
sg263
g276
sg277
I0
sg278
F252.01917219161987
ssI106
(dp492
g8
F0.6208608150482178
sg268
S'./stimfiles/scenes/168.jpg'
p493
sg270
F254.0
sg271
g321
sg273
I10
sg274
I1
sg275
F1.0
sg263
g276
sg277
I0
sg278
F254.01998019218445
ssI107
(dp494
g8
F0.6140999794006348
sg268
S'./stimfiles/scenes/597.jpg'
p495
sg270
F256.0
sg271
g321
sg273
I10
sg274
I1
sg275
F1.0
sg263
g276
sg277
I3
sg278
F256.0208041667938
ssI108
(dp496
g8
F0.8854501247406006
sg268
S'./stimfiles/scenes/597.jpg'
p497
sg270
F258.0
sg271
g321
sg273
I10
sg274
I1
sg275
F1.0
sg263
g276
sg277
I1
sg278
F258.02162504196167
ssI109
(dp498
g8
F0.6005630493164062
sg268
S'./stimfiles/scenes/382.jpg'
p499
sg270
F260.0
sg271
g321
sg273
I10
sg274
I1
sg275
F1.0
sg263
g276
sg277
I0
sg278
F260.02237606048584
ssI110
(dp500
g8
F0.6440939903259277
sg268
S'./stimfiles/chinese_characters/20529.jpg'
p501
sg270
F264.0
sg271
g272
sg273
I11
sg274
I2
sg275
F1.0
sg263
g276
sg277
I0
sg278
F264.0240230560303
ssI111
(dp502
g8
F0.5042970180511475
sg268
S'./stimfiles/chinese_characters/29852.jpg'
p503
sg270
F266.0
sg271
g272
sg273
I11
sg274
I2
sg275
F1.0
sg263
g276
sg277
I0
sg278
F266.02491903305054
ssI112
(dp504
g8
F0.627587080001831
sg268
S'./stimfiles/chinese_characters/29852.jpg'
p505
sg270
F268.0
sg271
g272
sg273
I11
sg274
I2
sg275
F1.0
sg263
g276
sg277
I1
sg278
F268.0257661342621
ssI113
(dp506
g8
F0.6505589485168457
sg268
S'./stimfiles/chinese_characters/26253.jpg'
p507
sg270
F270.0
sg271
g272
sg273
I11
sg274
I2
sg275
F1.0
sg263
g276
sg277
I0
sg278
F270.0265371799469
ssI114
(dp508
g8
F0.727708101272583
sg268
S'./stimfiles/chinese_characters/24653.jpg'
p509
sg270
F272.0
sg271
g272
sg273
I11
sg274
I2
sg275
F1.0
sg263
g276
sg277
I0
sg278
F272.01069498062134
ssI115
(dp510
g8
F0.6249399185180664
sg268
S'./stimfiles/chinese_characters/20630.jpg'
p511
sg270
F274.0
sg271
g272
sg273
I11
sg274
I2
sg275
F1.0
sg263
g276
sg277
I0
sg278
F274.0115520954132
ssI116
(dp512
g8
F0.6190989017486572
sg268
S'./stimfiles/chinese_characters/26253.jpg'
p513
sg270
F276.0
sg271
g272
sg273
I11
sg274
I2
sg275
F1.0
sg263
g276
sg277
I3
sg278
F276.01233410835266
ssI117
(dp514
g8
F0.72635817527771
sg268
S'./stimfiles/chinese_characters/20630.jpg'
p515
sg270
F278.0
sg271
g272
sg273
I11
sg274
I2
sg275
F1.0
sg263
g283
sg277
I2
sg278
F278.01314997673035
ssI118
(dp516
g8
F0.9115850925445557
sg268
S'./stimfiles/chinese_characters/20599.jpg'
p517
sg270
F280.0
sg271
g272
sg273
I11
sg274
I2
sg275
F1.0
sg263
g276
sg277
I0
sg278
F280.01398611068726
ssI119
(dp518
g268
S'./stimfiles/chinese_characters/20630.jpg'
p519
sg270
F282.0
sg271
g272
sg273
I11
sg274
I2
sg275
F1.0
sg277
I2
sg278
F282.0147659778595
ssI120
(dp520
g8
F0.7215878963470459
sg268
S'./stimfiles/chinese_characters/25000.jpg'
p521
sg270
F306.0
sg271
g272
sg273
I12
sg274
I1
sg275
F1.0
sg263
g276
sg277
I0
sg278
F306.0246741771698
ssI121
(dp522
g8
F0.5587928295135498
sg268
S'./stimfiles/chinese_characters/25626.jpg'
p523
sg270
F308.0
sg271
g272
sg273
I12
sg274
I1
sg275
F1.0
sg263
g276
sg277
I0
sg278
F308.02547121047974
ssI122
(dp524
g8
F0.47938108444213867
sg268
S'./stimfiles/chinese_characters/25626.jpg'
p525
sg270
F310.0
sg271
g272
sg273
I12
sg274
I1
sg275
F1.0
sg263
g283
sg277
I1
sg278
F310.0262370109558
ssI123
(dp526
g8
F0.592991828918457
sg268
S'./stimfiles/chinese_characters/25000.jpg'
p527
sg270
F312.0
sg271
g272
sg273
I12
sg274
I1
sg275
F1.0
sg263
g276
sg277
I3
sg278
F312.0105001926422
ssI124
(dp528
g8
F0.6703448295593262
sg268
S'./stimfiles/chinese_characters/30247.jpg'
p529
sg270
F314.0
sg271
g272
sg273
I12
sg274
I1
sg275
F1.0
sg263
g276
sg277
I0
sg278
F314.0112512111664
ssI125
(dp530
g8
F0.5855660438537598
sg268
S'./stimfiles/chinese_characters/25626.jpg'
p531
sg270
F316.0
sg271
g272
sg273
I12
sg274
I1
sg275
F1.0
sg263
g276
sg277
I3
sg278
F316.0121240615845
ssI126
(dp532
g8
F0.7478630542755127
sg268
S'./stimfiles/chinese_characters/25626.jpg'
p533
sg270
F318.0
sg271
g272
sg273
I12
sg274
I1
sg275
F1.0
sg263
g283
sg277
I1
sg278
F318.0128970146179
ssI127
(dp534
g8
F0.6509850025177002
sg268
S'./stimfiles/chinese_characters/29794.jpg'
p535
sg270
F320.0
sg271
g272
sg273
I12
sg274
I1
sg275
F1.0
sg263
g276
sg277
I0
sg278
F320.0137481689453
ssI128
(dp536
g8
F0.9852170944213867
sg268
S'./stimfiles/chinese_characters/25626.jpg'
p537
sg270
F322.0
sg271
g272
sg273
I12
sg274
I1
sg275
F1.0
sg263
g276
sg277
I2
sg278
F322.0146551132202
ssI129
(dp538
g8
F0.9003970623016357
sg268
S'./stimfiles/chinese_characters/29794.jpg'
p539
sg270
F324.0
sg271
g272
sg273
I12
sg274
I1
sg275
F1.0
sg263
g276
sg277
I2
sg278
F324.01536798477173
ssI130
(dp540
g8
F0.646920919418335
sg268
S'./stimfiles/faces/cropped_456.png'
p541
sg270
F328.0
sg271
g300
sg273
I13
sg274
I1
sg275
F1.0
sg263
g276
sg277
I0
sg278
F328.01702308654785
ssI131
(dp542
g8
F0.5379989147186279
sg268
S'./stimfiles/faces/cropped_12MVC-003F.png'
p543
sg270
F330.0
sg271
g300
sg273
I13
sg274
I1
sg275
F1.0
sg263
g276
sg277
I0
sg278
F330.0178921222687
ssI132
(dp544
g8
F0.7155008316040039
sg268
S'./stimfiles/faces/cropped_79.png'
p545
sg270
F332.0
sg271
g300
sg273
I13
sg274
I1
sg275
F1.0
sg263
g276
sg277
I0
sg278
F332.0186882019043
ssI133
(dp546
g8
F0.7314739227294922
sg268
S'./stimfiles/faces/cropped_231.png'
p547
sg270
F334.0
sg271
g300
sg273
I13
sg274
I1
sg275
F1.0
sg263
g276
sg277
I0
sg278
F334.0194652080536
ssI134
(dp548
g268
S'./stimfiles/faces/cropped_12MVC-003F.png'
p549
sg270
F336.0
sg271
g300
sg273
I13
sg274
I1
sg275
F1.0
sg277
I3
sg278
F336.02036905288696
ssI135
(dp550
g8
F0.7431111335754395
sg268
S'./stimfiles/faces/cropped_231.png'
p551
sg270
F338.0
sg271
g300
sg273
I13
sg274
I1
sg275
F1.0
sg263
g276
sg277
I2
sg278
F338.02116799354553
ssI136
(dp552
g8
F0.679487943649292
sg268
S'./stimfiles/faces/cropped_238.png'
p553
sg270
F340.0
sg271
g300
sg273
I13
sg274
I1
sg275
F1.0
sg263
g276
sg277
I0
sg278
F340.0219531059265
ssI137
(dp554
g8
F0.6125121116638184
sg268
S'./stimfiles/faces/cropped_231.png'
p555
sg270
F342.0
sg271
g300
sg273
I13
sg274
I1
sg275
F1.0
sg263
g276
sg277
I2
sg278
F342.0227379798889
ssI138
(dp556
g8
F0.7208731174468994
sg268
S'./stimfiles/faces/cropped_727.png'
p557
sg270
F344.0
sg271
g300
sg273
I13
sg274
I1
sg275
F1.0
sg263
g276
sg277
I0
sg278
F344.02357006073
ssI139
(dp558
g8
F0.671173095703125
sg268
S'./stimfiles/faces/cropped_663.png'
p559
sg270
F346.0
sg271
g300
sg273
I13
sg274
I1
sg275
F1.0
sg263
g276
sg277
I0
sg278
F346.0244200229645
ssI140
(dp560
g8
F0.6291019916534424
sg268
S'./stimfiles/scenes/1753.jpg'
p561
sg270
F350.0
sg271
g321
sg273
I14
sg274
I2
sg275
F1.0
sg263
g276
sg277
I0
sg278
F350.0094561576843
ssI141
(dp562
g8
F0.8345000743865967
sg268
S'./stimfiles/scenes/1753.jpg'
p563
sg270
F352.0
sg271
g321
sg273
I14
sg274
I2
sg275
F1.0
sg263
g276
sg277
I1
sg278
F352.01021099090576
ssI142
(dp564
g8
F0.6467700004577637
sg268
S'./stimfiles/scenes/125.jpg'
p565
sg270
F354.0
sg271
g321
sg273
I14
sg274
I2
sg275
F1.0
sg263
g276
sg277
I0
sg278
F354.0109930038452
ssI143
(dp566
g8
F0.6219580173492432
sg268
S'./stimfiles/scenes/1753.jpg'
p567
sg270
F356.0
sg271
g321
sg273
I14
sg274
I2
sg275
F1.0
sg263
g283
sg277
I3
sg278
F356.01187801361084
ssI144
(dp568
g8
F0.5450549125671387
sg268
S'./stimfiles/scenes/319.jpg'
p569
sg270
F358.0
sg271
g321
sg273
I14
sg274
I2
sg275
F1.0
sg263
g276
sg277
I0
sg278
F358.0127282142639
ssI145
(dp570
g8
F0.593458890914917
sg268
S'./stimfiles/scenes/1331.jpg'
p571
sg270
F360.0
sg271
g321
sg273
I14
sg274
I2
sg275
F1.0
sg263
g276
sg277
I0
sg278
F360.0135021209717
ssI146
(dp572
g8
F0.8606829643249512
sg268
S'./stimfiles/scenes/485.jpg'
p573
sg270
F362.0
sg271
g321
sg273
I14
sg274
I2
sg275
F1.0
sg263
g276
sg277
I0
sg278
F362.01427817344666
ssI147
(dp574
g8
F0.8087780475616455
sg268
S'./stimfiles/scenes/3104.jpg'
p575
sg270
F364.0
sg271
g321
sg273
I14
sg274
I2
sg275
F1.0
sg263
g283
sg277
I0
sg278
F364.0152220726013
ssI148
(dp576
g8
F0.6999471187591553
sg268
S'./stimfiles/scenes/434.jpg'
p577
sg270
F366.0
sg271
g321
sg273
I14
sg274
I2
sg275
F1.0
sg263
g276
sg277
I0
sg278
F366.0159959793091
ssI149
(dp578
g8
F0.7612810134887695
sg268
S'./stimfiles/scenes/485.jpg'
p579
sg270
F368.0
sg271
g321
sg273
I14
sg274
I2
sg275
F1.0
sg263
g276
sg277
I3
sg278
F368.0168340206146
ssI150
(dp580
g8
F0.5878219604492188
sg268
S'./stimfiles/faces/cropped_58.png'
p581
sg270
F372.0
sg271
g300
sg273
I15
sg274
I2
sg275
F1.0
sg263
g276
sg277
I0
sg278
F372.0183801651001
ssI151
(dp582
g8
F0.621027946472168
sg268
S'./stimfiles/faces/cropped_m4075.png'
p583
sg270
F374.0
sg271
g300
sg273
I15
sg274
I2
sg275
F1.0
sg263
g276
sg277
I0
sg278
F374.0192711353302
ssI152
(dp584
g8
F0.5593700408935547
sg268
S'./stimfiles/faces/cropped_514.png'
p585
sg270
F376.0
sg271
g300
sg273
I15
sg274
I2
sg275
F1.0
sg263
g276
sg277
I0
sg278
F376.0200641155243
ssI153
(dp586
g8
F0.535332202911377
sg268
S'./stimfiles/faces/cropped_m4075.png'
p587
sg270
F378.0
sg271
g300
sg273
I15
sg274
I2
sg275
F1.0
sg263
g283
sg277
I2
sg278
F378.0209469795227
ssI154
(dp588
g8
F0.6326489448547363
sg268
S'./stimfiles/faces/cropped_f-008-01.png'
p589
sg270
F380.0
sg271
g300
sg273
I15
sg274
I2
sg275
F1.0
sg263
g276
sg277
I0
sg278
F380.02180218696594
ssI155
(dp590
g8
F0.5810458660125732
sg268
S'./stimfiles/faces/cropped_702.png'
p591
sg270
F382.0
sg271
g300
sg273
I15
sg274
I2
sg275
F1.0
sg263
g276
sg277
I0
sg278
F382.0225532054901
ssI156
(dp592
g8
F0.5612750053405762
sg268
S'./stimfiles/faces/cropped_04003.png'
p593
sg270
F384.0
sg271
g300
sg273
I15
sg274
I2
sg275
F1.0
sg263
g276
sg277
I0
sg278
F384.02336502075195
ssI157
(dp594
g8
F0.8874630928039551
sg268
S'./stimfiles/faces/cropped_f-008-01.png'
p595
sg270
F386.0
sg271
g300
sg273
I15
sg274
I2
sg275
F1.0
sg263
g276
sg277
I3
sg278
F386.0241940021515
ssI158
(dp596
g8
F0.6267139911651611
sg268
S'./stimfiles/faces/cropped_i446wa-fn.png'
p597
sg270
F388.0
sg271
g300
sg273
I15
sg274
I2
sg275
F1.0
sg263
g276
sg277
I0
sg278
F388.024973154068
ssI159
(dp598
g8
F0.7040660381317139
sg268
S'./stimfiles/faces/cropped_00441015.png'
p599
sg270
F390.0
sg271
g300
sg273
I15
sg274
I2
sg275
F1.0
sg263
g276
sg277
I0
sg278
F390.02581810951233
ssI160
(dp600
g8
F0.5450849533081055
sg268
S'./stimfiles/scenes/3024.jpg'
p601
sg270
F394.0
sg271
g321
sg273
I16
sg274
I1
sg275
F1.0
sg263
g276
sg277
I0
sg278
F394.0107741355896
ssI161
(dp602
g8
F0.781278133392334
sg268
S'./stimfiles/scenes/3024.jpg'
p603
sg270
F396.0
sg271
g321
sg273
I16
sg274
I1
sg275
F1.0
sg263
g283
sg277
I1
sg278
F396.0116400718689
ssI162
(dp604
g8
F0.8907070159912109
sg268
S'./stimfiles/scenes/408.jpg'
p605
sg270
F398.0
sg271
g321
sg273
I16
sg274
I1
sg275
F1.0
sg263
g276
sg277
I0
sg278
F398.01243114471436
ssI163
(dp606
g8
F0.5496909618377686
sg268
S'./stimfiles/scenes/1526.jpg'
p607
sg270
F400.0
sg271
g321
sg273
I16
sg274
I1
sg275
F1.0
sg263
g276
sg277
I0
sg278
F400.0132350921631
ssI164
(dp608
g8
F0.7039279937744141
sg268
S'./stimfiles/scenes/3024.jpg'
p609
sg270
F402.0
sg271
g321
sg273
I16
sg274
I1
sg275
F1.0
sg263
g276
sg277
I3
sg278
F402.0140790939331
ssI165
(dp610
g8
F0.5443239212036133
sg268
S'./stimfiles/scenes/363.jpg'
p611
sg270
F404.0
sg271
g321
sg273
I16
sg274
I1
sg275
F1.0
sg263
g276
sg277
I0
sg278
F404.01492619514465
ssI166
(dp612
g8
F0.48441600799560547
sg268
S'./stimfiles/scenes/403.jpg'
p613
sg270
F406.0
sg271
g321
sg273
I16
sg274
I1
sg275
F1.0
sg263
g276
sg277
I0
sg278
F406.0157551765442
ssI167
(dp614
g8
F0.43944597244262695
sg268
S'./stimfiles/scenes/403.jpg'
p615
sg270
F408.0
sg271
g321
sg273
I16
sg274
I1
sg275
F1.0
sg263
g283
sg277
I1
sg278
F408.0165731906891
ssI168
(dp616
g8
F0.46684813499450684
sg268
S'./stimfiles/scenes/363.jpg'
p617
sg270
F410.0
sg271
g321
sg273
I16
sg274
I1
sg275
F1.0
sg263
g276
sg277
I3
sg278
F410.0174250602722
ssI169
(dp618
g8
F0.6869790554046631
sg268
S'./stimfiles/scenes/1838.jpg'
p619
sg270
F412.0
sg271
g321
sg273
I16
sg274
I1
sg275
F1.0
sg263
g276
sg277
I0
sg278
F412.0182499885559
ssI170
(dp620
g8
F0.6335740089416504
sg268
S'./stimfiles/chinese_characters/25434.jpg'
p621
sg270
F416.0
sg271
g272
sg273
I17
sg274
I2
sg275
F1.0
sg263
g276
sg277
I0
sg278
F416.01985907554626
ssI171
(dp622
g8
F0.44307398796081543
sg268
S'./stimfiles/chinese_characters/29903.jpg'
p623
sg270
F418.0
sg271
g272
sg273
I17
sg274
I2
sg275
F1.0
sg263
g276
sg277
I0
sg278
F418.0206561088562
ssI172
(dp624
g8
F0.5671730041503906
sg268
S'./stimfiles/chinese_characters/25434.jpg'
p625
sg270
F420.0
sg271
g272
sg273
I17
sg274
I2
sg275
F1.0
sg263
g283
sg277
I2
sg278
F420.0214591026306
ssI173
(dp626
g8
F0.705564022064209
sg268
S'./stimfiles/chinese_characters/25655.jpg'
p627
sg270
F422.0
sg271
g272
sg273
I17
sg274
I2
sg275
F1.0
sg263
g276
sg277
I0
sg278
F422.0222861766815
ssI174
(dp628
g268
S'./stimfiles/chinese_characters/29903.jpg'
p629
sg270
F424.0
sg271
g272
sg273
I17
sg274
I2
sg275
F1.0
sg277
I3
sg278
F424.0231490135193
ssI175
(dp630
g8
F0.7589850425720215
sg268
S'./stimfiles/chinese_characters/25655.jpg'
p631
sg270
F426.0
sg271
g272
sg273
I17
sg274
I2
sg275
F1.0
sg263
g283
sg277
I2
sg278
F426.0239751338959
ssI176
(dp632
g8
F0.6168050765991211
sg268
S'./stimfiles/chinese_characters/27469.jpg'
p633
sg270
F428.0
sg271
g272
sg273
I17
sg274
I2
sg275
F1.0
sg263
g276
sg277
I0
sg278
F428.02480912208557
ssI177
(dp634
g8
F0.7793209552764893
sg268
S'./stimfiles/chinese_characters/29889.jpg'
p635
sg270
F430.0
sg271
g272
sg273
I17
sg274
I2
sg275
F1.0
sg263
g276
sg277
I0
sg278
F430.02561116218567
ssI178
(dp636
g8
F0.7344951629638672
sg268
S'./stimfiles/chinese_characters/35474.jpg'
p637
sg270
F432.0
sg271
g272
sg273
I17
sg274
I2
sg275
F1.0
sg263
g276
sg277
I0
sg278
F432.02645802497864
ssI179
(dp638
g8
F0.7847938537597656
sg268
S'./stimfiles/chinese_characters/29303.jpg'
p639
sg270
F434.0
sg271
g272
sg273
I17
sg274
I2
sg275
F1.0
sg263
g276
sg277
I0
sg278
F434.0272271633148
sssS'stim_log'
p640
(dp641
sS'nstims'
p642
I5
sS'inter_stim_int'
p643
F1.0
sS'SS'
p644
(dp645
sS'inst_time'
p646
F1.0
sS'broke_on_trial'
p647
(dp648
sS'events'
p649
(lp650
(lp651
F0.0
aI0
aI1
aI0
aS'inst'
p652
aa(lp653
F2.0
aI0
aI1
aI0
ag269
aa(lp654
F4.0
aI0
aI1
aI0
ag280
aa(lp655
F6.0
aI0
aI1
aI1
ag282
aa(lp656
F8.0
aI0
aI1
aI1
ag285
aa(lp657
F10.0
aI0
aI1
aI3
ag287
aa(lp658
F12.0
aI0
aI1
aI0
ag289
aa(lp659
F14.0
aI0
aI1
aI0
ag291
aa(lp660
F16.0
aI0
aI1
aI0
ag293
aa(lp661
F18.0
aI0
aI1
aI0
ag295
aa(lp662
F20.0
aI0
aI1
aI1
ag297
aa(lp663
F22.0
aI1
aI1
aI0
aS'inst'
p664
aa(lp665
F24.0
aI1
aI1
aI0
ag299
aa(lp666
F26.0
aI1
aI1
aI0
ag302
aa(lp667
F28.0
aI1
aI1
aI0
ag304
aa(lp668
F30.0
aI1
aI1
aI0
ag306
aa(lp669
F32.0
aI1
aI1
aI1
ag308
aa(lp670
F34.0
aI1
aI1
aI0
ag310
aa(lp671
F36.0
aI1
aI1
aI3
ag312
aa(lp672
F38.0
aI1
aI1
aI0
ag314
aa(lp673
F40.0
aI1
aI1
aI0
ag316
aa(lp674
F42.0
aI1
aI1
aI0
ag318
aa(lp675
F44.0
aI2
aI2
aI0
aS'inst'
p676
aa(lp677
F46.0
aI2
aI2
aI0
ag320
aa(lp678
F48.0
aI2
aI2
aI1
ag323
aa(lp679
F50.0
aI2
aI2
aI0
ag325
aa(lp680
F52.0
aI2
aI2
aI0
ag327
aa(lp681
F54.0
aI2
aI2
aI2
ag329
aa(lp682
F56.0
aI2
aI2
aI1
ag331
aa(lp683
F58.0
aI2
aI2
aI0
ag333
aa(lp684
F60.0
aI2
aI2
aI2
ag335
aa(lp685
F62.0
aI2
aI2
aI0
ag337
aa(lp686
F64.0
aI2
aI2
aI2
ag339
aa(lp687
F66.0
aI3
aI2
aI0
aS'inst'
p688
aa(lp689
F68.0
aI3
aI2
aI0
ag341
aa(lp690
F70.0
aI3
aI2
aI1
ag343
aa(lp691
F72.0
aI3
aI2
aI1
ag345
aa(lp692
F74.0
aI3
aI2
aI0
ag347
aa(lp693
F76.0
aI3
aI2
aI0
ag349
aa(lp694
F78.0
aI3
aI2
aI3
ag351
aa(lp695
F80.0
aI3
aI2
aI2
ag353
aa(lp696
F82.0
aI3
aI2
aI0
ag355
aa(lp697
F84.0
aI3
aI2
aI0
ag357
aa(lp698
F86.0
aI3
aI2
aI2
ag359
aa(lp699
F88.0
aI4
aI1
aI0
aS'inst'
p700
aa(lp701
F90.0
aI4
aI1
aI0
ag361
aa(lp702
F92.0
aI4
aI1
aI0
ag363
aa(lp703
F94.0
aI4
aI1
aI2
ag365
aa(lp704
F96.0
aI4
aI1
aI1
ag367
aa(lp705
F98.0
aI4
aI1
aI0
ag369
aa(lp706
F100.0
aI4
aI1
aI0
ag371
aa(lp707
F102.0
aI4
aI1
aI2
ag373
aa(lp708
F104.0
aI4
aI1
aI1
ag375
aa(lp709
F106.0
aI4
aI1
aI0
ag377
aa(lp710
F108.0
aI4
aI1
aI0
ag379
aa(lp711
F110.0
aI5
aI2
aI0
aS'inst'
p712
aa(lp713
F112.0
aI5
aI2
aI0
ag381
aa(lp714
F114.0
aI5
aI2
aI0
ag383
aa(lp715
F116.0
aI5
aI2
aI0
ag385
aa(lp716
F118.0
aI5
aI2
aI2
ag387
aa(lp717
F120.0
aI5
aI2
aI2
ag389
aa(lp718
F122.0
aI5
aI2
aI0
ag391
aa(lp719
F124.0
aI5
aI2
aI1
ag393
aa(lp720
F126.0
aI5
aI2
aI0
ag395
aa(lp721
F128.0
aI5
aI2
aI3
ag397
aa(lp722
F130.0
aI5
aI2
aI1
ag399
aa(lp723
F152.0
aI0
aI1
aI0
aS'inst'
p724
aa(lp725
F154.0
aI6
aI1
aI0
ag401
aa(lp726
F156.0
aI6
aI1
aI0
ag403
aa(lp727
F158.0
aI6
aI1
aI0
ag405
aa(lp728
F160.0
aI6
aI1
aI0
ag407
aa(lp729
F162.0
aI6
aI1
aI0
ag409
aa(lp730
F164.0
aI6
aI1
aI0
ag411
aa(lp731
F166.0
aI6
aI1
aI0
ag413
aa(lp732
F168.0
aI6
aI1
aI2
ag415
aa(lp733
F170.0
aI6
aI1
aI1
ag417
aa(lp734
F172.0
aI6
aI1
aI0
ag419
aa(lp735
F174.0
aI1
aI1
aI0
aS'inst'
p736
aa(lp737
F176.0
aI7
aI1
aI0
ag421
aa(lp738
F178.0
aI7
aI1
aI1
ag423
aa(lp739
F180.0
aI7
aI1
aI0
ag425
aa(lp740
F182.0
aI7
aI1
aI1
ag427
aa(lp741
F184.0
aI7
aI1
aI3
ag429
aa(lp742
F186.0
aI7
aI1
aI2
ag431
aa(lp743
F188.0
aI7
aI1
aI1
ag433
aa(lp744
F190.0
aI7
aI1
aI0
ag435
aa(lp745
F192.0
aI7
aI1
aI1
ag437
aa(lp746
F194.0
aI7
aI1
aI1
ag439
aa(lp747
F196.0
aI2
aI2
aI0
aS'inst'
p748
aa(lp749
F198.0
aI8
aI2
aI0
ag441
aa(lp750
F200.0
aI8
aI2
aI0
ag443
aa(lp751
F202.0
aI8
aI2
aI2
ag445
aa(lp752
F204.0
aI8
aI2
aI0
ag447
aa(lp753
F206.0
aI8
aI2
aI3
ag449
aa(lp754
F208.0
aI8
aI2
aI2
ag451
aa(lp755
F210.0
aI8
aI2
aI0
ag453
aa(lp756
F212.0
aI8
aI2
aI0
ag455
aa(lp757
F214.0
aI8
aI2
aI0
ag457
aa(lp758
F216.0
aI8
aI2
aI2
ag459
aa(lp759
F218.0
aI3
aI2
aI0
aS'inst'
p760
aa(lp761
F220.0
aI9
aI2
aI0
ag461
aa(lp762
F222.0
aI9
aI2
aI0
ag463
aa(lp763
F224.0
aI9
aI2
aI2
ag465
aa(lp764
F226.0
aI9
aI2
aI0
ag467
aa(lp765
F228.0
aI9
aI2
aI0
ag469
aa(lp766
F230.0
aI9
aI2
aI2
ag471
aa(lp767
F232.0
aI9
aI2
aI0
ag473
aa(lp768
F234.0
aI9
aI2
aI1
ag475
aa(lp769
F236.0
aI9
aI2
aI3
ag477
aa(lp770
F238.0
aI9
aI2
aI2
ag479
aa(lp771
F240.0
aI4
aI1
aI0
aS'inst'
p772
aa(lp773
F242.0
aI10
aI1
aI0
ag481
aa(lp774
F244.0
aI10
aI1
aI0
ag483
aa(lp775
F246.0
aI10
aI1
aI2
ag485
aa(lp776
F248.0
aI10
aI1
aI0
ag487
aa(lp777
F250.0
aI10
aI1
aI1
ag489
aa(lp778
F252.0
aI10
aI1
aI0
ag491
aa(lp779
F254.0
aI10
aI1
aI0
ag493
aa(lp780
F256.0
aI10
aI1
aI3
ag495
aa(lp781
F258.0
aI10
aI1
aI1
ag497
aa(lp782
F260.0
aI10
aI1
aI0
ag499
aa(lp783
F262.0
aI5
aI2
aI0
aS'inst'
p784
aa(lp785
F264.0
aI11
aI2
aI0
ag501
aa(lp786
F266.0
aI11
aI2
aI0
ag503
aa(lp787
F268.0
aI11
aI2
aI1
ag505
aa(lp788
F270.0
aI11
aI2
aI0
ag507
aa(lp789
F272.0
aI11
aI2
aI0
ag509
aa(lp790
F274.0
aI11
aI2
aI0
ag511
aa(lp791
F276.0
aI11
aI2
aI3
ag513
aa(lp792
F278.0
aI11
aI2
aI2
ag515
aa(lp793
F280.0
aI11
aI2
aI0
ag517
aa(lp794
F282.0
aI11
aI2
aI2
ag519
aa(lp795
F304.0
aI0
aI1
aI0
aS'inst'
p796
aa(lp797
F306.0
aI12
aI1
aI0
ag521
aa(lp798
F308.0
aI12
aI1
aI0
ag523
aa(lp799
F310.0
aI12
aI1
aI1
ag525
aa(lp800
F312.0
aI12
aI1
aI3
ag527
aa(lp801
F314.0
aI12
aI1
aI0
ag529
aa(lp802
F316.0
aI12
aI1
aI3
ag531
aa(lp803
F318.0
aI12
aI1
aI1
ag533
aa(lp804
F320.0
aI12
aI1
aI0
ag535
aa(lp805
F322.0
aI12
aI1
aI2
ag537
aa(lp806
F324.0
aI12
aI1
aI2
ag539
aa(lp807
F326.0
aI1
aI1
aI0
aS'inst'
p808
aa(lp809
F328.0
aI13
aI1
aI0
ag541
aa(lp810
F330.0
aI13
aI1
aI0
ag543
aa(lp811
F332.0
aI13
aI1
aI0
ag545
aa(lp812
F334.0
aI13
aI1
aI0
ag547
aa(lp813
F336.0
aI13
aI1
aI3
ag549
aa(lp814
F338.0
aI13
aI1
aI2
ag551
aa(lp815
F340.0
aI13
aI1
aI0
ag553
aa(lp816
F342.0
aI13
aI1
aI2
ag555
aa(lp817
F344.0
aI13
aI1
aI0
ag557
aa(lp818
F346.0
aI13
aI1
aI0
ag559
aa(lp819
F348.0
aI2
aI2
aI0
aS'inst'
p820
aa(lp821
F350.0
aI14
aI2
aI0
ag561
aa(lp822
F352.0
aI14
aI2
aI1
ag563
aa(lp823
F354.0
aI14
aI2
aI0
ag565
aa(lp824
F356.0
aI14
aI2
aI3
ag567
aa(lp825
F358.0
aI14
aI2
aI0
ag569
aa(lp826
F360.0
aI14
aI2
aI0
ag571
aa(lp827
F362.0
aI14
aI2
aI0
ag573
aa(lp828
F364.0
aI14
aI2
aI0
ag575
aa(lp829
F366.0
aI14
aI2
aI0
ag577
aa(lp830
F368.0
aI14
aI2
aI3
ag579
aa(lp831
F370.0
aI3
aI2
aI0
aS'inst'
p832
aa(lp833
F372.0
aI15
aI2
aI0
ag581
aa(lp834
F374.0
aI15
aI2
aI0
ag583
aa(lp835
F376.0
aI15
aI2
aI0
ag585
aa(lp836
F378.0
aI15
aI2
aI2
ag587
aa(lp837
F380.0
aI15
aI2
aI0
ag589
aa(lp838
F382.0
aI15
aI2
aI0
ag591
aa(lp839
F384.0
aI15
aI2
aI0
ag593
aa(lp840
F386.0
aI15
aI2
aI3
ag595
aa(lp841
F388.0
aI15
aI2
aI0
ag597
aa(lp842
F390.0
aI15
aI2
aI0
ag599
aa(lp843
F392.0
aI4
aI1
aI0
aS'inst'
p844
aa(lp845
F394.0
aI16
aI1
aI0
ag601
aa(lp846
F396.0
aI16
aI1
aI1
ag603
aa(lp847
F398.0
aI16
aI1
aI0
ag605
aa(lp848
F400.0
aI16
aI1
aI0
ag607
aa(lp849
F402.0
aI16
aI1
aI3
ag609
aa(lp850
F404.0
aI16
aI1
aI0
ag611
aa(lp851
F406.0
aI16
aI1
aI0
ag613
aa(lp852
F408.0
aI16
aI1
aI1
ag615
aa(lp853
F410.0
aI16
aI1
aI3
ag617
aa(lp854
F412.0
aI16
aI1
aI0
ag619
aa(lp855
F414.0
aI5
aI2
aI0
aS'inst'
p856
aa(lp857
F416.0
aI17
aI2
aI0
ag621
aa(lp858
F418.0
aI17
aI2
aI0
ag623
aa(lp859
F420.0
aI17
aI2
aI2
ag625
aa(lp860
F422.0
aI17
aI2
aI0
ag627
aa(lp861
F424.0
aI17
aI2
aI3
ag629
aa(lp862
F426.0
aI17
aI2
aI2
ag631
aa(lp863
F428.0
aI17
aI2
aI0
ag633
aa(lp864
F430.0
aI17
aI2
aI0
ag635
aa(lp865
F432.0
aI17
aI2
aI0
ag637
aa(lp866
F434.0
aI17
aI2
aI0
ag639
aasS'is_this_SS_trial'
p867
(dp868
sS'subcode'
p869
S'self-tracking_0020'
p870
sS'start_key'
p871
S'5'
p872
s.