(dp0
S'stim_onset_time'
p1
(dp2
sS'datestamp'
p3
S'2013-05-09-07_52_22'
p4
sS'ntrials_per_block'
p5
I6
sS'expt_title'
p6
S'Self_Tracking'
p7
sS'rt'
p8
(dp9
sS'simulated_response'
p10
I00
sS'script'
p11
(lp12
S'#!/usr/bin/env python\n'
p13
aS'\n'
p14
aS'import psychopy\n'
p15
aS'from psychopy import visual, core, event, logging, data, misc, sound\n'
p16
aS'import numpy as N\n'
p17
aS'import pickle,csv\n'
p18
aS'import datetime\n'
p19
aS'import sys\n'
p20
aS'import os, socket, random\n'
p21
aS'import inspect\n'
p22
aS'import hashlib\n'
p23
aS'from socket import gethostname\n'
p24
aS'import exptutils\n'
p25
aS'from exptutils import *\n'
p26
aS'from pylab import imread\n'
p27
ag14
aS'try:\n'
p28
aS'    from save_data_to_db import *\n'
p29
aS'    save_data=1\n'
p30
aS'except:\n'
p31
aS"    print 'cannnot import save_data_to_db'\n"
p32
aS'    save_data=0\n'
p33
ag14
aS'def store_scriptfile():\n'
p34
aS'    scriptfile= inspect.getfile(inspect.currentframe())# save a copy of the script in the data file\n'
p35
aS'    f=open(scriptfile)\n'
p36
aS'    script=f.readlines()\n'
p37
aS'    f.close()\n'
p38
aS'    return script\n'
p39
ag14
aS'#\n'
p40
aS'#- - - - - - - - - - - - - - - - - - - - - - - - - - - - - - - - - - - - - - - - - - - - - - - - - - - - - - - - - - - - - - - - - - - - - - - - - - - - - -\n'
p41
aS'#define functions for awaiting keyboard input & displaying initial instructions\n'
p42
aS'#these functions will be called prior to the stim_block() function (at bottom)\n'
p43
ag14
aS'def wait_for_trigger():\n'
p44
aS'    event.clearEvents()\n'
p45
aS"    if subdata['simulated_response']:\n"
p46
aS'        msg="SIMULATION MODE"\n'
p47
aS'    else:\n'
p48
aS"        msg=''\n"
p49
aS"    message=visual.TextStim(win, text='%s Waiting for start key (or press %s)'%(msg,subdata['start_key']),\n"
p50
aS"    font='BiauKai', height=1,color=u'white', colorSpace=u'rgb', opacity=1,depth=0.0,\n"
p51
aS"    alignHoriz='center',wrapWidth=50)\n"
p52
aS'    message.setAutoDraw(True) #automatically draw every frame\n'
p53
aS'    win.flip()\n'
p54
aS'    start=False\n'
p55
aS'    while start==False:\n'
p56
aS'        k=event.waitKeys()\n'
p57
aS"        if k.count(subdata['start_key'])>0:#as soon as subdata['start_key'] is pressed...\n"
p58
aS'            start=True\n'
p59
aS"            message.setText('')#this clears the screen\n"
p60
aS'            win.flip()\n'
p61
aS"        if k.count(subdata['quit_key']) >0:# if subdata['quit_key'] is pressed...\n"
p62
aS'            exptutils.shut_down_cleanly(subdata,win)\n'
p63
aS'            return subdata\n'
p64
aS'            \n'
p65
aS"def instructions(n,duration):#n here changes depending on the n-back level; yes/no will also switch between 'u' & 'i' keys depending on the Order number selected\n"
p66
aS'    event.clearEvents()\n'
p67
aS"    instructions=visual.TextStim(win=win, ori=0, name='instructions',font='BiauKai',\n"
p68
aS"        text='%d back'%n,\n"
p69
aS"        height=2,color=u'white', colorSpace=u'rgb', alignHoriz='center',wrapWidth=50)\n"
p70
aS'    instructions.setAutoDraw(True)\n'
p71
aS'    win.flip()\n'
p72
aS'    core.wait(duration)#currently it is set up to keep instructions on screen the designated amt of time; a button press will not end these instructions sooner\n'
p73
aS"    instructions.setText('')\n"
p74
aS'    win.flip()\n'
p75
ag14
aS'#- - - - - - - - - - - - - - - - - - - - - - - - - - - - - - - - - - - - - - - - - - - - - - - - - - - - - - - - - - - - - - - - - - - - - - - - \n'
p76
ag14
ag14
aS'#define function for displaying visual stims for each trial on n-back task\n'
p77
ag14
aS'def draw_stim(win,event_info,subdata,visual_stim):\n'
p78
aS'    trialdata={}\n'
p79
aS"    trialdata['duration']=subdata['stim_dur']\n"
p80
aS"    trialdata['onset'],trialdata['block'],trialdata['nback'],trialdata['match'],trialdata['stim']=event_info\n"
p81
aS'    # NB: I removed a lot of data handling stuff from within this function\n'
p82
aS'    # instead, the data get returned and handled at the calling level\n'
p83
aS"    print trialdata['stim']\n"
p84
aS"    if trialdata['stim'].find('faces')>-1:#if it is a face image, display vertically\n"
p85
aS"        stim_type='faces'\n"
p86
aS"    elif trialdata['stim'].find('scenes')>-1:#\n"
p87
aS"        stim_type='scenes'\n"
p88
aS'    else:#if it is a character, display as text\n'
p89
aS"        stim_type='chinese_characters'\n"
p90
aS'        \n'
p91
aS"    visual_stim.setImage(trialdata['stim'])\n"
p92
aS"    trialdata['stim_type']=stim_type\n"
p93
aS'    \n'
p94
aS'        #visual_stim[stim_type].setAutoDraw(True)#get the image ready to display\n'
p95
aS'    visual_stim.draw()\n'
p96
aS"    while clock.getTime()<trialdata['onset']:#wait until the specified onset time to display image_file\n"
p97
aS'        pass\n'
p98
aS'    win.flip()\n'
p99
aS"    trialdata['actual_onset_time']=clock.getTime()\n"
p100
aS'    event.clearEvents()#clear all button presses\n'
p101
aS'    thisResp=None\n'
p102
aS'    simulated_rt=0.5 + N.random.rand()*0.1\n'
p103
aS"    while clock.getTime() < (trialdata['actual_onset_time'] + trialdata['duration']):#before the subdata['stim_dur'] time is exceeded, do this stuff...\n"
p104
aS'            key_response=event.getKeys()#look for yes,no, and quit commands\n'
p105
aS"            if subdata['simulated_response']:\n"
p106
aS"                if clock.getTime()> trialdata['actual_onset_time'] + simulated_rt:\n"
p107
aS'                    thisResp=1\n'
p108
aS"                    trialdata['rt']=clock.getTime() - trialdata['actual_onset_time'] #collect rt\n"
p109
aS"                    if trialdata['match']==trialdata['nback']:\n"
p110
aS"                        trialdata['response']='4'\n"
p111
aS'                    else:\n'
p112
aS"                        trialdata['response']='1'\n"
p113
ag14
aS'            elif key_response:#if they press any button\n'
p114
aS"                if key_response.count(subdata['quit_key'])>0:#if subj hits subdata['quit_key']...\n"
p115
aS'                    keep_going=0\n'
p116
aS"                    #subdata['broke_on_trial'][which_block]=trial_num\n"
p117
aS'                    #shut_down_cleanly(subdata,win)\n'
p118
aS'                    return None\n'
p119
aS"                elif key_response.count('5')>0:\n"
p120
aS"                    subdata['trigger_times'].append(clock.getTime())\n"
p121
aS'                else:\n'
p122
aS'                    thisResp=1\n'
p123
aS"                    trialdata['rt']=clock.getTime() - trialdata['actual_onset_time'] #collect rt\n"
p124
aS"                    trialdata['response']=key_response[0]#collect response\n"
p125
ag14
aS'    visual_stim.clearTextures()\n'
p126
ag14
aS'    win.flip()\n'
p127
ag14
aS'    #del visual_stim\n'
p128
aS'    return trialdata\n'
p129
aS'    \n'
p130
ag14
ag14
aS'#Text saying the task has finished. Disappears with key press\n'
p131
ag14
aS'def display_finished_text():#finished with experiment\n'
p132
aS'    event.clearEvents()\n'
p133
aS'    message=visual.TextStim(win=win, ori=0,\n'
p134
aS"    text='All finished! Thanks  :) \\n Press any key to clear the screen.',\n"
p135
aS"    font=u'BiauKai',pos=[0, 0], height=2,color=u'white', colorSpace=u'rgb', opacity=1,depth=0.0,alignHoriz='center',wrapWidth=50)\n"
p136
aS'    message.setAutoDraw(True) \n'
p137
aS'    win.flip()\n'
p138
aS'    start=False\n'
p139
aS'    while start==False:\n'
p140
aS'        key_response=event.getKeys()\n'
p141
aS'        if len(key_response)>0:\n'
p142
aS'            start=True\n'
p143
aS"            message.setText('')#this clears the screen\n"
p144
aS'            win.flip()\n'
p145
aS'    return start\n'
p146
aS'#- - - - - - - - - - - - - - - - - - - - - - - - - - - - - - - - - - - - - - - - - - - - - - - - - - - - - - - - - - - - - - - - - - - - - - \n'
p147
ag14
aS'    \n'
p148
aS'#set-up some variables\n'
p149
ag14
aS'verbose=True\n'
p150
aS'fullscr=False  # change to True for full screen display\n'
p151
ag14
aS"stim_types=['faces','scenes','chinese_characters']\n"
p152
aS'subdata={}\n'
p153
aS'finish_time=440\n'
p154
ag14
aS"subdata['start_key']='5'\n"
p155
aS"subdata['quit_key']='q'\n"
p156
aS"subdata['discard_time_to_wait']=0.0\n"
p157
aS"subdata['expt_title']='Self_Tracking'\n"
p158
aS"subdata['stim_dur']=1.0\n"
p159
aS"subdata['inter_stim_int']=1.0\n"
p160
aS"subdata['inst_time']=1.0\n"
p161
aS"subdata['rest_time']=10.0\n"
p162
aS"subdata['ExpVersion']=0.1\n"
p163
aS"subdata['nstims']=5\n"
p164
aS"subdata['ntrials_per_block']=6\n"
p165
aS"subdata['simulated_response']=False\n"
p166
aS"subdata['trigger_times']=[]\n"
p167
ag14
aS'if len(sys.argv)<2:\n'
p168
aS"    print 'USAGE: self_tracking.py <stimlist> <session code>'\n"
p169
aS'    sys.exit()\n'
p170
aS"    #subdata['onsetfile']='/Users/poldrack/Dropbox/Documents/Projects/self-tracking/task/onsetlists/stimlist_000.txt'\n"
p171
aS'else:\n'
p172
aS"    subdata['onsetfile']=sys.argv[1]\n"
p173
aS"    subdata['subcode']=sys.argv[2]\n"
p174
ag14
ag14
aS'# initialize subdata dictionary to store info about the study\n'
p175
aS"subdata['completed']=0\n"
p176
aS"subdata['cwd']=os.getcwd()\n"
p177
aS"subdata['hostname']=socket.gethostname()\n"
p178
aS'clock=core.Clock()\n'
p179
aS'datestamp=datetime.datetime.now().strftime("%Y-%m-%d-%H_%M_%S")\n'
p180
aS"subdata['datestamp']=datestamp\n"
p181
aS"subdata['expt_title']=subdata['expt_title']\n"
p182
aS"subdata['script']=store_scriptfile()\n"
p183
aS"subdata['onsets']=subdata['onsetfile']\n"
p184
ag14
aS'#these are all sub-dictionaries which will be appended w/separate info for each block & each trial\n'
p185
aS"#i.e., the 'response' dictionary will contain the following dictionaries: face_1, face_2, scenes_1, scenes_2, whose keys are trial_num and values are the responses on that trial\n"
p186
aS"subdata['response']={}\n"
p187
aS"subdata['score']={}\n"
p188
aS"subdata['rt']={}\n"
p189
aS"subdata['stim_onset_time']={}\n"
p190
aS"subdata['stim_log']={}\n"
p191
aS"subdata['is_this_SS_trial']={}\n"
p192
aS"subdata['SS']={}\n"
p193
aS"subdata['broke_on_trial']={}\n"
p194
ag14
aS'# set up logging information & create Output directories\n'
p195
aS"if not os.path.isdir('Output'):#make an Output directory if necessary\n"
p196
aS"    os.makedirs('Output') \n"
p197
ag14
aS"dataFileName='Output/%s_%s_subdata.log'%(subdata['subcode'],subdata['datestamp'])\n"
p198
aS'logging.console.setLevel(logging.INFO)\n'
p199
aS'logfile=logging.LogFile(dataFileName,level=logging.INFO)\n'
p200
ag14
aS'# load stimulus file\n'
p201
ag14
aS'def load_stimulus_file(onsfile):\n'
p202
aS'    events=[]\n'
p203
aS'    f=open(onsfile)\n'
p204
aS'    l=f.readlines()\n'
p205
aS'    for line in l:\n'
p206
aS"        l_s=line.strip('\\n').split('\\t')\n"
p207
aS'        events.append([float(l_s[0]),int(l_s[1]),int(l_s[2]),int(l_s[3]),l_s[4]])\n'
p208
aS'    f.close()\n'
p209
aS'    return events\n'
p210
ag14
aS"events=load_stimulus_file(subdata['onsetfile'])\n"
p211
ag14
aS'# set up the window \n'
p212
aS"win = visual.Window([800,600],allowGUI=True, fullscr=True, monitor='testMonitor', units='deg')\n"
p213
aS"win.setColor('black')\n"
p214
aS'win.flip()\n'
p215
aS'win.flip()\n'
p216
ag14
aS'#integrating everything together\n'
p217
ag14
aS"subdata['trialdata']={}\n"
p218
aS'#chardict=create_characters_dict()\n'
p219
ag14
aS"wait_for_trigger()#wait for subdata['start_key'] to be pressed\n"
p220
ag14
aS'visual_stim={}\n'
p221
aS"visual_stim=visual.ImageStim(win, image=N.zeros((10,10)), size=(0.75,0.75),units='height')\n"
p222
ag14
aS'# set clock to zero\n'
p223
aS'clock.reset()\n'
p224
aS'trialctr=0\n'
p225
aS'for i in range(len(events)):\n'
p226
aS"    if events[i][4]=='inst':\n"
p227
aS'        while clock.getTime() < events[i][0]:\n'
p228
aS'            pass\n'
p229
aS"        instructions(events[i][2],subdata['inst_time'])\n"
p230
aS'    else:\n'
p231
aS"        subdata['trialdata'][trialctr]=draw_stim(win,events[i],subdata,visual_stim)\n"
p232
aS"        if subdata['trialdata'][trialctr]==None:\n"
p233
aS'            break\n'
p234
aS'        trialctr+=1\n'
p235
aS"        print 'return time:',clock.getTime()\n"
p236
ag14
aS'#display_finished_text()\n'
p237
aS'while clock.getTime()<finish_time:\n'
p238
aS'\tpass\n'
p239
aS'\t\n'
p240
aS"subdata['events']=events\n"
p241
aS'if save_data==1:\n'
p242
aS"    docId,docRev=save_data_to_db(subdata,'selftracking-taskdata')\n"
p243
ag14
aS'shut_down_cleanly(subdata,win)\n'
p244
asS'onsets'
p245
S'onsetlists/stimlist_011.txt'
p246
sS'hostname'
p247
S'IRC-arizona'
p248
sS'score'
p249
(dp250
sS'rest_time'
p251
F10.0
sS'cwd'
p252
S'/Users/rap2623/Dropbox/Documents/Projects/self-tracking/task'
p253
sS'trigger_times'
p254
(lp255
F2.281423807144165
aF4.601233005523682
aF6.921438932418823
aF8.081455945968628
aF10.402514934539795
aF12.72242283821106
aF16.20151400566101
aF18.522698879241943
aF20.841254949569702
aF24.321609020233154
aF26.641764879226685
aF28.961688995361328
aF30.122782945632935
aF32.442853927612305
aF34.76272797584534
aF38.24188494682312
aF40.56190586090088
aF42.88206195831299
aF46.362102031707764
aF48.68199801445007
aF51.00210881233215
aF52.16219091415405
aF54.481202840805054
aF56.80225086212158
aF60.28235197067261
aF62.60215997695923
aF64.92228388786316
aF68.40241503715515
aF70.7224428653717
aF74.20266199111938
aF76.52171993255615
aF78.8425829410553
aF82.32280087471008
aF84.6427538394928
aF86.96267199516296
aF90.44278383255005
aF92.76195287704468
aF96.23985695838928
aF98.56308794021606
aF100.88099002838135
aF102.04111289978027
aF104.36114382743835
aF106.68103194236755
aF109.0012538433075
aF112.48115587234497
aF114.80216002464294
aF118.28238201141357
aF120.60236191749573
aF122.92142987251282
aF124.08142900466919
aF126.40138483047485
aF128.72149801254272
aF154.24207401275635
aF156.561949968338
aF158.88215494155884
aF160.0421760082245
aF162.36223101615906
aF164.6818618774414
aF167.00218200683594
aF168.16016793251038
aF170.48143887519836
aF172.80138993263245
aF176.28139686584473
aF178.6025059223175
aF180.92233991622925
aF182.08255791664124
aF184.40261888504028
aF186.72252082824707
aF190.20268487930298
aF192.52186393737793
aF194.84276294708252
aF198.32288694381714
aF200.64293599128723
aF202.96083188056946
aF204.12088584899902
aF206.44108390808105
aF208.76095485687256
aF212.23909282684326
aF214.56121802330017
aF216.88126492500305
aF220.362370967865
aF222.68142294883728
aF225.0013518333435
aF226.16141295433044
aF228.4814169406891
aF230.80148887634277
aF234.28266882896423
aF236.60263395309448
aF238.92160987854004
aF242.40266680717468
aF244.72180080413818
aF248.2017810344696
aF250.52191591262817
aF252.84181094169617
aF256.322026014328
aF258.64206290245056
aF260.9611349105835
aF264.44227290153503
aF266.7612600326538
aF270.2420048713684
aF272.5622339248657
aF274.8822338581085
aF276.042680978775
aF278.36244797706604
aF280.68254685401917
aF283.0025198459625
aF306.20092487335205
aF308.52073884010315
aF310.8408238887787
aF314.3221290111542
aF316.6409909725189
aF318.9621670246124
aF320.12232184410095
aF322.4414029121399
aF324.7610719203949
aF328.2414879798889
aF330.5613489151001
aF332.88154792785645
aF334.0416679382324
aF336.3625838756561
aF338.68252086639404
aF341.0018939971924
aF342.1627538204193
aF344.4818859100342
aF346.8016839027405
aF350.2818479537964
aF352.6020939350128
aF354.9218518733978
aF356.08200693130493
aF358.400839805603
aF360.72197103500366
aF364.2011048793793
aF366.522243976593
aF368.8422780036926
aF372.32240200042725
aF374.6422929763794
aF376.96247482299805
aF378.1225039958954
aF380.4416949748993
aF382.76156282424927
aF386.2414560317993
aF388.56268882751465
aF390.8829460144043
aF394.36272382736206
aF396.68287682533264
aF399.0027458667755
aF400.1629889011383
aF402.4819598197937
aF404.80189394950867
aF408.28079891204834
aF410.6011598110199
aF412.9210379123688
aF416.4010179042816
aF418.721088886261
aF422.2013349533081
aF424.52144598960876
aF426.8426020145416
aF430.3215548992157
aF432.64160203933716
aF434.9615218639374
asS'ExpVersion'
p256
F0.1
sS'completed'
p257
I0
sS'stim_dur'
p258
F1.0
sS'quit_key'
p259
S'q'
p260
sS'onsetfile'
p261
g246
sS'discard_time_to_wait'
p262
F0.0
sS'response'
p263
(dp264
sS'trialdata'
p265
(dp266
I0
(dp267
g8
F0.4228200912475586
sS'stim'
p268
S'./stimfiles/faces/cropped_979.png'
p269
sS'onset'
p270
F2.0
sS'stim_type'
p271
S'faces'
p272
sS'block'
p273
I0
sS'nback'
p274
I1
sS'duration'
p275
F1.0
sg263
S'1'
p276
sS'match'
p277
I0
sS'actual_onset_time'
p278
F2.0163679122924805
ssI1
(dp279
g8
F0.8642098903656006
sg268
S'./stimfiles/faces/cropped_979.png'
p280
sg270
F4.0
sg271
g272
sg273
I0
sg274
I1
sg275
F1.0
sg263
S'4'
p281
sg277
I1
sg278
F4.01711893081665
ssI2
(dp282
g8
F0.6555349826812744
sg268
S'./stimfiles/faces/cropped_i047qa-mn.png'
p283
sg270
F6.0
sg271
g272
sg273
I0
sg274
I1
sg275
F1.0
sg263
g276
sg277
I0
sg278
F6.017972946166992
ssI3
(dp284
g8
F0.8475980758666992
sg268
S'./stimfiles/faces/cropped_114.png'
p285
sg270
F8.0
sg271
g272
sg273
I0
sg274
I1
sg275
F1.0
sg263
g276
sg277
I0
sg278
F8.019985914230347
ssI4
(dp286
g8
F0.629673957824707
sg268
S'./stimfiles/faces/cropped_595.png'
p287
sg270
F10.0
sg271
g272
sg273
I0
sg274
I1
sg275
F1.0
sg263
g276
sg277
I0
sg278
F10.020787000656128
ssI5
(dp288
g8
F0.5548419952392578
sg268
S'./stimfiles/faces/cropped_595.png'
p289
sg270
F12.0
sg271
g272
sg273
I0
sg274
I1
sg275
F1.0
sg263
g281
sg277
I1
sg278
F12.021606922149658
ssI6
(dp290
g8
F0.5850639343261719
sg268
S'./stimfiles/faces/cropped_450.png'
p291
sg270
F14.0
sg271
g272
sg273
I0
sg274
I1
sg275
F1.0
sg263
g276
sg277
I0
sg278
F14.022424936294556
ssI7
(dp292
g268
S'./stimfiles/faces/cropped_193.png'
p293
sg270
F16.0
sg271
g272
sg273
I0
sg274
I1
sg275
F1.0
sg277
I0
sg278
F16.02191686630249
ssI8
(dp294
g8
F0.9367890357971191
sg268
S'./stimfiles/faces/cropped_303.png'
p295
sg270
F18.0
sg271
g272
sg273
I0
sg274
I1
sg275
F1.0
sg263
g276
sg277
I0
sg278
F18.02276086807251
ssI9
(dp296
g8
F0.760094165802002
sg268
S'./stimfiles/faces/cropped_450.png'
p297
sg270
F20.0
sg271
g272
sg273
I0
sg274
I1
sg275
F1.0
sg263
g276
sg277
I3
sg278
F20.023579835891724
ssI10
(dp298
g8
F0.6228928565979004
sg268
S'./stimfiles/chinese_characters/35594.jpg'
p299
sg270
F24.0
sg271
S'chinese_characters'
p300
sg273
I1
sg274
I1
sg275
F1.0
sg263
g276
sg277
I0
sg278
F24.02512001991272
ssI11
(dp301
g8
F0.562471866607666
sg268
S'./stimfiles/chinese_characters/27494.jpg'
p302
sg270
F26.0
sg271
g300
sg273
I1
sg274
I1
sg275
F1.0
sg263
g276
sg277
I0
sg278
F26.009243965148926
ssI12
(dp303
g8
F0.5035419464111328
sg268
S'./stimfiles/chinese_characters/27494.jpg'
p304
sg270
F28.0
sg271
g300
sg273
I1
sg274
I1
sg275
F1.0
sg263
g281
sg277
I1
sg278
F28.010046005249023
ssI13
(dp305
g8
F0.848020076751709
sg268
S'./stimfiles/chinese_characters/20681.jpg'
p306
sg270
F30.0
sg271
g300
sg273
I1
sg274
I1
sg275
F1.0
sg263
g276
sg277
I0
sg278
F30.010820865631104
ssI14
(dp307
g8
F0.6009221076965332
sg268
S'./stimfiles/chinese_characters/25807.jpg'
p308
sg270
F32.0
sg271
g300
sg273
I1
sg274
I1
sg275
F1.0
sg263
g276
sg277
I0
sg278
F32.01166892051697
ssI15
(dp309
g8
F0.5905361175537109
sg268
S'./stimfiles/chinese_characters/20681.jpg'
p310
sg270
F34.0
sg271
g300
sg273
I1
sg274
I1
sg275
F1.0
sg263
g276
sg277
I2
sg278
F34.012385845184326
ssI16
(dp311
g8
F0.6607840061187744
sg268
S'./stimfiles/chinese_characters/33311.jpg'
p312
sg270
F36.0
sg271
g300
sg273
I1
sg274
I1
sg275
F1.0
sg263
g276
sg277
I0
sg278
F36.01321482658386
ssI17
(dp313
g8
F0.503803014755249
sg268
S'./stimfiles/chinese_characters/24978.jpg'
p314
sg270
F38.0
sg271
g300
sg273
I1
sg274
I1
sg275
F1.0
sg263
g276
sg277
I0
sg278
F38.01402688026428
ssI18
(dp315
g8
F0.5193021297454834
sg268
S'./stimfiles/chinese_characters/29375.jpg'
p316
sg270
F40.0
sg271
g300
sg273
I1
sg274
I1
sg275
F1.0
sg263
g276
sg277
I0
sg278
F40.014808893203735
ssI19
(dp317
g8
F0.6104412078857422
sg268
S'./stimfiles/chinese_characters/25987.jpg'
p318
sg270
F42.0
sg271
g300
sg273
I1
sg274
I1
sg275
F1.0
sg263
g276
sg277
I0
sg278
F42.01559281349182
ssI20
(dp319
g8
F0.6907119750976562
sg268
S'./stimfiles/chinese_characters/25160.jpg'
p320
sg270
F46.0
sg271
g300
sg273
I2
sg274
I2
sg275
F1.0
sg263
g276
sg277
I0
sg278
F46.01729202270508
ssI21
(dp321
g8
F0.5800659656524658
sg268
S'./stimfiles/chinese_characters/25160.jpg'
p322
sg270
F48.0
sg271
g300
sg273
I2
sg274
I2
sg275
F1.0
sg263
g276
sg277
I1
sg278
F48.01808500289917
ssI22
(dp323
g8
F0.512423038482666
sg268
S'./stimfiles/chinese_characters/25160.jpg'
p324
sg270
F50.0
sg271
g300
sg273
I2
sg274
I2
sg275
F1.0
sg263
g281
sg277
I1
sg278
F50.02008581161499
ssI23
(dp325
g8
F0.6116600036621094
sg268
S'./stimfiles/chinese_characters/25160.jpg'
p326
sg270
F52.0
sg271
g300
sg273
I2
sg274
I2
sg275
F1.0
sg263
g281
sg277
I3
sg278
F52.01969003677368
ssI24
(dp327
g8
F0.7734088897705078
sg268
S'./stimfiles/chinese_characters/25160.jpg'
p328
sg270
F54.0
sg271
g300
sg273
I2
sg274
I2
sg275
F1.0
sg263
g281
sg277
I3
sg278
F54.02085900306702
ssI25
(dp329
g8
F0.6016781330108643
sg268
S'./stimfiles/chinese_characters/25160.jpg'
p330
sg270
F56.0
sg271
g300
sg273
I2
sg274
I2
sg275
F1.0
sg263
g281
sg277
I2
sg278
F56.02243685722351
ssI26
(dp331
g8
F0.5859951972961426
sg268
S'./stimfiles/chinese_characters/29821.jpg'
p332
sg270
F58.0
sg271
g300
sg273
I2
sg274
I2
sg275
F1.0
sg263
g276
sg277
I0
sg278
F58.02205681800842
ssI27
(dp333
g8
F0.5054230690002441
sg268
S'./stimfiles/chinese_characters/25160.jpg'
p334
sg270
F60.0
sg271
g300
sg273
I2
sg274
I2
sg275
F1.0
sg263
g281
sg277
I2
sg278
F60.02283191680908
ssI28
(dp335
g8
F0.5624768733978271
sg268
S'./stimfiles/chinese_characters/35527.jpg'
p336
sg270
F62.0
sg271
g300
sg273
I2
sg274
I2
sg275
F1.0
sg263
g276
sg277
I0
sg278
F62.02366900444031
ssI29
(dp337
g8
F0.6998710632324219
sg268
S'./stimfiles/chinese_characters/29821.jpg'
p338
sg270
F64.0
sg271
g300
sg273
I2
sg274
I2
sg275
F1.0
sg263
g276
sg277
I3
sg278
F64.02449488639832
ssI30
(dp339
g8
F0.5251100063323975
sg268
S'./stimfiles/faces/cropped_112MVC-003F.png'
p340
sg270
F68.0
sg271
g272
sg273
I3
sg274
I2
sg275
F1.0
sg263
g276
sg277
I0
sg278
F68.00933194160461
ssI31
(dp341
g8
F0.7022581100463867
sg268
S'./stimfiles/faces/cropped_112MVC-003F.png'
p342
sg270
F70.0
sg271
g272
sg273
I3
sg274
I2
sg275
F1.0
sg263
g276
sg277
I1
sg278
F70.01015090942383
ssI32
(dp343
g8
F0.8045110702514648
sg268
S'./stimfiles/faces/cropped_m-087-01.png'
p344
sg270
F72.0
sg271
g272
sg273
I3
sg274
I2
sg275
F1.0
sg263
g276
sg277
I0
sg278
F72.01099681854248
ssI33
(dp345
g8
F0.5966908931732178
sg268
S'./stimfiles/faces/cropped_112MVC-003F.png'
p346
sg270
F74.0
sg271
g272
sg273
I3
sg274
I2
sg275
F1.0
sg263
g281
sg277
I2
sg278
F74.01175999641418
ssI34
(dp347
g8
F0.752918004989624
sg268
S'./stimfiles/faces/cropped_468.png'
p348
sg270
F76.0
sg271
g272
sg273
I3
sg274
I2
sg275
F1.0
sg263
g276
sg277
I0
sg278
F76.01256990432739
ssI35
(dp349
g8
F0.629235029220581
sg268
S'./stimfiles/faces/cropped_273.png'
p350
sg270
F78.0
sg271
g272
sg273
I3
sg274
I2
sg275
F1.0
sg263
g276
sg277
I0
sg278
F78.01342296600342
ssI36
(dp351
g8
F0.830543041229248
sg268
S'./stimfiles/faces/cropped_468.png'
p352
sg270
F80.0
sg271
g272
sg273
I3
sg274
I2
sg275
F1.0
sg263
g276
sg277
I2
sg278
F80.01421594619751
ssI37
(dp353
g8
F0.8137040138244629
sg268
S'./stimfiles/faces/cropped_273.png'
p354
sg270
F82.0
sg271
g272
sg273
I3
sg274
I2
sg275
F1.0
sg263
g281
sg277
I2
sg278
F82.01499581336975
ssI38
(dp355
g8
F0.7309091091156006
sg268
S'./stimfiles/faces/cropped_360.png'
p356
sg270
F84.0
sg271
g272
sg273
I3
sg274
I2
sg275
F1.0
sg263
g276
sg277
I0
sg278
F84.01573586463928
ssI39
(dp357
g8
F0.7562069892883301
sg268
S'./stimfiles/faces/cropped_273.png'
p358
sg270
F86.0
sg271
g272
sg273
I3
sg274
I2
sg275
F1.0
sg263
g281
sg277
I2
sg278
F86.01661801338196
ssI40
(dp359
g8
F0.66455078125
sg268
S'./stimfiles/scenes/576.jpg'
p360
sg270
F90.0
sg271
S'scenes'
p361
sg273
I4
sg274
I2
sg275
F1.0
sg263
g276
sg277
I0
sg278
F90.01820802688599
ssI41
(dp362
g8
F0.5667579174041748
sg268
S'./stimfiles/scenes/576.jpg'
p363
sg270
F92.0
sg271
g361
sg273
I4
sg274
I2
sg275
F1.0
sg263
g276
sg277
I1
sg278
F92.01901292800903
ssI42
(dp364
g8
F0.6837000846862793
sg268
S'./stimfiles/scenes/1113.jpg'
p365
sg270
F94.0
sg271
g361
sg273
I4
sg274
I2
sg275
F1.0
sg263
g276
sg277
I0
sg278
F94.0210349559784
ssI43
(dp366
g8
F0.6284260749816895
sg268
S'./stimfiles/scenes/575.jpg'
p367
sg270
F96.0
sg271
g361
sg273
I4
sg274
I2
sg275
F1.0
sg263
g276
sg277
I0
sg278
F96.02057981491089
ssI44
(dp368
g8
F0.9295940399169922
sg268
S'./stimfiles/scenes/576.jpg'
p369
sg270
F98.0
sg271
g361
sg273
I4
sg274
I2
sg275
F1.0
sg263
g276
sg277
I3
sg278
F98.02146196365356
ssI45
(dp370
g8
F0.737389087677002
sg268
S'./stimfiles/scenes/1113.jpg'
p371
sg270
F100.0
sg271
g361
sg273
I4
sg274
I2
sg275
F1.0
sg263
g281
sg277
I3
sg278
F100.00559282302856
ssI46
(dp372
g8
F0.6608421802520752
sg268
S'./stimfiles/scenes/802.jpg'
p373
sg270
F102.0
sg271
g361
sg273
I4
sg274
I2
sg275
F1.0
sg263
g276
sg277
I0
sg278
F102.00630283355713
ssI47
(dp374
g8
F0.811830997467041
sg268
S'./stimfiles/scenes/1113.jpg'
p375
sg270
F104.0
sg271
g361
sg273
I4
sg274
I2
sg275
F1.0
sg263
g276
sg277
I2
sg278
F104.00717282295227
ssI48
(dp376
g8
F0.6153891086578369
sg268
S'./stimfiles/scenes/1504.jpg'
p377
sg270
F106.0
sg271
g361
sg273
I4
sg274
I2
sg275
F1.0
sg263
g276
sg277
I0
sg278
F106.00790882110596
ssI49
(dp378
g8
F0.6184899806976318
sg268
S'./stimfiles/scenes/241.jpg'
p379
sg270
F108.0
sg271
g361
sg273
I4
sg274
I2
sg275
F1.0
sg263
g276
sg277
I0
sg278
F108.00873184204102
ssI50
(dp380
g8
F0.5408320426940918
sg268
S'./stimfiles/scenes/1114.jpg'
p381
sg270
F112.0
sg271
g361
sg273
I5
sg274
I1
sg275
F1.0
sg263
g276
sg277
I0
sg278
F112.01028895378113
ssI51
(dp382
g8
F0.5191948413848877
sg268
S'./stimfiles/scenes/1857.jpg'
p383
sg270
F114.0
sg271
g361
sg273
I5
sg274
I1
sg275
F1.0
sg263
g276
sg277
I0
sg278
F114.01119303703308
ssI52
(dp384
g8
F0.5113928318023682
sg268
S'./stimfiles/scenes/1530.jpg'
p385
sg270
F116.0
sg271
g361
sg273
I5
sg274
I1
sg275
F1.0
sg263
g276
sg277
I0
sg278
F116.01193499565125
ssI53
(dp386
g8
F0.5376930236816406
sg268
S'./stimfiles/scenes/1318.jpg'
p387
sg270
F118.0
sg271
g361
sg273
I5
sg274
I1
sg275
F1.0
sg263
g276
sg277
I0
sg278
F118.0127649307251
ssI54
(dp388
g8
F0.5769920349121094
sg268
S'./stimfiles/scenes/1318.jpg'
p389
sg270
F120.0
sg271
g361
sg273
I5
sg274
I1
sg275
F1.0
sg263
g281
sg277
I1
sg278
F120.01352787017822
ssI55
(dp390
g8
F0.575200080871582
sg268
S'./stimfiles/scenes/3106.jpg'
p391
sg270
F122.0
sg271
g361
sg273
I5
sg274
I1
sg275
F1.0
sg263
g276
sg277
I0
sg278
F122.01430082321167
ssI56
(dp392
g8
F0.490494966506958
sg268
S'./stimfiles/scenes/1318.jpg'
p393
sg270
F124.0
sg271
g361
sg273
I5
sg274
I1
sg275
F1.0
sg263
g276
sg277
I3
sg278
F124.0150899887085
ssI57
(dp394
g8
F0.4354519844055176
sg268
S'./stimfiles/scenes/142.jpg'
p395
sg270
F126.0
sg271
g361
sg273
I5
sg274
I1
sg275
F1.0
sg263
g276
sg277
I0
sg278
F126.01593494415283
ssI58
(dp396
g8
F0.6887660026550293
sg268
S'./stimfiles/scenes/1318.jpg'
p397
sg270
F128.0
sg271
g361
sg273
I5
sg274
I1
sg275
F1.0
sg263
g276
sg277
I2
sg278
F128.01680302619934
ssI59
(dp398
g8
F0.6320831775665283
sg268
S'./stimfiles/scenes/1088.jpg'
p399
sg270
F130.0
sg271
g361
sg273
I5
sg274
I1
sg275
F1.0
sg263
g276
sg277
I0
sg278
F130.0175998210907
ssI60
(dp400
g8
F0.43870019912719727
sg268
S'./stimfiles/faces/cropped_joanna1.png'
p401
sg270
F154.0
sg271
g272
sg273
I6
sg274
I1
sg275
F1.0
sg263
g276
sg277
I0
sg278
F154.02720880508423
ssI61
(dp402
g8
F0.7127900123596191
sg268
S'./stimfiles/faces/cropped_joanna1.png'
p403
sg270
F156.0
sg271
g272
sg273
I6
sg274
I1
sg275
F1.0
sg263
g281
sg277
I1
sg278
F156.0113079547882
ssI62
(dp404
g8
F0.4900050163269043
sg268
S'./stimfiles/faces/cropped_m-098-01.png'
p405
sg270
F158.0
sg271
g272
sg273
I6
sg274
I1
sg275
F1.0
sg263
g276
sg277
I0
sg278
F158.01214289665222
ssI63
(dp406
g8
F0.6350338459014893
sg268
S'./stimfiles/faces/cropped_joanna1.png'
p407
sg270
F160.0
sg271
g272
sg273
I6
sg274
I1
sg275
F1.0
sg263
g276
sg277
I3
sg278
F160.01289200782776
ssI64
(dp408
g8
F0.5061018466949463
sg268
S'./stimfiles/faces/cropped_119.png'
p409
sg270
F162.0
sg271
g272
sg273
I6
sg274
I1
sg275
F1.0
sg263
g276
sg277
I0
sg278
F162.01377201080322
ssI65
(dp410
g8
F0.5797920227050781
sg268
S'./stimfiles/faces/cropped_22MVC-003F.png'
p411
sg270
F164.0
sg271
g272
sg273
I6
sg274
I1
sg275
F1.0
sg263
g276
sg277
I0
sg278
F164.01451301574707
ssI66
(dp412
g8
F0.538923978805542
sg268
S'./stimfiles/faces/cropped_161.png'
p413
sg270
F166.0
sg271
g272
sg273
I6
sg274
I1
sg275
F1.0
sg263
g276
sg277
I0
sg278
F166.0153739452362
ssI67
(dp414
g8
F0.5902369022369385
sg268
S'./stimfiles/faces/cropped_161.png'
p415
sg270
F168.0
sg271
g272
sg273
I6
sg274
I1
sg275
F1.0
sg263
g281
sg277
I1
sg278
F168.01611399650574
ssI68
(dp416
g8
F0.6043248176574707
sg268
S'./stimfiles/faces/cropped_161.png'
p417
sg270
F170.0
sg271
g272
sg273
I6
sg274
I1
sg275
F1.0
sg263
g281
sg277
I1
sg278
F170.01698803901672
ssI69
(dp418
g8
F0.5857031345367432
sg268
S'./stimfiles/faces/cropped_161.png'
p419
sg270
F172.0
sg271
g272
sg273
I6
sg274
I1
sg275
F1.0
sg263
g281
sg277
I3
sg278
F172.01771688461304
ssI70
(dp420
g8
F0.9912219047546387
sg268
S'./stimfiles/chinese_characters/25467.jpg'
p421
sg270
F176.0
sg271
g300
sg273
I7
sg274
I1
sg275
F1.0
sg263
g276
sg277
I0
sg278
F176.01934099197388
ssI71
(dp422
g8
F0.6001510620117188
sg268
S'./stimfiles/chinese_characters/25467.jpg'
p423
sg270
F178.0
sg271
g300
sg273
I7
sg274
I1
sg275
F1.0
sg263
g281
sg277
I1
sg278
F178.02020692825317
ssI72
(dp424
g8
F0.496337890625
sg268
S'./stimfiles/chinese_characters/20579.jpg'
p425
sg270
F180.0
sg271
g300
sg273
I7
sg274
I1
sg275
F1.0
sg263
g276
sg277
I0
sg278
F180.02219200134277
ssI73
(dp426
g8
F0.5935699939727783
sg268
S'./stimfiles/chinese_characters/25467.jpg'
p427
sg270
F182.0
sg271
g300
sg273
I7
sg274
I1
sg275
F1.0
sg263
g276
sg277
I3
sg278
F182.02299880981445
ssI74
(dp428
g8
F0.5824971199035645
sg268
S'./stimfiles/chinese_characters/20579.jpg'
p429
sg270
F184.0
sg271
g300
sg273
I7
sg274
I1
sg275
F1.0
sg263
g276
sg277
I2
sg278
F184.0238218307495
ssI75
(dp430
g8
F0.5111649036407471
sg268
S'./stimfiles/chinese_characters/20579.jpg'
p431
sg270
F186.0
sg271
g300
sg273
I7
sg274
I1
sg275
F1.0
sg263
g281
sg277
I1
sg278
F186.02349400520325
ssI76
(dp432
g8
F0.5104379653930664
sg268
S'./stimfiles/chinese_characters/29776.jpg'
p433
sg270
F188.0
sg271
g300
sg273
I7
sg274
I1
sg275
F1.0
sg263
g276
sg277
I0
sg278
F188.02421402931213
ssI77
(dp434
g8
F0.5795810222625732
sg268
S'./stimfiles/chinese_characters/24989.jpg'
p435
sg270
F190.0
sg271
g300
sg273
I7
sg274
I1
sg275
F1.0
sg263
g276
sg277
I0
sg278
F190.02505087852478
ssI78
(dp436
g8
F0.6559679508209229
sg268
S'./stimfiles/chinese_characters/26144.jpg'
p437
sg270
F192.0
sg271
g300
sg273
I7
sg274
I1
sg275
F1.0
sg263
g276
sg277
I0
sg278
F192.02577090263367
ssI79
(dp438
g8
F0.7169368267059326
sg268
S'./stimfiles/chinese_characters/26144.jpg'
p439
sg270
F194.0
sg271
g300
sg273
I7
sg274
I1
sg275
F1.0
sg263
g281
sg277
I1
sg278
F194.00991702079773
ssI80
(dp440
g8
F0.6372530460357666
sg268
S'./stimfiles/chinese_characters/25203.jpg'
p441
sg270
F198.0
sg271
g300
sg273
I8
sg274
I2
sg275
F1.0
sg263
g276
sg277
I0
sg278
F198.0115349292755
ssI81
(dp442
g8
F0.770442008972168
sg268
S'./stimfiles/chinese_characters/20712.jpg'
p443
sg270
F200.0
sg271
g300
sg273
I8
sg274
I2
sg275
F1.0
sg263
g276
sg277
I0
sg278
F200.01234889030457
ssI82
(dp444
g8
F0.8098008632659912
sg268
S'./stimfiles/chinese_characters/24823.jpg'
p445
sg270
F202.0
sg271
g300
sg273
I8
sg274
I2
sg275
F1.0
sg263
g276
sg277
I0
sg278
F202.01318502426147
ssI83
(dp446
g8
F0.9111499786376953
sg268
S'./stimfiles/chinese_characters/26250.jpg'
p447
sg270
F204.0
sg271
g300
sg273
I8
sg274
I2
sg275
F1.0
sg263
g276
sg277
I0
sg278
F204.0139799118042
ssI84
(dp448
g8
F0.6262350082397461
sg268
S'./stimfiles/chinese_characters/24804.jpg'
p449
sg270
F206.0
sg271
g300
sg273
I8
sg274
I2
sg275
F1.0
sg263
g276
sg277
I0
sg278
F206.01476883888245
ssI85
(dp450
g8
F0.6974120140075684
sg268
S'./stimfiles/chinese_characters/20742.jpg'
p451
sg270
F208.0
sg271
g300
sg273
I8
sg274
I2
sg275
F1.0
sg263
g276
sg277
I0
sg278
F208.01555800437927
ssI86
(dp452
g8
F0.7627050876617432
sg268
S'./stimfiles/chinese_characters/29283.jpg'
p453
sg270
F210.0
sg271
g300
sg273
I8
sg274
I2
sg275
F1.0
sg263
g276
sg277
I0
sg278
F210.01643681526184
ssI87
(dp454
g8
F0.7719759941101074
sg268
S'./stimfiles/chinese_characters/24598.jpg'
p455
sg270
F212.0
sg271
g300
sg273
I8
sg274
I2
sg275
F1.0
sg263
g276
sg277
I0
sg278
F212.01718592643738
ssI88
(dp456
g8
F0.7310409545898438
sg268
S'./stimfiles/chinese_characters/25171.jpg'
p457
sg270
F214.0
sg271
g300
sg273
I8
sg274
I2
sg275
F1.0
sg263
g276
sg277
I0
sg278
F214.017972946167
ssI89
(dp458
g8
F0.6624221801757812
sg268
S'./stimfiles/chinese_characters/24598.jpg'
p459
sg270
F216.0
sg271
g300
sg273
I8
sg274
I2
sg275
F1.0
sg263
g281
sg277
I2
sg278
F216.01882982254028
ssI90
(dp460
g8
F0.7077598571777344
sg268
S'./stimfiles/faces/cropped_f-028-01.png'
p461
sg270
F220.0
sg271
g272
sg273
I9
sg274
I2
sg275
F1.0
sg263
g276
sg277
I0
sg278
F220.02160000801086
ssI91
(dp462
g8
F0.6269919872283936
sg268
S'./stimfiles/faces/cropped_419.png'
p463
sg270
F222.0
sg271
g272
sg273
I9
sg274
I2
sg275
F1.0
sg263
g276
sg277
I0
sg278
F222.02239298820496
ssI92
(dp464
g8
F0.7481892108917236
sg268
S'./stimfiles/faces/cropped_497.png'
p465
sg270
F224.0
sg271
g272
sg273
I9
sg274
I2
sg275
F1.0
sg263
g276
sg277
I0
sg278
F224.02324080467224
ssI93
(dp466
g8
F0.6386399269104004
sg268
S'./stimfiles/faces/cropped_f-028-01.png'
p467
sg270
F226.0
sg271
g272
sg273
I9
sg274
I2
sg275
F1.0
sg263
g276
sg277
I3
sg278
F226.02280402183533
ssI94
(dp468
g8
F0.6079518795013428
sg268
S'./stimfiles/faces/cropped_234.png'
p469
sg270
F228.0
sg271
g272
sg273
I9
sg274
I2
sg275
F1.0
sg263
g276
sg277
I0
sg278
F228.02362394332886
ssI95
(dp470
g8
F0.9108481407165527
sg268
S'./stimfiles/faces/cropped_f-028-01.png'
p471
sg270
F230.0
sg271
g272
sg273
I9
sg274
I2
sg275
F1.0
sg263
g276
sg277
I2
sg278
F230.02444887161255
ssI96
(dp472
g8
F0.8642761707305908
sg268
S'./stimfiles/faces/cropped_m-021-01.png'
p473
sg270
F232.0
sg271
g272
sg273
I9
sg274
I2
sg275
F1.0
sg263
g276
sg277
I0
sg278
F232.02528381347656
ssI97
(dp474
g268
S'./stimfiles/faces/cropped_234.png'
p475
sg270
F234.0
sg271
g272
sg273
I9
sg274
I2
sg275
F1.0
sg277
I3
sg278
F234.0259828567505
ssI98
(dp476
g8
F0.9878311157226562
sg268
S'./stimfiles/faces/cropped_234.png'
p477
sg270
F236.0
sg271
g272
sg273
I9
sg274
I2
sg275
F1.0
sg263
g276
sg277
I1
sg278
F236.02681684494019
ssI99
(dp478
g8
F0.8127648830413818
sg268
S'./stimfiles/faces/cropped_505.png'
p479
sg270
F238.0
sg271
g272
sg273
I9
sg274
I2
sg275
F1.0
sg263
g276
sg277
I0
sg278
F238.01096296310425
ssI100
(dp480
g8
F0.6742229461669922
sg268
S'./stimfiles/scenes/456.jpg'
p481
sg270
F242.0
sg271
g361
sg273
I10
sg274
I2
sg275
F1.0
sg263
g276
sg277
I0
sg278
F242.01259899139404
ssI101
(dp482
g8
F0.45247507095336914
sg268
S'./stimfiles/scenes/903.jpg'
p483
sg270
F244.0
sg271
g361
sg273
I10
sg274
I2
sg275
F1.0
sg263
g276
sg277
I0
sg278
F244.0133228302002
ssI102
(dp484
g8
F0.6876990795135498
sg268
S'./stimfiles/scenes/296.jpg'
p485
sg270
F246.0
sg271
g361
sg273
I10
sg274
I2
sg275
F1.0
sg263
g276
sg277
I0
sg278
F246.01412391662598
ssI103
(dp486
g8
F0.6487641334533691
sg268
S'./stimfiles/scenes/883.jpg'
p487
sg270
F248.0
sg271
g361
sg273
I10
sg274
I2
sg275
F1.0
sg263
g276
sg277
I0
sg278
F248.0149838924408
ssI104
(dp488
g8
F0.6960320472717285
sg268
S'./stimfiles/scenes/648.jpg'
p489
sg270
F250.0
sg271
g361
sg273
I10
sg274
I2
sg275
F1.0
sg263
g276
sg277
I0
sg278
F250.0157129764557
ssI105
(dp490
g8
F0.7011778354644775
sg268
S'./stimfiles/scenes/1869.jpg'
p491
sg270
F252.0
sg271
g361
sg273
I10
sg274
I2
sg275
F1.0
sg263
g276
sg277
I0
sg278
F252.0165159702301
ssI106
(dp492
g8
F0.8145730495452881
sg268
S'./stimfiles/scenes/309.jpg'
p493
sg270
F254.0
sg271
g361
sg273
I10
sg274
I2
sg275
F1.0
sg263
g276
sg277
I0
sg278
F254.01741194725037
ssI107
(dp494
g8
F0.7096540927886963
sg268
S'./stimfiles/scenes/470.jpg'
p495
sg270
F256.0
sg271
g361
sg273
I10
sg274
I2
sg275
F1.0
sg263
g276
sg277
I0
sg278
F256.0182378292084
ssI108
(dp496
g8
F0.8348979949951172
sg268
S'./stimfiles/scenes/309.jpg'
p497
sg270
F258.0
sg271
g361
sg273
I10
sg274
I2
sg275
F1.0
sg263
g281
sg277
I2
sg278
F258.0189599990845
ssI109
(dp498
g8
F0.9550230503082275
sg268
S'./stimfiles/scenes/470.jpg'
p499
sg270
F260.0
sg271
g361
sg273
I10
sg274
I2
sg275
F1.0
sg263
g281
sg277
I2
sg278
F260.0198278427124
ssI110
(dp500
g8
F0.5814261436462402
sg268
S'./stimfiles/scenes/1513.jpg'
p501
sg270
F264.0
sg271
g361
sg273
I11
sg274
I1
sg275
F1.0
sg263
g276
sg277
I0
sg278
F264.0226378440857
ssI111
(dp502
g8
F0.8028340339660645
sg268
S'./stimfiles/scenes/1513.jpg'
p503
sg270
F266.0
sg271
g361
sg273
I11
sg274
I1
sg275
F1.0
sg263
g281
sg277
I1
sg278
F266.0222358703613
ssI112
(dp504
g8
F0.5058658123016357
sg268
S'./stimfiles/scenes/819.jpg'
p505
sg270
F268.0
sg271
g361
sg273
I11
sg274
I1
sg275
F1.0
sg263
g276
sg277
I0
sg278
F268.00634503364563
ssI113
(dp506
g8
F0.6488189697265625
sg268
S'./stimfiles/scenes/1513.jpg'
p507
sg270
F270.0
sg271
g361
sg273
I11
sg274
I1
sg275
F1.0
sg263
g276
sg277
I2
sg278
F270.0071828365326
ssI114
(dp508
g8
F0.6983609199523926
sg268
S'./stimfiles/scenes/1603.jpg'
p509
sg270
F272.0
sg271
g361
sg273
I11
sg274
I1
sg275
F1.0
sg263
g276
sg277
I0
sg278
F272.0079779624939
ssI115
(dp510
g8
F0.7416088581085205
sg268
S'./stimfiles/scenes/1603.jpg'
p511
sg270
F274.0
sg271
g361
sg273
I11
sg274
I1
sg275
F1.0
sg263
g281
sg277
I1
sg278
F274.0087180137634
ssI116
(dp512
g8
F0.7666079998016357
sg268
S'./stimfiles/scenes/3023.jpg'
p513
sg270
F276.0
sg271
g361
sg273
I11
sg274
I1
sg275
F1.0
sg263
g276
sg277
I0
sg278
F276.00955390930176
ssI117
(dp514
g8
F0.6018610000610352
sg268
S'./stimfiles/scenes/3115.jpg'
p515
sg270
F278.0
sg271
g361
sg273
I11
sg274
I1
sg275
F1.0
sg263
g276
sg277
I0
sg278
F278.0103898048401
ssI118
(dp516
g8
F0.4793689250946045
sg268
S'./stimfiles/scenes/1721.jpg'
p517
sg270
F280.0
sg271
g361
sg273
I11
sg274
I1
sg275
F1.0
sg263
g276
sg277
I0
sg278
F280.0111439228058
ssI119
(dp518
g8
F0.5823619365692139
sg268
S'./stimfiles/scenes/3023.jpg'
p519
sg270
F282.0
sg271
g361
sg273
I11
sg274
I1
sg275
F1.0
sg263
g276
sg277
I3
sg278
F282.01204800605774
ssI120
(dp520
g8
F0.45007896423339844
sg268
S'./stimfiles/faces/cropped_998.png'
p521
sg270
F306.0
sg271
g272
sg273
I12
sg274
I1
sg275
F1.0
sg263
g276
sg277
I0
sg278
F306.0229139328003
ssI121
(dp522
g8
F0.5992660522460938
sg268
S'./stimfiles/faces/cropped_623.png'
p523
sg270
F308.0
sg271
g272
sg273
I12
sg274
I1
sg275
F1.0
sg263
g276
sg277
I0
sg278
F308.02372193336487
ssI122
(dp524
g8
F0.5298900604248047
sg268
S'./stimfiles/faces/cropped_998.png'
p525
sg270
F310.0
sg271
g272
sg273
I12
sg274
I1
sg275
F1.0
sg263
g276
sg277
I2
sg278
F310.02324295043945
ssI123
(dp526
g8
F0.6331019401550293
sg268
S'./stimfiles/faces/cropped_618.png'
p527
sg270
F312.0
sg271
g272
sg273
I12
sg274
I1
sg275
F1.0
sg263
g276
sg277
I0
sg278
F312.0241069793701
ssI124
(dp528
g8
F0.5593628883361816
sg268
S'./stimfiles/faces/cropped_04026.png'
p529
sg270
F314.0
sg271
g272
sg273
I12
sg274
I1
sg275
F1.0
sg263
g276
sg277
I0
sg278
F314.0249500274658
ssI125
(dp530
g8
F0.5655229091644287
sg268
S'./stimfiles/faces/cropped_04021.png'
p531
sg270
F316.0
sg271
g272
sg273
I12
sg274
I1
sg275
F1.0
sg263
g276
sg277
I0
sg278
F316.0257489681244
ssI126
(dp532
g8
F0.5876860618591309
sg268
S'./stimfiles/faces/cropped_04021.png'
p533
sg270
F318.0
sg271
g272
sg273
I12
sg274
I1
sg275
F1.0
sg263
g281
sg277
I1
sg278
F318.02648091316223
ssI127
(dp534
g8
F0.549670934677124
sg268
S'./stimfiles/faces/cropped_m7n2.png'
p535
sg270
F320.0
sg271
g272
sg273
I12
sg274
I1
sg275
F1.0
sg263
g276
sg277
I0
sg278
F320.01060795783997
ssI128
(dp536
g8
F0.7778670787811279
sg268
S'./stimfiles/faces/cropped_04021.png'
p537
sg270
F322.0
sg271
g272
sg273
I12
sg274
I1
sg275
F1.0
sg263
g276
sg277
I2
sg278
F322.01147294044495
ssI129
(dp538
g8
F0.5031099319458008
sg268
S'./stimfiles/faces/cropped_m7n2.png'
p539
sg270
F324.0
sg271
g272
sg273
I12
sg274
I1
sg275
F1.0
sg263
g276
sg277
I2
sg278
F324.0122649669647
ssI130
(dp540
g8
F0.47165989875793457
sg268
S'./stimfiles/chinese_characters/25717.jpg'
p541
sg270
F328.0
sg271
g300
sg273
I13
sg274
I1
sg275
F1.0
sg263
g276
sg277
I0
sg278
F328.01388001441956
ssI131
(dp542
g8
F0.5249900817871094
sg268
S'./stimfiles/chinese_characters/24887.jpg'
p543
sg270
F330.0
sg271
g300
sg273
I13
sg274
I1
sg275
F1.0
sg263
g276
sg277
I0
sg278
F330.0146098136902
ssI132
(dp544
g8
F0.5641050338745117
sg268
S'./stimfiles/chinese_characters/20694.jpg'
p545
sg270
F332.0
sg271
g300
sg273
I13
sg274
I1
sg275
F1.0
sg263
g276
sg277
I0
sg278
F332.0154278278351
ssI133
(dp546
g8
F0.6872169971466064
sg268
S'./stimfiles/chinese_characters/20694.jpg'
p547
sg270
F334.0
sg271
g300
sg273
I13
sg274
I1
sg275
F1.0
sg263
g281
sg277
I1
sg278
F334.0162308216095
ssI134
(dp548
g8
F0.6995828151702881
sg268
S'./stimfiles/chinese_characters/24887.jpg'
p549
sg270
F336.0
sg271
g300
sg273
I13
sg274
I1
sg275
F1.0
sg263
g276
sg277
I3
sg278
F336.0170040130615
ssI135
(dp550
g8
F0.4907689094543457
sg268
S'./stimfiles/chinese_characters/25973.jpg'
p551
sg270
F338.0
sg271
g300
sg273
I13
sg274
I1
sg275
F1.0
sg263
g276
sg277
I0
sg278
F338.01792192459106
ssI136
(dp552
g8
F0.6508769989013672
sg268
S'./stimfiles/chinese_characters/24887.jpg'
p553
sg270
F340.0
sg271
g300
sg273
I13
sg274
I1
sg275
F1.0
sg263
g276
sg277
I2
sg278
F340.0186448097229
ssI137
(dp554
g8
F0.5412659645080566
sg268
S'./stimfiles/chinese_characters/35473.jpg'
p555
sg270
F342.0
sg271
g300
sg273
I13
sg274
I1
sg275
F1.0
sg263
g276
sg277
I0
sg278
F342.01946687698364
ssI138
(dp556
g8
F0.7914838790893555
sg268
S'./stimfiles/chinese_characters/35473.jpg'
p557
sg270
F344.0
sg271
g300
sg273
I13
sg274
I1
sg275
F1.0
sg263
g281
sg277
I1
sg278
F344.02031993865967
ssI139
(dp558
g8
F0.6870620250701904
sg268
S'./stimfiles/chinese_characters/24887.jpg'
p559
sg270
F346.0
sg271
g300
sg273
I13
sg274
I1
sg275
F1.0
sg263
g276
sg277
I3
sg278
F346.0223729610443
ssI140
(dp560
g8
F0.6248009204864502
sg268
S'./stimfiles/chinese_characters/25868.jpg'
p561
sg270
F350.0
sg271
g300
sg273
I14
sg274
I2
sg275
F1.0
sg263
g276
sg277
I0
sg278
F350.0231099128723
ssI141
(dp562
g8
F0.5532739162445068
sg268
S'./stimfiles/chinese_characters/26373.jpg'
p563
sg270
F352.0
sg271
g300
sg273
I14
sg274
I2
sg275
F1.0
sg263
g276
sg277
I0
sg278
F352.02480697631836
ssI142
(dp564
g8
F0.637408971786499
sg268
S'./stimfiles/chinese_characters/32018.jpg'
p565
sg270
F354.0
sg271
g300
sg273
I14
sg274
I2
sg275
F1.0
sg263
g276
sg277
I0
sg278
F354.024395942688
ssI143
(dp566
g8
F0.7528250217437744
sg268
S'./stimfiles/chinese_characters/26373.jpg'
p567
sg270
F356.0
sg271
g300
sg273
I14
sg274
I2
sg275
F1.0
sg263
g281
sg277
I2
sg278
F356.0251829624176
ssI144
(dp568
g8
F0.6711788177490234
sg268
S'./stimfiles/chinese_characters/24878.jpg'
p569
sg270
F358.0
sg271
g300
sg273
I14
sg274
I2
sg275
F1.0
sg263
g276
sg277
I0
sg278
F358.02597403526306
ssI145
(dp570
g8
F0.6573910713195801
sg268
S'./stimfiles/chinese_characters/26373.jpg'
p571
sg270
F360.0
sg271
g300
sg273
I14
sg274
I2
sg275
F1.0
sg263
g281
sg277
I2
sg278
F360.0267298221588
ssI146
(dp572
g8
F0.7875659465789795
sg268
S'./stimfiles/chinese_characters/26028.jpg'
p573
sg270
F362.0
sg271
g300
sg273
I14
sg274
I2
sg275
F1.0
sg263
g276
sg277
I0
sg278
F362.0275778770447
ssI147
(dp574
g8
F0.9184520244598389
sg268
S'./stimfiles/chinese_characters/25723.jpg'
p575
sg270
F364.0
sg271
g300
sg273
I14
sg274
I2
sg275
F1.0
sg263
g276
sg277
I0
sg278
F364.0116708278656
ssI148
(dp576
g8
F0.6174130439758301
sg268
S'./stimfiles/chinese_characters/26028.jpg'
p577
sg270
F366.0
sg271
g300
sg273
I14
sg274
I2
sg275
F1.0
sg263
g281
sg277
I2
sg278
F366.0124888420105
ssI149
(dp578
g8
F0.9307088851928711
sg268
S'./stimfiles/chinese_characters/26028.jpg'
p579
sg270
F368.0
sg271
g300
sg273
I14
sg274
I2
sg275
F1.0
sg263
g276
sg277
I1
sg278
F368.0132620334625
ssI150
(dp580
g8
F0.4835350513458252
sg268
S'./stimfiles/faces/cropped_439.png'
p581
sg270
F372.0
sg271
g272
sg273
I15
sg274
I2
sg275
F1.0
sg263
g276
sg277
I0
sg278
F372.01494884490967
ssI151
(dp582
g8
F0.8605999946594238
sg268
S'./stimfiles/faces/cropped_439.png'
p583
sg270
F374.0
sg271
g272
sg273
I15
sg274
I2
sg275
F1.0
sg263
g276
sg277
I1
sg278
F374.01576495170593
ssI152
(dp584
g8
F0.6478891372680664
sg268
S'./stimfiles/faces/cropped_1014.png'
p585
sg270
F376.0
sg271
g272
sg273
I15
sg274
I2
sg275
F1.0
sg263
g276
sg277
I0
sg278
F376.0165548324585
ssI153
(dp586
g8
F0.8701789379119873
sg268
S'./stimfiles/faces/cropped_127.png'
p587
sg270
F378.0
sg271
g272
sg273
I15
sg274
I2
sg275
F1.0
sg263
g276
sg277
I0
sg278
F378.0173559188843
ssI154
(dp588
g8
F0.9352271556854248
sg268
S'./stimfiles/faces/cropped_439.png'
p589
sg270
F380.0
sg271
g272
sg273
I15
sg274
I2
sg275
F1.0
sg263
g276
sg277
I3
sg278
F380.0181088447571
ssI155
(dp590
g8
F0.7785069942474365
sg268
S'./stimfiles/faces/cropped_m1v1e1.png'
p591
sg270
F382.0
sg271
g272
sg273
I15
sg274
I2
sg275
F1.0
sg263
g276
sg277
I0
sg278
F382.0189049243927
ssI156
(dp592
g8
F0.7559990882873535
sg268
S'./stimfiles/faces/cropped_s22_13.png'
p593
sg270
F384.0
sg271
g272
sg273
I15
sg274
I2
sg275
F1.0
sg263
g276
sg277
I0
sg278
F384.01975893974304
ssI157
(dp594
g8
F0.8130249977111816
sg268
S'./stimfiles/faces/cropped_s45_01.png'
p595
sg270
F386.0
sg271
g272
sg273
I15
sg274
I2
sg275
F1.0
sg263
g276
sg277
I0
sg278
F386.02053689956665
ssI158
(dp596
g8
F0.8292789459228516
sg268
S'./stimfiles/faces/cropped_m-037-01.png'
p597
sg270
F388.0
sg271
g272
sg273
I15
sg274
I2
sg275
F1.0
sg263
g276
sg277
I0
sg278
F388.0214099884033
ssI159
(dp598
g8
F0.6221041679382324
sg268
S'./stimfiles/faces/cropped_s45_01.png'
p599
sg270
F390.0
sg271
g272
sg273
I15
sg274
I2
sg275
F1.0
sg263
g281
sg277
I2
sg278
F390.0225508213043
ssI160
(dp600
g8
F0.536715030670166
sg268
S'./stimfiles/scenes/881.jpg'
p601
sg270
F394.0
sg271
g361
sg273
I16
sg274
I2
sg275
F1.0
sg263
g276
sg277
I0
sg278
F394.0239448547363
ssI161
(dp602
g8
F0.5547881126403809
sg268
S'./stimfiles/scenes/1519.jpg'
p603
sg270
F396.0
sg271
g361
sg273
I16
sg274
I2
sg275
F1.0
sg263
g276
sg277
I0
sg278
F396.0080478191376
ssI162
(dp604
g8
F0.5102949142456055
sg268
S'./stimfiles/scenes/224.jpg'
p605
sg270
F398.0
sg271
g361
sg273
I16
sg274
I2
sg275
F1.0
sg263
g276
sg277
I0
sg278
F398.00873589515686
ssI163
(dp606
g8
F0.8414731025695801
sg268
S'./stimfiles/scenes/224.jpg'
p607
sg270
F400.0
sg271
g361
sg273
I16
sg274
I2
sg275
F1.0
sg263
g276
sg277
I1
sg278
F400.00955080986023
ssI164
(dp608
g8
F0.6844379901885986
sg268
S'./stimfiles/scenes/1519.jpg'
p609
sg270
F402.0
sg271
g361
sg273
I16
sg274
I2
sg275
F1.0
sg263
g276
sg277
I3
sg278
F402.01028299331665
ssI165
(dp610
g8
F0.5646679401397705
sg268
S'./stimfiles/scenes/3032.jpg'
p611
sg270
F404.0
sg271
g361
sg273
I16
sg274
I2
sg275
F1.0
sg263
g276
sg277
I0
sg278
F404.01112389564514
ssI166
(dp612
g8
F0.6062049865722656
sg268
S'./stimfiles/scenes/1519.jpg'
p613
sg270
F406.0
sg271
g361
sg273
I16
sg274
I2
sg275
F1.0
sg263
g281
sg277
I2
sg278
F406.0119128227234
ssI167
(dp614
g8
F0.862358808517456
sg268
S'./stimfiles/scenes/3032.jpg'
p615
sg270
F408.0
sg271
g361
sg273
I16
sg274
I2
sg275
F1.0
sg263
g281
sg277
I2
sg278
F408.012727022171
ssI168
(dp616
g8
F0.8494329452514648
sg268
S'./stimfiles/scenes/1519.jpg'
p617
sg270
F410.0
sg271
g361
sg273
I16
sg274
I2
sg275
F1.0
sg263
g281
sg277
I2
sg278
F410.01356291770935
ssI169
(dp618
g8
F0.6508009433746338
sg268
S'./stimfiles/scenes/1519.jpg'
p619
sg270
F412.0
sg271
g361
sg273
I16
sg274
I2
sg275
F1.0
sg263
g276
sg277
I1
sg278
F412.01439094543457
ssI170
(dp620
g8
F0.4632859230041504
sg268
S'./stimfiles/scenes/1765.jpg'
p621
sg270
F416.0
sg271
g361
sg273
I17
sg274
I1
sg275
F1.0
sg263
g276
sg277
I0
sg278
F416.0160119533539
ssI171
(dp622
g8
F0.4984400272369385
sg268
S'./stimfiles/scenes/1765.jpg'
p623
sg270
F418.0
sg271
g361
sg273
I17
sg274
I1
sg275
F1.0
sg263
g281
sg277
I1
sg278
F418.0168559551239
ssI172
(dp624
g8
F0.5054218769073486
sg268
S'./stimfiles/scenes/1765.jpg'
p625
sg270
F420.0
sg271
g361
sg273
I17
sg274
I1
sg275
F1.0
sg263
g281
sg277
I1
sg278
F420.0176429748535
ssI173
(dp626
g8
F0.5010218620300293
sg268
S'./stimfiles/scenes/1765.jpg'
p627
sg270
F422.0
sg271
g361
sg273
I17
sg274
I1
sg275
F1.0
sg263
g281
sg277
I1
sg278
F422.01838397979736
ssI174
(dp628
g8
F0.5860700607299805
sg268
S'./stimfiles/scenes/3094.jpg'
p629
sg270
F424.0
sg271
g361
sg273
I17
sg274
I1
sg275
F1.0
sg263
g276
sg277
I0
sg278
F424.01921582221985
ssI175
(dp630
g268
S'./stimfiles/scenes/1765.jpg'
p631
sg270
F426.0
sg271
g361
sg273
I17
sg274
I1
sg275
F1.0
sg277
I2
sg278
F426.01999497413635
ssI176
(dp632
g8
F0.65777587890625
sg268
S'./stimfiles/scenes/1393.jpg'
p633
sg270
F428.0
sg271
g361
sg273
I17
sg274
I1
sg275
F1.0
sg263
g276
sg277
I0
sg278
F428.02088499069214
ssI177
(dp634
g8
F0.5824010372161865
sg268
S'./stimfiles/scenes/972.jpg'
p635
sg270
F430.0
sg271
g361
sg273
I17
sg274
I1
sg275
F1.0
sg263
g276
sg277
I0
sg278
F430.02290391921997
ssI178
(dp636
g8
F0.6310169696807861
sg268
S'./stimfiles/scenes/901.jpg'
p637
sg270
F432.0
sg271
g361
sg273
I17
sg274
I1
sg275
F1.0
sg263
g276
sg277
I0
sg278
F432.02250599861145
ssI179
(dp638
g8
F0.52431321144104
sg268
S'./stimfiles/scenes/1393.jpg'
p639
sg270
F434.0
sg271
g361
sg273
I17
sg274
I1
sg275
F1.0
sg263
g276
sg277
I3
sg278
F434.02331280708313
sssS'stim_log'
p640
(dp641
sS'nstims'
p642
I5
sS'inter_stim_int'
p643
F1.0
sS'SS'
p644
(dp645
sS'inst_time'
p646
F1.0
sS'broke_on_trial'
p647
(dp648
sS'events'
p649
(lp650
(lp651
F0.0
aI0
aI1
aI0
aS'inst'
p652
aa(lp653
F2.0
aI0
aI1
aI0
ag269
aa(lp654
F4.0
aI0
aI1
aI1
ag280
aa(lp655
F6.0
aI0
aI1
aI0
ag283
aa(lp656
F8.0
aI0
aI1
aI0
ag285
aa(lp657
F10.0
aI0
aI1
aI0
ag287
aa(lp658
F12.0
aI0
aI1
aI1
ag289
aa(lp659
F14.0
aI0
aI1
aI0
ag291
aa(lp660
F16.0
aI0
aI1
aI0
ag293
aa(lp661
F18.0
aI0
aI1
aI0
ag295
aa(lp662
F20.0
aI0
aI1
aI3
ag297
aa(lp663
F22.0
aI1
aI1
aI0
aS'inst'
p664
aa(lp665
F24.0
aI1
aI1
aI0
ag299
aa(lp666
F26.0
aI1
aI1
aI0
ag302
aa(lp667
F28.0
aI1
aI1
aI1
ag304
aa(lp668
F30.0
aI1
aI1
aI0
ag306
aa(lp669
F32.0
aI1
aI1
aI0
ag308
aa(lp670
F34.0
aI1
aI1
aI2
ag310
aa(lp671
F36.0
aI1
aI1
aI0
ag312
aa(lp672
F38.0
aI1
aI1
aI0
ag314
aa(lp673
F40.0
aI1
aI1
aI0
ag316
aa(lp674
F42.0
aI1
aI1
aI0
ag318
aa(lp675
F44.0
aI2
aI2
aI0
aS'inst'
p676
aa(lp677
F46.0
aI2
aI2
aI0
ag320
aa(lp678
F48.0
aI2
aI2
aI1
ag322
aa(lp679
F50.0
aI2
aI2
aI1
ag324
aa(lp680
F52.0
aI2
aI2
aI3
ag326
aa(lp681
F54.0
aI2
aI2
aI3
ag328
aa(lp682
F56.0
aI2
aI2
aI2
ag330
aa(lp683
F58.0
aI2
aI2
aI0
ag332
aa(lp684
F60.0
aI2
aI2
aI2
ag334
aa(lp685
F62.0
aI2
aI2
aI0
ag336
aa(lp686
F64.0
aI2
aI2
aI3
ag338
aa(lp687
F66.0
aI3
aI2
aI0
aS'inst'
p688
aa(lp689
F68.0
aI3
aI2
aI0
ag340
aa(lp690
F70.0
aI3
aI2
aI1
ag342
aa(lp691
F72.0
aI3
aI2
aI0
ag344
aa(lp692
F74.0
aI3
aI2
aI2
ag346
aa(lp693
F76.0
aI3
aI2
aI0
ag348
aa(lp694
F78.0
aI3
aI2
aI0
ag350
aa(lp695
F80.0
aI3
aI2
aI2
ag352
aa(lp696
F82.0
aI3
aI2
aI2
ag354
aa(lp697
F84.0
aI3
aI2
aI0
ag356
aa(lp698
F86.0
aI3
aI2
aI2
ag358
aa(lp699
F88.0
aI4
aI2
aI0
aS'inst'
p700
aa(lp701
F90.0
aI4
aI2
aI0
ag360
aa(lp702
F92.0
aI4
aI2
aI1
ag363
aa(lp703
F94.0
aI4
aI2
aI0
ag365
aa(lp704
F96.0
aI4
aI2
aI0
ag367
aa(lp705
F98.0
aI4
aI2
aI3
ag369
aa(lp706
F100.0
aI4
aI2
aI3
ag371
aa(lp707
F102.0
aI4
aI2
aI0
ag373
aa(lp708
F104.0
aI4
aI2
aI2
ag375
aa(lp709
F106.0
aI4
aI2
aI0
ag377
aa(lp710
F108.0
aI4
aI2
aI0
ag379
aa(lp711
F110.0
aI5
aI1
aI0
aS'inst'
p712
aa(lp713
F112.0
aI5
aI1
aI0
ag381
aa(lp714
F114.0
aI5
aI1
aI0
ag383
aa(lp715
F116.0
aI5
aI1
aI0
ag385
aa(lp716
F118.0
aI5
aI1
aI0
ag387
aa(lp717
F120.0
aI5
aI1
aI1
ag389
aa(lp718
F122.0
aI5
aI1
aI0
ag391
aa(lp719
F124.0
aI5
aI1
aI3
ag393
aa(lp720
F126.0
aI5
aI1
aI0
ag395
aa(lp721
F128.0
aI5
aI1
aI2
ag397
aa(lp722
F130.0
aI5
aI1
aI0
ag399
aa(lp723
F152.0
aI0
aI1
aI0
aS'inst'
p724
aa(lp725
F154.0
aI6
aI1
aI0
ag401
aa(lp726
F156.0
aI6
aI1
aI1
ag403
aa(lp727
F158.0
aI6
aI1
aI0
ag405
aa(lp728
F160.0
aI6
aI1
aI3
ag407
aa(lp729
F162.0
aI6
aI1
aI0
ag409
aa(lp730
F164.0
aI6
aI1
aI0
ag411
aa(lp731
F166.0
aI6
aI1
aI0
ag413
aa(lp732
F168.0
aI6
aI1
aI1
ag415
aa(lp733
F170.0
aI6
aI1
aI1
ag417
aa(lp734
F172.0
aI6
aI1
aI3
ag419
aa(lp735
F174.0
aI1
aI1
aI0
aS'inst'
p736
aa(lp737
F176.0
aI7
aI1
aI0
ag421
aa(lp738
F178.0
aI7
aI1
aI1
ag423
aa(lp739
F180.0
aI7
aI1
aI0
ag425
aa(lp740
F182.0
aI7
aI1
aI3
ag427
aa(lp741
F184.0
aI7
aI1
aI2
ag429
aa(lp742
F186.0
aI7
aI1
aI1
ag431
aa(lp743
F188.0
aI7
aI1
aI0
ag433
aa(lp744
F190.0
aI7
aI1
aI0
ag435
aa(lp745
F192.0
aI7
aI1
aI0
ag437
aa(lp746
F194.0
aI7
aI1
aI1
ag439
aa(lp747
F196.0
aI2
aI2
aI0
aS'inst'
p748
aa(lp749
F198.0
aI8
aI2
aI0
ag441
aa(lp750
F200.0
aI8
aI2
aI0
ag443
aa(lp751
F202.0
aI8
aI2
aI0
ag445
aa(lp752
F204.0
aI8
aI2
aI0
ag447
aa(lp753
F206.0
aI8
aI2
aI0
ag449
aa(lp754
F208.0
aI8
aI2
aI0
ag451
aa(lp755
F210.0
aI8
aI2
aI0
ag453
aa(lp756
F212.0
aI8
aI2
aI0
ag455
aa(lp757
F214.0
aI8
aI2
aI0
ag457
aa(lp758
F216.0
aI8
aI2
aI2
ag459
aa(lp759
F218.0
aI3
aI2
aI0
aS'inst'
p760
aa(lp761
F220.0
aI9
aI2
aI0
ag461
aa(lp762
F222.0
aI9
aI2
aI0
ag463
aa(lp763
F224.0
aI9
aI2
aI0
ag465
aa(lp764
F226.0
aI9
aI2
aI3
ag467
aa(lp765
F228.0
aI9
aI2
aI0
ag469
aa(lp766
F230.0
aI9
aI2
aI2
ag471
aa(lp767
F232.0
aI9
aI2
aI0
ag473
aa(lp768
F234.0
aI9
aI2
aI3
ag475
aa(lp769
F236.0
aI9
aI2
aI1
ag477
aa(lp770
F238.0
aI9
aI2
aI0
ag479
aa(lp771
F240.0
aI4
aI2
aI0
aS'inst'
p772
aa(lp773
F242.0
aI10
aI2
aI0
ag481
aa(lp774
F244.0
aI10
aI2
aI0
ag483
aa(lp775
F246.0
aI10
aI2
aI0
ag485
aa(lp776
F248.0
aI10
aI2
aI0
ag487
aa(lp777
F250.0
aI10
aI2
aI0
ag489
aa(lp778
F252.0
aI10
aI2
aI0
ag491
aa(lp779
F254.0
aI10
aI2
aI0
ag493
aa(lp780
F256.0
aI10
aI2
aI0
ag495
aa(lp781
F258.0
aI10
aI2
aI2
ag497
aa(lp782
F260.0
aI10
aI2
aI2
ag499
aa(lp783
F262.0
aI5
aI1
aI0
aS'inst'
p784
aa(lp785
F264.0
aI11
aI1
aI0
ag501
aa(lp786
F266.0
aI11
aI1
aI1
ag503
aa(lp787
F268.0
aI11
aI1
aI0
ag505
aa(lp788
F270.0
aI11
aI1
aI2
ag507
aa(lp789
F272.0
aI11
aI1
aI0
ag509
aa(lp790
F274.0
aI11
aI1
aI1
ag511
aa(lp791
F276.0
aI11
aI1
aI0
ag513
aa(lp792
F278.0
aI11
aI1
aI0
ag515
aa(lp793
F280.0
aI11
aI1
aI0
ag517
aa(lp794
F282.0
aI11
aI1
aI3
ag519
aa(lp795
F304.0
aI0
aI1
aI0
aS'inst'
p796
aa(lp797
F306.0
aI12
aI1
aI0
ag521
aa(lp798
F308.0
aI12
aI1
aI0
ag523
aa(lp799
F310.0
aI12
aI1
aI2
ag525
aa(lp800
F312.0
aI12
aI1
aI0
ag527
aa(lp801
F314.0
aI12
aI1
aI0
ag529
aa(lp802
F316.0
aI12
aI1
aI0
ag531
aa(lp803
F318.0
aI12
aI1
aI1
ag533
aa(lp804
F320.0
aI12
aI1
aI0
ag535
aa(lp805
F322.0
aI12
aI1
aI2
ag537
aa(lp806
F324.0
aI12
aI1
aI2
ag539
aa(lp807
F326.0
aI1
aI1
aI0
aS'inst'
p808
aa(lp809
F328.0
aI13
aI1
aI0
ag541
aa(lp810
F330.0
aI13
aI1
aI0
ag543
aa(lp811
F332.0
aI13
aI1
aI0
ag545
aa(lp812
F334.0
aI13
aI1
aI1
ag547
aa(lp813
F336.0
aI13
aI1
aI3
ag549
aa(lp814
F338.0
aI13
aI1
aI0
ag551
aa(lp815
F340.0
aI13
aI1
aI2
ag553
aa(lp816
F342.0
aI13
aI1
aI0
ag555
aa(lp817
F344.0
aI13
aI1
aI1
ag557
aa(lp818
F346.0
aI13
aI1
aI3
ag559
aa(lp819
F348.0
aI2
aI2
aI0
aS'inst'
p820
aa(lp821
F350.0
aI14
aI2
aI0
ag561
aa(lp822
F352.0
aI14
aI2
aI0
ag563
aa(lp823
F354.0
aI14
aI2
aI0
ag565
aa(lp824
F356.0
aI14
aI2
aI2
ag567
aa(lp825
F358.0
aI14
aI2
aI0
ag569
aa(lp826
F360.0
aI14
aI2
aI2
ag571
aa(lp827
F362.0
aI14
aI2
aI0
ag573
aa(lp828
F364.0
aI14
aI2
aI0
ag575
aa(lp829
F366.0
aI14
aI2
aI2
ag577
aa(lp830
F368.0
aI14
aI2
aI1
ag579
aa(lp831
F370.0
aI3
aI2
aI0
aS'inst'
p832
aa(lp833
F372.0
aI15
aI2
aI0
ag581
aa(lp834
F374.0
aI15
aI2
aI1
ag583
aa(lp835
F376.0
aI15
aI2
aI0
ag585
aa(lp836
F378.0
aI15
aI2
aI0
ag587
aa(lp837
F380.0
aI15
aI2
aI3
ag589
aa(lp838
F382.0
aI15
aI2
aI0
ag591
aa(lp839
F384.0
aI15
aI2
aI0
ag593
aa(lp840
F386.0
aI15
aI2
aI0
ag595
aa(lp841
F388.0
aI15
aI2
aI0
ag597
aa(lp842
F390.0
aI15
aI2
aI2
ag599
aa(lp843
F392.0
aI4
aI2
aI0
aS'inst'
p844
aa(lp845
F394.0
aI16
aI2
aI0
ag601
aa(lp846
F396.0
aI16
aI2
aI0
ag603
aa(lp847
F398.0
aI16
aI2
aI0
ag605
aa(lp848
F400.0
aI16
aI2
aI1
ag607
aa(lp849
F402.0
aI16
aI2
aI3
ag609
aa(lp850
F404.0
aI16
aI2
aI0
ag611
aa(lp851
F406.0
aI16
aI2
aI2
ag613
aa(lp852
F408.0
aI16
aI2
aI2
ag615
aa(lp853
F410.0
aI16
aI2
aI2
ag617
aa(lp854
F412.0
aI16
aI2
aI1
ag619
aa(lp855
F414.0
aI5
aI1
aI0
aS'inst'
p856
aa(lp857
F416.0
aI17
aI1
aI0
ag621
aa(lp858
F418.0
aI17
aI1
aI1
ag623
aa(lp859
F420.0
aI17
aI1
aI1
ag625
aa(lp860
F422.0
aI17
aI1
aI1
ag627
aa(lp861
F424.0
aI17
aI1
aI0
ag629
aa(lp862
F426.0
aI17
aI1
aI2
ag631
aa(lp863
F428.0
aI17
aI1
aI0
ag633
aa(lp864
F430.0
aI17
aI1
aI0
ag635
aa(lp865
F432.0
aI17
aI1
aI0
ag637
aa(lp866
F434.0
aI17
aI1
aI3
ag639
aasS'is_this_SS_trial'
p867
(dp868
sS'subcode'
p869
S'self_tracking_0059'
p870
sS'start_key'
p871
S'5'
p872
s.